 ConEmu64

 Timestamp is 5293b38d (Tue Nov 26 00:31:09 2013)

 Preferred load address is 0000000140000000

 Start         Length     Name                   Class
 0001:00000000 000fa25cH .text                   CODE
 0001:000fa260 000000b0H .text$00                CODE
 0001:000fa310 000026e5H .text$x                 CODE
 0001:000fca00 00000061H .text$yc                CODE
 0001:000fca70 00000053H .text$yd                CODE
 0002:00000000 00000f00H .idata$5                DATA
 0002:00000f00 00000008H .CRT$XCA                DATA
 0002:00000f08 00000010H .CRT$XCU                DATA
 0002:00000f18 00000008H .CRT$XCZ                DATA
 0002:00000f20 00000008H .CRT$XIA                DATA
 0002:00000f28 00000018H .CRT$XIC                DATA
 0002:00000f40 00000008H .CRT$XIY                DATA
 0002:00000f48 00000008H .CRT$XIZ                DATA
 0002:00000f50 00000008H .CRT$XPA                DATA
 0002:00000f58 00000008H .CRT$XPX                DATA
 0002:00000f60 00000008H .CRT$XPXA               DATA
 0002:00000f68 00000008H .CRT$XPZ                DATA
 0002:00000f70 00000008H .CRT$XTA                DATA
 0002:00000f78 00000008H .CRT$XTZ                DATA
 0002:00000f80 00030198H .rdata                  DATA
 0002:00031118 00000064H .rdata$debug            DATA
 0002:00031180 0000016cH .rdata$r                DATA
 0002:000312f0 00000008H .rtc$IAA                DATA
 0002:000312f8 00000008H .rtc$IZZ                DATA
 0002:00031300 00000008H .rtc$TAA                DATA
 0002:00031308 00000008H .rtc$TZZ                DATA
 0002:00031310 0000f960H .xdata                  DATA
 0002:00040c70 00000084H .xdata$x                DATA
 0002:00040cf4 00000104H .idata$2                DATA
 0002:00040df8 00000014H .idata$3                DATA
 0002:00040e10 00000f00H .idata$4                DATA
 0002:00041d10 000020e6H .idata$6                DATA
 0002:00043df6 00000000H .edata                  DATA
 0003:00000000 00003180H .data                   DATA
 0003:00003180 0004e8b0H .bss                    DATA
 0004:00000000 0000ab24H .pdata                  DATA
 0005:00000000 000019a8H .rsrc$01                DATA
 0005:000019b0 0002ac48H .rsrc$02                DATA

  Address         Publics by Value              Rva+Base               Lib:Object

 0000:00000000       ___safe_se_handler_count   0000000000000000     <absolute>
 0000:00000000       ___safe_se_handler_table   0000000000000000     <absolute>
 0000:00000000       __ImageBase                0000000140000000     <linker-defined>
 0001:00000000       ?fNtQueryInformationProcess@CProcessData@@KAJPEAXW4_PROCESSINFOCLASS@1@0KPEAK@Z 0000000140001000 f i Attach.obj
 0001:00000010       ?GetOpenProcessData@CProcessData@@IEAAXPEAXPEA_WK1K1K@Z 0000000140001010 f i Attach.obj
 0001:00000310       ?getcounter@CProcessData@@KAHPEA_W@Z 0000000140001310 f i Attach.obj
 0001:00000370       ?LoadPerfData@CProcessData@@IEAAXXZ 0000000140001370 f i Attach.obj
 0001:000005e0       ??0CProcessData@@QEAA@XZ   00000001400015e0 f i Attach.obj
 0001:000006e0       ?GetProcessName@CProcessData@@QEAA_NKPEA_WK0KPEAH@Z 00000001400016e0 f i Attach.obj
 0001:00000a10       ??0CAttachDlg@@QEAA@XZ     0000000140001a10 f   Attach.obj
 0001:00000a50       ?ConWnd@CRealConsole@@QEAAPEAUHWND__@@XZ 0000000140001a50 f   RealConsole.obj
 0001:00000a50       ?GetHWND@CAttachDlg@@QEAAPEAUHWND__@@XZ 0000000140001a50 f   Attach.obj
 0001:00000a60       ?StringCchCopyW@@YAJPEA_W_KPEB_W@Z 0000000140001a60 f i Attach.obj
 0001:00000ae0       ?StringCchCatW@@YAJPEA_W_KPEB_W@Z 0000000140001ae0 f i Attach.obj
 0001:00000bb0       ?Close@CAttachDlg@@QEAAXXZ 0000000140001bb0 f   Attach.obj
 0001:00000c40       ??$wcscpy_c@$0BA@@@YAHAEAY0BA@_WPEB_W@Z 0000000140001c40 f i Attach.obj
 0001:00000ca0       ??$wcscat_c@$0CA@@@YAHAEAY0CA@_WPEB_W@Z 0000000140001ca0 f i Attach.obj
 0001:00000d60       ??$wcscpy_c@$0EA@@@YAHAEAY0EA@_WPEB_W@Z 0000000140001d60 f i Attach.obj
 0001:00000dc0       ??$wcscat_c@$0BEE@@@YAHAEAY0BEE@_WPEB_W@Z 0000000140001dc0 f i Attach.obj
 0001:00000e80       ??$wcscpy_c@$0PP@@@YAHAEAY0PP@_WPEB_W@Z 0000000140001e80 f i Attach.obj
 0001:00000ee0       ??$wcscat_c@$0PP@@@YAHAEAY0PP@_WPEB_W@Z 0000000140001ee0 f i Attach.obj
 0001:00000fa0       ??1CAttachDlg@@QEAA@XZ     0000000140001fa0 f   Attach.obj
 0001:00000fb0       ?AttachDlgEnumWin@CAttachDlg@@SAHPEAUHWND__@@_J@Z 0000000140001fb0 f   Attach.obj
 0001:00001650       ?StartAttach@CAttachDlg@@KA_NPEAUHWND__@@KKW4AttachProcessType@@H@Z 0000000140002650 f   Attach.obj
 0001:00001ce0       ?StartAttachThread@CAttachDlg@@SAKPEAUAttachParm@@@Z 0000000140002ce0 f   Attach.obj
 0001:00001d40       ?OnStartAttach@CAttachDlg@@IEAA_NXZ 0000000140002d40 f   Attach.obj
 0001:000020b0       ?AttachDlgProc@CAttachDlg@@SA_JPEAUHWND__@@I_K_J@Z 00000001400030b0 f   Attach.obj
 0001:00002d70       ?AttachDlg@CAttachDlg@@QEAAXXZ 0000000140003d70 f   Attach.obj
 0001:00002e10       ?Release@CRefRelease@@QEAAHXZ 0000000140003e10 f i Background.obj
 0001:00002e50       ??0CBackground@@QEAA@XZ    0000000140003e50 f   Background.obj
 0001:00002eb0       ?NeedBackgroundUpdate@CBackground@@QEAAXXZ 0000000140003eb0 f   Background.obj
 0001:00002ec0       ?HasPluginBackgroundImage@CBackground@@QEAA_NPEAJ0@Z 0000000140003ec0 f   Background.obj
 0001:00002f10       ?BgImage@CBackgroundInfo@@QEAAPEB_WXZ 0000000140003f10 f   Background.obj
 0001:00002f30       ?GetBgImgData@CBackgroundInfo@@QEAAPEBUtagBITMAPFILEHEADER@@XZ 0000000140003f30 f   Background.obj
 0001:00002f40       ?LoadBackgroundFile@CBackgroundInfo@@QEAA_N_N@Z 0000000140003f40 f   Background.obj
 0001:000030b0       ?CreateField@CBackground@@QEAA_NHH@Z 00000001400040b0 f   Background.obj
 0001:00003250       ?FillBackground@CBackground@@QEAA_NPEBUtagBITMAPFILEHEADER@@JJJJW4BackgroundOp@@_N@Z 0000000140004250 f   Background.obj
 0001:00003830       ?SetPluginBackgroundImageData@CBackground@@QEAAHPEAUCESERVER_REQ_SETBACKGROUND@@AEA_N@Z 0000000140004830 f   Background.obj
 0001:00003aa0       ?PutPluginBackgroundImage@CBackground@@AEAA_NJJJJ@Z 0000000140004aa0 f   Background.obj
 0001:00003e20       ??1CBackgroundInfo@@MEAA@XZ 0000000140004e20 f   Background.obj
 0001:00003ef0       ?PollBackgroundFile@CBackgroundInfo@@QEAA_NXZ 0000000140004ef0 f   Background.obj
 0001:00004000       ??$wcscpy_c@$0BAE@@@YAHAEAY0BAE@_WPEB_W@Z 0000000140005000 f i Background.obj
 0001:00004060       ??1CBackground@@UEAA@XZ    0000000140005060 f   Background.obj
 0001:00004170       ?PrepareBackground@CBackground@@QEAA_NPEAVCVirtualConsole@@AEAPEAUHDC__@@AEAU_COORD@@@Z 0000000140005170 f   Background.obj
 0001:00004660       ??0CBackgroundInfo@@IEAA@PEB_W@Z 0000000140005660 f   Background.obj
 0001:00004780       ??_GCBackgroundInfo@@MEAAPEAXI@Z 0000000140005780 f i Background.obj
 0001:00004780       ??_ECBackgroundInfo@@MEAAPEAXI@Z 0000000140005780 f i Background.obj
 0001:000047b0       ??_ECBackground@@UEAAPEAXI@Z 00000001400057b0 f i Background.obj
 0001:000047b0       ??_GCBackground@@UEAAPEAXI@Z 00000001400057b0 f i Background.obj
 0001:000047e0       ?CreateBackgroundObject@CBackgroundInfo@@SAPEAV1@PEB_W_N@Z 00000001400057e0 f   Background.obj
 0001:00004950       ??1CBaseDropTarget@@QEAA@XZ 0000000140005950 f   BaseDragDrops.obj
 0001:00004960       ?QueryInterface@CBaseDropTarget@@UEAAJAEBU_GUID@@PEAPEAX@Z 0000000140005960 f   BaseDragDrops.obj
 0001:00004a00       ?AddRef@CBaseDropTarget@@UEAAKXZ 0000000140005a00 f   BaseDragDrops.obj
 0001:00004a00       ?AddRef@CEnumFormatEtc@@UEAAKXZ 0000000140005a00 f   BaseDragDrops.obj
 0001:00004a00       ?AddRef@CDataObject@@UEAAKXZ 0000000140005a00 f   BaseDragDrops.obj
 0001:00004a10       ?AddRef@CDropSource@@UEAAKXZ 0000000140005a10 f   BaseDragDrops.obj
 0001:00004a20       ?QueryInterface@CDropSource@@UEAAJAEBU_GUID@@PEAPEAX@Z 0000000140005a20 f   BaseDragDrops.obj
 0001:00004ac0       ?QueryContinueDrag@CDropSource@@UEAAJHK@Z 0000000140005ac0 f   BaseDragDrops.obj
 0001:00004b50       ?GiveFeedback@CDropSource@@UEAAJK@Z 0000000140005b50 f   BaseDragDrops.obj
 0001:00004c20       ?QueryInterface@CDataObject@@UEAAJAEBU_GUID@@PEAPEAX@Z 0000000140005c20 f   BaseDragDrops.obj
 0001:00004cc0       ?DupMem@@YAPEAXPEAX@Z      0000000140005cc0 f   BaseDragDrops.obj
 0001:00004d30       ?GetDataHere@CDataObject@@UEAAJPEAUtagFORMATETC@@PEAUtagSTGMEDIUM@@@Z 0000000140005d30 f   BaseDragDrops.obj
 0001:00004d40       ?GetCanonicalFormatEtc@CDataObject@@UEAAJPEAUtagFORMATETC@@0@Z 0000000140005d40 f   BaseDragDrops.obj
 0001:00004d50       ?SetDataInt@CDataObject@@QEAAJPEB_WPEBXK@Z 0000000140005d50 f   BaseDragDrops.obj
 0001:00004e00       ?DUnadvise@CDataObject@@UEAAJK@Z 0000000140005e00 f   BaseDragDrops.obj
 0001:00004e00       ?DAdvise@CDataObject@@UEAAJPEAUtagFORMATETC@@KPEAUIAdviseSink@@PEAK@Z 0000000140005e00 f   BaseDragDrops.obj
 0001:00004e00       ?EnumDAdvise@CDataObject@@UEAAJPEAPEAUIEnumSTATDATA@@@Z 0000000140005e00 f   BaseDragDrops.obj
 0001:00004e10       ??1CEnumFormatEtc@@QEAA@XZ 0000000140005e10 f   BaseDragDrops.obj
 0001:00004e90       ?QueryInterface@CEnumFormatEtc@@UEAAJAEBU_GUID@@PEAPEAX@Z 0000000140005e90 f   BaseDragDrops.obj
 0001:00004f30       ?Next@CEnumFormatEtc@@UEAAJKPEAUtagFORMATETC@@PEAK@Z 0000000140005f30 f   BaseDragDrops.obj
 0001:00005030       ?Skip@CEnumFormatEtc@@UEAAJK@Z 0000000140006030 f   BaseDragDrops.obj
 0001:00005040       ?Reset@CEnumFormatEtc@@UEAAJXZ 0000000140006040 f   BaseDragDrops.obj
 0001:00005050       ?Release@CBaseDropTarget@@UEAAKXZ 0000000140006050 f   BaseDragDrops.obj
 0001:00005080       ?Release@CDropSource@@UEAAKXZ 0000000140006080 f   BaseDragDrops.obj
 0001:000050b0       ?CreateDropSource@@YAJPEAPEAUIDropSource@@PEAVCDragDropData@@@Z 00000001400060b0 f   BaseDragDrops.obj
 0001:00005130       ?GetData@CDataObject@@UEAAJPEAUtagFORMATETC@@PEAUtagSTGMEDIUM@@@Z 0000000140006130 f   BaseDragDrops.obj
 0001:000052b0       ?QueryGetData@CDataObject@@UEAAJPEAUtagFORMATETC@@@Z 00000001400062b0 f   BaseDragDrops.obj
 0001:00005310       ??0CEnumFormatEtc@@QEAA@PEAUtagFORMATETC@@H@Z 0000000140006310 f   BaseDragDrops.obj
 0001:00005400       ?Release@CEnumFormatEtc@@UEAAKXZ 0000000140006400 f   BaseDragDrops.obj
 0001:00005430       ??$wcscat_c@$0IA@@@YAHAEAY0IA@_WPEB_W@Z 0000000140006430 f i BaseDragDrops.obj
 0001:000054f0       ??0CBaseDropTarget@@QEAA@XZ 00000001400064f0 f   BaseDragDrops.obj
 0001:00005500       ??0CDataObject@@QEAA@PEAUtagFORMATETC@@PEAUtagSTGMEDIUM@@H@Z 0000000140006500 f   BaseDragDrops.obj
 0001:00005640       ??1CDataObject@@QEAA@XZ    0000000140006640 f   BaseDragDrops.obj
 0001:00005710       ?SetData@CDataObject@@UEAAJPEAUtagFORMATETC@@PEAUtagSTGMEDIUM@@H@Z 0000000140006710 f   BaseDragDrops.obj
 0001:000058d0       ?CreateDataObject@@YAJPEAUtagFORMATETC@@PEAUtagSTGMEDIUM@@IPEAPEAVCDataObject@@@Z 00000001400068d0 f   BaseDragDrops.obj
 0001:00005960       ?CreateEnumFormatEtc@@YAJIPEAUtagFORMATETC@@PEAPEAUIEnumFORMATETC@@@Z 0000000140006960 f   BaseDragDrops.obj
 0001:000059f0       ?Clone@CEnumFormatEtc@@UEAAJPEAPEAUIEnumFORMATETC@@@Z 00000001400069f0 f   BaseDragDrops.obj
 0001:00005a30       ?Release@CDataObject@@UEAAKXZ 0000000140006a30 f   BaseDragDrops.obj
 0001:00005a60       ?EnumFormatEtc@CDataObject@@UEAAJKPEAPEAUIEnumFORMATETC@@@Z 0000000140006a60 f   BaseDragDrops.obj
 0001:00005b40       ??0MWow64Disable@@QEAA@XZ  0000000140006b40 f i CmdLine.obj
 0001:00005bd0       ??1MWow64Disable@@QEAA@XZ  0000000140006bd0 f i CmdLine.obj
 0001:00005c00       ?NextArg@@YAHPEAPEB_WAEAY0BAF@_W0@Z 0000000140006c00 f   CmdLine.obj
 0001:00005d90       ?SkipNonPrintable@@YAPEB_WPEB_W@Z 0000000140006d90 f   CmdLine.obj
 0001:00005dd0       ?GetDrive@@YAPEB_WPEB_WPEA_WH@Z 0000000140006dd0 f   CmdLine.obj
 0001:00005f60       ?IsFarExe@@YA_NPEB_W@Z     0000000140006f60 f   CmdLine.obj
 0001:00005fe0       ??$wcscpy_c@$0BAF@@@YAHAEAY0BAF@_WPEB_W@Z 0000000140006fe0 f i CmdLine.obj
 0001:00006040       ?PackInputRecord@@YAHPEBU_INPUT_RECORD@@PEAUMsgStr@MSG64@@@Z 0000000140007040 f   Common.obj
 0001:00006190       ?TranslateKeyPress@@YAXGK_WHPEAU_INPUT_RECORD@@1@Z 0000000140007190 f   Common.obj
 0001:000062e0       ?CommonShutdown@@YAXXZ     00000001400072e0 f   Common.obj
 0001:00006310       ??1DontEnable@@QEAA@XZ     0000000140007310 f i ConEmu.obj
 0001:00006320       ?Set@CESize@@QEAA_N_NW4CESizeStyle@@H@Z 0000000140007320 f i ConEmu.obj
 0001:000063a0       ?ReloadWheelScroll@<unnamed-type-mouse>@CConEmuMain@@QEAAXXZ 00000001400073a0 f i ConEmu.obj
 0001:00006400       ?SetSessionNotification@SessionInfo@CConEmuMain@@QEAAX_N@Z 0000000140007400 f i ConEmu.obj
 0001:000064f0       ?ParseGuiArgs@CommandTasks@Settings@@QEBAXPEAPEA_W0@Z 00000001400074f0 f i ConEmu.obj
 0001:00006640       ?LogPos@ConEmuMsgLogger@@YAXAEBUtagMSG@@W4Source@1@@Z 0000000140007640 f   ConEmu.obj
 0001:00006810       ?isMingwMode@CConEmuMain@@QEAA_NXZ 0000000140007810 f   ConEmu.obj
 0001:00006820       ?isUpdateAllowed@CConEmuMain@@QEAA_NXZ 0000000140007820 f   ConEmu.obj
 0001:00006830       ?isMSysStartup@CConEmuMain@@QEAA_NXZ 0000000140007830 f   ConEmu.obj
 0001:00006840       ?WorkDir@CConEmuMain@@QEAAPEB_WPEB_W@Z 0000000140007840 f   ConEmu.obj
 0001:00006870       ?CheckBaseDir@CConEmuMain@@AEAA_NXZ 0000000140007870 f   ConEmu.obj
 0001:00006920       ?IsResetBasicSettings@CConEmuMain@@QEAA_NXZ 0000000140007920 f   ConEmu.obj
 0001:00006930       ?IsFastSetupDisabled@CConEmuMain@@QEAA_NXZ 0000000140007930 f   ConEmu.obj
 0001:00006950       ?IsAllowSaveSettingsOnExit@CConEmuMain@@QEAA_NXZ 0000000140007950 f   ConEmu.obj
 0001:00006980       ?OnTaskbarCreated@CDragDropData@@QEAAXXZ 0000000140007980 f   DragDropData.obj
 0001:00006980       ?OnUseTheming@CConEmuMain@@MEAAX_N@Z 0000000140007980 f   ConEmu.obj
 0001:00006980       ?ShutdownGuiStep@@YAXPEB_WHHHH@Z 0000000140007980 f   ConEmuApp.obj
 0001:00006980       ?OnCopyingState@CConEmuMain@@QEAAXXZ 0000000140007980 f   ConEmu.obj
 0001:00006980       ?OnUseGlass@CConEmuMain@@MEAAX_N@Z 0000000140007980 f   ConEmu.obj
 0001:00006980       ?OnUseDwm@CConEmuMain@@MEAAX_N@Z 0000000140007980 f   ConEmu.obj
 0001:00006980       ?DragFeedBack@CBaseDropTarget@@UEAAXK@Z 0000000140007980 f   BaseDragDrops.obj
 0001:00006980       ?SyncWindowToConsole@CVConGroup@@SAXXZ 0000000140007980 f   VConGroup.obj
 0001:00006980       ?ExecuteProcessFinished@CConEmuMain@@IEAAX_N@Z 0000000140007980 f   ConEmu.obj
 0001:00006990       ?GetVirtualScreenRect@CConEmuMain@@QEAA?AUtagRECT@@H@Z 0000000140007990 f   ConEmu.obj
 0001:00006b10       ?SetWindowStyle@CConEmuMain@@QEAAXPEAUHWND__@@K@Z 0000000140007b10 f   ConEmu.obj
 0001:00006b20       ?FixWindowStyle@CConEmuMain@@QEAAKKW4ConEmuWindowMode@@@Z 0000000140007b20 f   ConEmu.obj
 0001:00006c20       ?GetWindowStyleEx@CConEmuMain@@QEAAKXZ 0000000140007c20 f   ConEmu.obj
 0001:00006c70       ?LogString@CConEmuMain@@QEAAXPEB_W_N1@Z 0000000140007c70 f   ConEmu.obj
 0001:00006ca0       ?LogString@CConEmuMain@@QEAAXPEBD_N1@Z 0000000140007ca0 f   ConEmu.obj
 0001:00006cd0       ?SetParent@CConEmuMain@@QEAA_NPEAUHWND__@@@Z 0000000140007cd0 f   ConEmu.obj
 0001:00006d40       ?FillConEmuMainFont@CConEmuMain@@AEAAXPEAUConEmuMainFont@@@Z 0000000140007d40 f   ConEmu.obj
 0001:00006e20       ?GetComSpecCopy@CConEmuMain@@QEAAXAEAUConEmuComspec@@@Z 0000000140007e20 f   ConEmu.obj
 0001:00006e40       ?Destroy@CConEmuMain@@QEAAXXZ 0000000140007e40 f   ConEmu.obj
 0001:00006f00       ?AddMargins@CConEmuMain@@SAXAEAUtagRECT@@AEBU2@H@Z 0000000140007f00 f   ConEmu.obj
 0001:00006f60       ?ShowWindow@CConEmuMain@@QEAAHHK@Z 0000000140007f60 f   ConEmu.obj
 0001:00007170       ?Save@QuakePrevSize@CConEmuMain@@QEAAXAEBTCESize@@0AEBH1AEBEAEBW4ConEmuWindowMode@@AEBUIdealRectInfo@2@@Z 0000000140008170 f   ConEmu.obj
 0001:00007220       ?Restore@QuakePrevSize@CConEmuMain@@QEAA?AW4ConEmuWindowMode@@AEATCESize@@0AEAH1AEAEAEAUIdealRectInfo@2@@Z 0000000140008220 f   ConEmu.obj
 0001:000072c0       ?GetWindowMode@CConEmuMain@@QEAA?AW4ConEmuWindowMode@@XZ 00000001400082c0 f   ConEmu.obj
 0001:000072e0       ?IsSizePosFree@CConEmuMain@@QEAA_NW4ConEmuWindowMode@@@Z 00000001400082e0 f   ConEmu.obj
 0001:00007320       ?isIconic@CConEmuMain@@QEAA_N_N@Z 0000000140008320 f   ConEmu.obj
 0001:000073a0       ?isWindowNormal@CConEmuMain@@QEAA_NXZ 00000001400083a0 f   ConEmu.obj
 0001:000073f0       ?isZoomed@CConEmuMain@@QEAA_NXZ 00000001400083f0 f   ConEmu.obj
 0001:00007420       ?isFullScreen@CConEmuMain@@QEAA_NXZ 0000000140008420 f   ConEmu.obj
 0001:00007450       ?OnAlwaysShowScrollbar@CConEmuMain@@QEAAX_N@Z 0000000140008450 f   ConEmu.obj
 0001:00007460       ?Activate@CConEmuMain@@QEAAHPEAVCVirtualConsole@@@Z 0000000140008460 f   ConEmu.obj
 0001:00007480       ?MoveActiveTab@CConEmuMain@@QEAAXPEAVCVirtualConsole@@_N@Z 0000000140008480 f   ConEmu.obj
 0001:00007490       ?ActiveConNum@CConEmuMain@@QEAAHXZ 0000000140008490 f   ConEmu.obj
 0001:000074a0       ?GetConCount@CConEmuMain@@QEAAHXZ 00000001400084a0 f   ConEmu.obj
 0001:000074b0       ?AttachToDialog@CConEmuMain@@QEAAXXZ 00000001400084b0 f   ConEmu.obj
 0001:00007510       ?AttachRequested@CConEmuMain@@QEAAHPEAUHWND__@@PEBUCESERVER_REQ_STARTSTOP@@PEAUCESERVER_REQ_STARTSTOPRET@@@Z 0000000140008510 f   ConEmu.obj
 0001:00007530       ?ConActivateNext@CConEmuMain@@QEAA_NH@Z 0000000140008530 f   ConEmu.obj
 0001:00007540       ?ConActivate@CConEmuMain@@QEAA_NH@Z 0000000140008540 f   ConEmu.obj
 0001:00007550       ?PostCreateCon@CConEmuMain@@QEAAXPEAURConStartArgs@@@Z 0000000140008550 f   ConEmu.obj
 0001:00007570       ?ParseScriptLineOptions@CConEmuMain@@QEAAPEB_WPEB_WPEA_N1_KPEA_W@Z 0000000140008570 f   ConEmu.obj
 0001:000075c0       ?CreateGhostVCon@CConEmuMain@@QEAAXPEAVCVirtualConsole@@@Z 00000001400085c0 f   ConEmu.obj
 0001:000075e0       ?UpdateActiveGhost@CConEmuMain@@QEAAXPEAVCVirtualConsole@@@Z 00000001400085e0 f   ConEmu.obj
 0001:00007660       ?UpdateFarSettings@CConEmuMain@@QEAAXXZ 0000000140008660 f   ConEmu.obj
 0001:00007670       ?UpdateTextColorSettings@CConEmuMain@@QEAAXHH@Z 0000000140008670 f   ConEmu.obj
 0001:00007680       ?GetActiveKeyboardLayout@CConEmuMain@@QEAA_KXZ 0000000140008680 f   ConEmu.obj
 0001:00007690       ?GetDefaultTitle@CConEmuMain@@QEAAPEB_WXZ 0000000140008690 f   ConEmu.obj
 0001:000076a0       ?SetTitleTemplate@CConEmuMain@@QEAAXPEB_W@Z 00000001400086a0 f   ConEmu.obj
 0001:000076d0       ?DontHookJumps@ConEmuHotKey@@SA_NPEBU1@@Z 00000001400086d0 f   Hotkeys.obj
 0001:000076d0       ?ExecuteProcessPrepare@CConEmuMain@@IEAA_NXZ 00000001400086d0 f   ConEmu.obj
 0001:000076e0       ?PostAutoSizeFont@CConEmuMain@@QEAAXHH@Z 00000001400086e0 f   ConEmu.obj
 0001:00007700       ?PostMacroFontSetName@CConEmuMain@@QEAAXPEA_WGGH@Z 0000000140008700 f   ConEmu.obj
 0001:00007790       ?PostDisplayRConError@CConEmuMain@@QEAAXPEAVCRealConsole@@PEA_W@Z 0000000140008790 f   ConEmu.obj
 0001:000077f0       ?PtDiffTest@CConEmuMain@@QEAA_NUtagPOINT@@HHI@Z 00000001400087f0 f   ConEmu.obj
 0001:00007820       ?RegisterGlobalHotKeys@CConEmuMain@@IEAAX_N@Z 0000000140008820 f   ConEmu.obj
 0001:00007a40       ?LoadConEmuCD@CConEmuMain@@IEAAPEAUHINSTANCE__@@XZ 0000000140008a40 f   ConEmu.obj
 0001:00007ad0       ?UnRegisterHooks@CConEmuMain@@QEAAXH@Z 0000000140008ad0 f   ConEmu.obj
 0001:00007b70       ?DeleteVConMainThread@CConEmuMain@@QEAAXPEAVCVirtualConsole@@@Z 0000000140008b70 f   ConEmu.obj
 0001:00007b90       ?RecreateDlg@CConEmuMain@@QEAAHPEAURConStartArgs@@@Z 0000000140008b90 f   ConEmu.obj
 0001:00007c00       ?StartDebugLogConsole@CConEmuMain@@QEAA_NXZ 0000000140008c00 f   ConEmu.obj
 0001:00007d60       ?StartDebugActiveProcess@CConEmuMain@@QEAA_NXZ 0000000140008d60 f   ConEmu.obj
 0001:00007f90       ?MemoryDumpActiveProcess@CConEmuMain@@QEAA_NXZ 0000000140008f90 f   ConEmu.obj
 0001:00008180       ?InitInactiveDC@CConEmuMain@@QEAAXPEAVCVirtualConsole@@@Z 0000000140009180 f   ConEmu.obj
 0001:000081a0       ?Invalidate@CConEmuMain@@QEAAXPEAVCVirtualConsole@@@Z 00000001400091a0 f   ConEmu.obj
 0001:000081d0       ?InvalidateAll@CConEmuMain@@QEAAXXZ 00000001400091d0 f   ConEmu.obj
 0001:00008220       ?UpdateWindowChild@CConEmuMain@@QEAAXPEAVCVirtualConsole@@@Z 0000000140009220 f   ConEmu.obj
 0001:00008230       ?isRightClickingPaint@CConEmuMain@@QEAA_NXZ 0000000140009230 f   ConEmu.obj
 0001:00008240       ?RightClickingProc@CConEmuMain@@KA_JPEAUHWND__@@I_K_J@Z 0000000140009240 f   ConEmu.obj
 0001:000082a0       ?InvalidateGaps@CConEmuMain@@QEAAXXZ 00000001400092a0 f   ConEmu.obj
 0001:00008300       ?Update@CConEmuMain@@QEAAX_N@Z 0000000140009300 f   ConEmu.obj
 0001:00008310       ?GetFarPID@CConEmuMain@@QEAAKH@Z 0000000140009310 f   ConEmu.obj
 0001:00008320       ?GetLastTitle@CConEmuMain@@QEAAPEB_W_N@Z 0000000140009320 f   ConEmu.obj
 0001:00008340       ?GetActiveVCon@CConEmuMain@@QEAAHPEAVCVConGuard@@PEAH@Z 0000000140009340 f   ConEmu.obj
 0001:00008350       ?IsActiveConAdmin@CConEmuMain@@QEAA_NXZ 0000000140009350 f   ConEmu.obj
 0001:000083c0       ?GetVCon@CConEmuMain@@QEAAPEAVCVirtualConsole@@H_N@Z 00000001400093c0 f   ConEmu.obj
 0001:00008420       ?isVConValid@CConEmuMain@@QEAAHPEAVCVirtualConsole@@@Z 0000000140009420 f   ConEmu.obj
 0001:00008440       ?GetVConFromPoint@CConEmuMain@@QEAAPEAVCVirtualConsole@@UtagPOINT@@@Z 0000000140009440 f   ConEmu.obj
 0001:000084a0       ?isActive@CConEmuMain@@QEAA_NPEAVCVirtualConsole@@_N@Z 00000001400094a0 f   ConEmu.obj
 0001:000084b0       ?isDragging@CConEmuMain@@QEAA_NXZ 00000001400094b0 f   ConEmu.obj
 0001:000084f0       ?isMainThread@CConEmuMain@@QEAA_NXZ 00000001400094f0 f   ConEmu.obj
 0001:00008510       ?isMeForeground@CConEmuMain@@QEAA_N_N0PEAPEAUHWND__@@@Z 0000000140009510 f   ConEmu.obj
 0001:00008680       ?isNtvdm@CConEmuMain@@QEAA_NH@Z 0000000140009680 f   ConEmu.obj
 0001:00008690       ?isOurConsoleWindow@CConEmuMain@@QEAA_NPEAUHWND__@@@Z 0000000140009690 f   ConEmu.obj
 0001:000086a0       ?isValid@CConEmuMain@@QEAA_NPEAVCRealConsole@@@Z 00000001400096a0 f   ConEmu.obj
 0001:000086b0       ?isValid@CConEmuMain@@QEAA_NPEAVCVirtualConsole@@@Z 00000001400096b0 f   ConEmu.obj
 0001:000086c0       ?isVConExists@CConEmuMain@@QEAA_NH@Z 00000001400096c0 f   ConEmu.obj
 0001:000086d0       ?isVisible@CConEmuMain@@QEAA_NPEAVCVirtualConsole@@@Z 00000001400096d0 f   ConEmu.obj
 0001:000086e0       ?isPictureView@CConEmuMain@@QEAA_NXZ 00000001400096e0 f   ConEmu.obj
 0001:000086f0       ?isProcessCreated@CConEmuMain@@QEAA_NXZ 00000001400096f0 f   ConEmu.obj
 0001:00008700       ?SwitchKeyboardLayout@CConEmuMain@@QEAAX_K@Z 0000000140009700 f   ConEmu.obj
 0001:00008910       ?OnScClose@CConEmuMain@@QEAA_NXZ 0000000140009910 f   ConEmu.obj
 0001:00008970       ?SetScClosePending@CConEmuMain@@QEAAX_N@Z 0000000140009970 f   ConEmu.obj
 0001:00008980       ?isCloseConfirmed@CConEmuMain@@QEAA_NXZ 0000000140009980 f   ConEmu.obj
 0001:000089a0       ?PostCreateView@CConEmuMain@@QEAAPEAUHWND__@@PEAVCConEmuChild@@@Z 00000001400099a0 f   ConEmu.obj
 0001:00008a00       ?setFocus@CConEmuMain@@QEAAXXZ 0000000140009a00 f   ConEmu.obj
 0001:00008a10       ?SetSkipOnFocus@CConEmuMain@@QEAA_N_N@Z 0000000140009a10 f   ConEmu.obj
 0001:00008a20       ?OnOurDialogOpened@CConEmuMain@@QEAAXXZ 0000000140009a20 f   ConEmu.obj
 0001:00008a30       ?CanSetChildFocus@CConEmuMain@@QEAA_NXZ 0000000140009a30 f   ConEmu.obj
 0001:00008a50       ?CheckAllowAutoChildFocus@CConEmuMain@@QEAAXK@Z 0000000140009a50 f   ConEmu.obj
 0001:00008b30       ?StorePreMinimizeMonitor@CConEmuMain@@QEAAXXZ 0000000140009b30 f   ConEmu.obj
 0001:00008bb0       ?GetPrimaryMonitor@CConEmuMain@@QEAAPEAUHMONITOR__@@PEAUtagMONITORINFO@@@Z 0000000140009bb0 f   ConEmu.obj
 0001:00008ce0       ?OnTaskbarCreated@CConEmuMain@@QEAAXXZ 0000000140009ce0 f   ConEmu.obj
 0001:00008d40       ?OnDefaultTermChanged@CConEmuMain@@QEAAXXZ 0000000140009d40 f   ConEmu.obj
 0001:00008d60       ?DoMaximizeWidthHeight@CConEmuMain@@QEAA_N_N0@Z 0000000140009d60 f   ConEmu.obj
 0001:00008f60       ?InCreateWindow@CConEmuMain@@QEAA_NXZ 0000000140009f60 f   ConEmu.obj
 0001:00008f70       ?InQuakeAnimation@CConEmuMain@@QEAA_NXZ 0000000140009f70 f   ConEmu.obj
 0001:00008f80       ?EnumWindowsOverQuake@CConEmuMain@@KAHPEAUHWND__@@_J@Z 0000000140009f80 f   ConEmu.obj
 0001:000090d0       ?IsQuakeVisible@CConEmuMain@@QEAAIXZ 000000014000a0d0 f   ConEmu.obj
 0001:000092d0       ?OnSwitchGuiFocus@CConEmuMain@@QEAAXW4SwitchGuiFocusOp@@@Z 000000014000a2d0 f   ConEmu.obj
 0001:000093e0       ?OnKeyboardHook@CConEmuMain@@QEAA_JK@Z 000000014000a3e0 f   ConEmu.obj
 0001:000094a0       ?isInImeComposition@CConEmuMain@@QEAA_NXZ 000000014000a4a0 f   ConEmu.obj
 0001:000094b0       ?UpdateImeComposition@CConEmuMain@@IEAAXXZ 000000014000a4b0 f   ConEmu.obj
 0001:00009710       ?OnKeyboardIme@CConEmuMain@@QEAA_JPEAUHWND__@@I_K_J@Z 000000014000a710 f   ConEmu.obj
 0001:000099f0       ?StoreLayoutName@CConEmuMain@@IEAAXHKPEAUHKL__@@@Z 000000014000a9f0 f   ConEmu.obj
 0001:00009be0       ?OnLangChange@CConEmuMain@@QEAA_JI_K_J@Z 000000014000abe0 f   ConEmu.obj
 0001:00009dd0       ?OnLangChangeConsole@CConEmuMain@@QEAA_JPEAVCVirtualConsole@@K@Z 000000014000add0 f   ConEmu.obj
 0001:0000a520       ?SetSkipMouseEvent@CConEmuMain@@QEAAXIII@Z 000000014000b520 f   ConEmu.obj
 0001:0000a540       ?PatchMouseEvent@CConEmuMain@@IEAA_NIAEAUtagPOINT@@0_KAEA_N@Z 000000014000b540 f   ConEmu.obj
 0001:0000a8c0       ?OnMouse_NCBtnDblClk@CConEmuMain@@QEAAHPEAUHWND__@@AEAI_K_J@Z 000000014000b8c0 f   ConEmu.obj
 0001:0000a940       ?CheckFocus@CConEmuMain@@QEAAXPEB_W@Z 000000014000b940 f   ConEmu.obj
 0001:0000ac20       ?CheckUpdates@CConEmuMain@@QEAAXH@Z 000000014000bc20 f   ConEmu.obj
 0001:0000ac90       ?ReportUpdateConfirmation@CConEmuMain@@QEAA_NXZ 000000014000bc90 f   ConEmu.obj
 0001:0000acf0       ?ReportUpdateError@CConEmuMain@@QEAAXXZ 000000014000bcf0 f   ConEmu.obj
 0001:0000ad40       ?RequestPostUpdateTabs@CConEmuMain@@QEAAXXZ 000000014000bd40 f   ConEmu.obj
 0001:0000ad60       ?CheckPanelDrag@CConEmuMain@@QEAA?AW4DragPanelBorder@@U_COORD@@@Z 000000014000bd60 f   ConEmu.obj
 0001:0000afb0       ?OnAlwaysOnTop@CConEmuMain@@QEAAXXZ 000000014000bfb0 f   ConEmu.obj
 0001:0000b090       ?OnInfo_Help@CConEmuMain@@QEAAXXZ 000000014000c090 f   ConEmu.obj
 0001:0000b130       ?OnInfo_HomePage@CConEmuMain@@QEAAXXZ 000000014000c130 f   ConEmu.obj
 0001:0000b190       ?OnInfo_ReportBug@CConEmuMain@@QEAAXXZ 000000014000c190 f   ConEmu.obj
 0001:0000b1f0       ?OnInfo_ReportCrash@CConEmuMain@@QEAAXPEB_W@Z 000000014000c1f0 f   ConEmu.obj
 0001:0000b2c0       ?OnInfo_ThrowTrapException@CConEmuMain@@QEAAX_N@Z 000000014000c2c0 f   ConEmu.obj
 0001:0000b370       ?SetKillTimer@CConEmuMain@@QEAA_K_NII@Z 000000014000c370 f   ConEmu.obj
 0001:0000b3b0       ?SetRunQueueTimer@CConEmuMain@@IEAAX_NI@Z 000000014000c3b0 f   ConEmu.obj
 0001:0000b410       ?OnTimer_ConRedraw@CConEmuMain@@QEAAXPEAVCVirtualConsole@@@Z 000000014000c410 f   ConEmu.obj
 0001:0000b490       ?OnTimer_AdmShield@CConEmuMain@@QEAAXXZ 000000014000c490 f   ConEmu.obj
 0001:0000b500       ?OnUpdateScrollInfo@CConEmuMain@@QEAA_JH@Z 000000014000c500 f   ConEmu.obj
 0001:0000b540       ?OnVConCreated@CConEmuMain@@QEAAXPEAVCVirtualConsole@@PEBURConStartArgs@@@Z 000000014000c540 f   ConEmu.obj
 0001:0000b580       ?isDestroyOnClose@CConEmuMain@@QEAA_N_N@Z 000000014000c580 f   ConEmu.obj
 0001:0000b690       ?OnRConStartedSuccess@CConEmuMain@@QEAAXPEAVCRealConsole@@@Z 000000014000c690 f   ConEmu.obj
 0001:0000b6b0       ?isDialogMessage@CConEmuMain@@QEAAHAEAUtagMSG@@@Z 000000014000c6b0 f   ConEmu.obj
 0001:0000b790       ?Set@?$MMap@IPEBD@@QEAA_NAEBIAEBQEBD@Z 000000014000c790 f i ConEmu.obj
 0001:0000b8e0       ?LogFocusInfo@@YAXPEB_WH@Z 000000014000c8e0 f   ConEmu.obj
 0001:0000b930       ?SetWindowStyleEx@CConEmuMain@@QEAAXPEAUHWND__@@K@Z 000000014000c930 f   ConEmu.obj
 0001:0000b9f0       ?UpdateGuiInfoMappingActive@CConEmuMain@@AEAAX_N@Z 000000014000c9f0 f   ConEmu.obj
 0001:0000bb50       ?AskChangeBufferHeight@CConEmuMain@@QEAAXXZ 000000014000cb50 f   ConEmu.obj
 0001:0000bcb0       ?AskChangeAlternative@CConEmuMain@@QEAAXXZ 000000014000ccb0 f   ConEmu.obj
 0001:0000bd80       ?CalcMargins@CConEmuMain@@QEAA?AUtagRECT@@KW4ConEmuWindowMode@@@Z 000000014000cd80 f   ConEmu.obj
 0001:0000c070       ?CalcRect@CConEmuMain@@QEAA?AUtagRECT@@W4ConEmuRect@@AEBU2@0PEAVCVirtualConsole@@W4ConEmuMargins@@@Z 000000014000d070 f   ConEmu.obj
 0001:0000c7f0       ?AutoSizeFont@CConEmuMain@@QEAAXUtagRECT@@W4ConEmuRect@@@Z 000000014000d7f0 f   ConEmu.obj
 0001:0000ca10       ?GetTileMode@CConEmuMain@@QEAA?AW4ConEmuWindowCommand@@_NPEAUtagMONITORINFO@@@Z 000000014000da10 f   ConEmu.obj
 0001:0000ce50       ?TrackMouse@CConEmuMain@@QEAAHXZ 000000014000de50 f   ConEmu.obj
 0001:0000ceb0       ?OnMoving@CConEmuMain@@QEAA_JPEAUtagRECT@@_N@Z 000000014000deb0 f   ConEmu.obj
 0001:0000d2a0       ?CheckTopMostState@CConEmuMain@@IEAAXXZ 000000014000e2a0 f   ConEmu.obj
 0001:0000d3f0       ?OnSizePanels@CConEmuMain@@QEAAXU_COORD@@@Z 000000014000e3f0 f   ConEmu.obj
 0001:0000d830       ?OnActiveConWndStore@CConEmuMain@@QEAAXPEAUHWND__@@@Z 000000014000e830 f   ConEmu.obj
 0001:0000d8a0       ?CreateWnd@CConEmuMain@@QEAA_NPEAURConStartArgs@@@Z 000000014000e8a0 f   ConEmu.obj
 0001:0000dbb0       ?CreateCon@CConEmuMain@@QEAAPEAVCVirtualConsole@@PEAURConStartArgs@@_N1@Z 000000014000ebb0 f   ConEmu.obj
 0001:0000dc10       ?CreateConGroup@CConEmuMain@@QEAAPEAVCVirtualConsole@@PEB_W_N0PEBURConStartArgs@@@Z 000000014000ec10 f   ConEmu.obj
 0001:0000e210       ?UpdateInsideRect@CConEmuMain@@QEAAXUtagRECT@@@Z 000000014000f210 f   ConEmu.obj
 0001:0000e2c0       ?PostDragCopy@CConEmuMain@@QEAAXHH@Z 000000014000f2c0 f   ConEmu.obj
 0001:0000e340       ?PostMacro@CConEmuMain@@QEAAXPEB_W@Z 000000014000f340 f   ConEmu.obj
 0001:0000e3b0       ?GlobalHotKeyChanged@CConEmuMain@@QEAAXXZ 000000014000f3b0 f   ConEmu.obj
 0001:0000e420       ?UpdateWinHookSettings@CConEmuMain@@QEAAXXZ 000000014000f420 f   ConEmu.obj
 0001:0000e490       ?RegisterHooks@CConEmuMain@@QEAAXXZ 000000014000f490 f   ConEmu.obj
 0001:0000e7d0       ?CtrlWinAltSpace@CConEmuMain@@QEAAXXZ 000000014000f7d0 f   ConEmu.obj
 0001:0000e840       ?RecreateAction@CConEmuMain@@QEAAXW4RecreateActionParm@@HH@Z 000000014000f840 f   ConEmu.obj
 0001:0000ec40       ?ReportOldCmdVersion@CConEmuMain@@QEAAXKKHK_KK@Z 000000014000fc40 f   ConEmu.obj
 0001:0000f090       ?UpdateCursorInfo@CConEmuMain@@QEAAXPEBU_CONSOLE_SCREEN_BUFFER_INFO@@U_COORD@@U_CONSOLE_CURSOR_INFO@@@Z 0000000140010090 f   ConEmu.obj
 0001:0000f1d0       ?UpdateSizes@CConEmuMain@@QEAAXXZ 00000001400101d0 f   ConEmu.obj
 0001:0000f3e0       ?UpdateProgress@CConEmuMain@@QEAAXXZ 00000001400103e0 f   ConEmu.obj
 0001:0000f750       ?StartRightClickingPaint@CConEmuMain@@IEAAXXZ 0000000140010750 f   ConEmu.obj
 0001:0000f7b0       ?StopRightClickingPaint@CConEmuMain@@IEAAXXZ 00000001400107b0 f   ConEmu.obj
 0001:0000f820       ?OnBufferHeight@CConEmuMain@@QEAAXXZ 0000000140010820 f   ConEmu.obj
 0001:0000f960       ?setWindowPos@CConEmuMain@@QEAAHPEAUHWND__@@HHHHI@Z 0000000140010960 f   ConEmu.obj
 0001:0000fa70       ?LoadConsoleBatch_File@CConEmuMain@@AEAAPEA_WPEB_W@Z 0000000140010a70 f   ConEmu.obj
 0001:0000fdb0       ?LoadConsoleBatch_Drops@CConEmuMain@@AEAAPEA_WPEB_W@Z 0000000140010db0 f   ConEmu.obj
 0001:00010240       ?OnOurDialogClosed@CConEmuMain@@QEAAXXZ 0000000140011240 f   ConEmu.obj
 0001:000102d0       ?OnMouse_LBtnDown@CConEmuMain@@QEAA_JPEAVCVirtualConsole@@PEAUHWND__@@I_K_JUtagPOINT@@U_COORD@@@Z 00000001400112d0 f   ConEmu.obj
 0001:00010580       ?OnMouse_LBtnUp@CConEmuMain@@QEAA_JPEAVCVirtualConsole@@PEAUHWND__@@I_K_JUtagPOINT@@U_COORD@@@Z 0000000140011580 f   ConEmu.obj
 0001:00010660       ?OnMouse_LBtnDblClk@CConEmuMain@@QEAA_JPEAVCVirtualConsole@@PEAUHWND__@@AEAI_K_JUtagPOINT@@U_COORD@@@Z 0000000140011660 f   ConEmu.obj
 0001:00010810       ?OnMouse_RBtnDown@CConEmuMain@@QEAA_JPEAVCVirtualConsole@@PEAUHWND__@@I_K_JUtagPOINT@@U_COORD@@@Z 0000000140011810 f   ConEmu.obj
 0001:00010b10       ?RequestExitUpdate@CConEmuMain@@QEAAXXZ 0000000140011b10 f   ConEmu.obj
 0001:00010b80       ?aboutProc@CConEmuMain@@KA_JPEAUHWND__@@I_K_J@Z 0000000140011b80 f   ConEmu.obj
 0001:00010fd0       ?OnInfo_Donate@CConEmuMain@@QEAAXXZ 0000000140011fd0 f   ConEmu.obj
 0001:00011050       ?OnInfo_About@CConEmuMain@@QEAAXPEB_W@Z 0000000140012050 f   ConEmu.obj
 0001:000111e0       ?SetTransparent@CConEmuMain@@QEAA_NPEAUHWND__@@I_NK1@Z 00000001400121e0 f   ConEmu.obj
 0001:00011540       ?LogMessage@CConEmuMain@@QEAAXPEAUHWND__@@I_K_J@Z 0000000140012540 f   ConEmu.obj
 0001:00011d30       ?WorkWndProc@CConEmuMain@@SA_JPEAUHWND__@@I_K_J@Z 0000000140012d30 f   ConEmu.obj
 0001:00011eb0       ?RegisterMessage@CConEmuMain@@QEAAIPEBDPEB_W@Z 0000000140012eb0 f   ConEmu.obj
 0001:00011f10       ?GetRegisteredMessage@CConEmuMain@@QEAAIPEBD@Z 0000000140012f10 f   ConEmu.obj
 0001:00012050       ??$wcscpy_c@$0CA@@@YAHAEAY0CA@_WPEB_W@Z 0000000140013050 f i ConEmu.obj
 0001:000120b0       ??$wcscat_c@$0BAF@@@YAHAEAY0BAF@_WPEB_W@Z 00000001400130b0 f i ConEmu.obj
 0001:00012170       ??$wcscpy_c@$0BBA@@@YAHAEAY0BBA@_WPEB_W@Z 0000000140013170 f i ConEmu.obj
 0001:000121d0       ??$wcscat_c@$0BBA@@@YAHAEAY0BBA@_WPEB_W@Z 00000001400131d0 f i ConEmu.obj
 0001:00012290       ??$wcscat_c@$0BCE@@@YAHAEAY0BCE@_WPEB_W@Z 0000000140013290 f i ConEmu.obj
 0001:00012350       ??$wcscpy_c@$0CAI@@@YAHAEAY0CAI@_WPEB_W@Z 0000000140013350 f i ConEmu.obj
 0001:000123b0       ??$wcscat_c@$0CAI@@@YAHAEAY0CAI@_WPEB_W@Z 00000001400133b0 f i ConEmu.obj
 0001:00012470       ??$wcscat_c@$0BAE@@@YAHAEAY0BAE@_WPEB_W@Z 0000000140013470 f i ConEmu.obj
 0001:00012530       ?StoreWorkDir@CConEmuMain@@QEAAXPEB_W@Z 0000000140013530 f   ConEmu.obj
 0001:00012630       ?CheckRequiredFiles@CConEmuMain@@QEAA_NXZ 0000000140013630 f   ConEmu.obj
 0001:00012d20       ?SetConfigFile@CConEmuMain@@QEAA_NPEB_W_N@Z 0000000140013d20 f   ConEmu.obj
 0001:00013030       ?ConEmuXml@CConEmuMain@@QEAAPEA_WXZ 0000000140014030 f   ConEmu.obj
 0001:00013190       ?ConEmuIni@CConEmuMain@@QEAAPEA_WXZ 0000000140014190 f   ConEmu.obj
 0001:000132a0       ?ConEmuCExeFull@CConEmuMain@@QEAAPEB_WPEB_W@Z 00000001400142a0 f   ConEmu.obj
 0001:00013720       ?GetDefaultSize@CConEmuMain@@QEAA?AUtagSIZE@@_NPEBTCESize@@1PEAUHMONITOR__@@@Z 0000000140014720 f   ConEmu.obj
 0001:00013c50       ?GetDefaultRect@CConEmuMain@@QEAA?AUtagRECT@@XZ 0000000140014c50 f   ConEmu.obj
 0001:00014400       ?CreateLog@CConEmuMain@@QEAA_NXZ 0000000140015400 f   ConEmu.obj
 0001:00014580       ?CheckDosBoxExists@CConEmuMain@@AEAAHXZ 0000000140015580 f   ConEmu.obj
 0001:00014700       ?InitComSpecStr@CConEmuMain@@QEAAXAEAUConEmuComspec@@@Z 0000000140015700 f   ConEmu.obj
 0001:000147c0       ?CreateWindowRgn@CConEmuMain@@QEAAPEAUHRGN__@@_N0HHHH@Z 00000001400157c0 f   ConEmu.obj
 0001:00014ab0       ??1CConEmuMain@@UEAA@XZ    0000000140015ab0 f   ConEmu.obj
 0001:00014df0       ??_ECConEmuMain@@WBFA@EAAPEAXI@Z 0000000140015df0 f i ConEmu.obj
 0001:00014e00       ??_ECConEmuMain@@WBJA@EAAPEAXI@Z 0000000140015e00 f i ConEmu.obj
 0001:00014e10       ??_ECConEmuMain@@WBNA@EAAPEAXI@Z 0000000140015e10 f i ConEmu.obj
 0001:00014e20       ??_ECConEmuMain@@WBBI@EAAPEAXI@Z 0000000140015e20 f i ConEmu.obj
 0001:00014e30       ?CalcRect@CConEmuMain@@QEAA?AUtagRECT@@W4ConEmuRect@@PEAVCVirtualConsole@@@Z 0000000140015e30 f   ConEmu.obj
 0001:00015140       ?StoreIdealRect@CConEmuMain@@QEAAXXZ 0000000140016140 f   ConEmu.obj
 0001:000151a0       ?GetIdealRect@CConEmuMain@@QEAA?AUtagRECT@@XZ 00000001400161a0 f   ConEmu.obj
 0001:00015210       ?StoreNormalRect@CConEmuMain@@IEAAXPEAUtagRECT@@@Z 0000000140016210 f   ConEmu.obj
 0001:00015600       ?AttachRequestedGui@CConEmuMain@@QEAAPEAVCRealConsole@@PEB_WK@Z 0000000140016600 f   ConEmu.obj
 0001:000157a0       ?LoadIcons@CConEmuMain@@QEAAXXZ 00000001400167a0 f   ConEmu.obj
 0001:00015ae0       ?RegisterHotKeys@CConEmuMain@@IEAAXXZ 0000000140016ae0 f   ConEmu.obj
 0001:00015bc0       ?RunSingleInstance@CConEmuMain@@QEAAHPEAUHWND__@@PEB_W@Z 0000000140016bc0 f   ConEmu.obj
 0001:00015f70       ?UpdateProcessDisplay@CConEmuMain@@QEAAXH@Z 0000000140016f70 f   ConEmu.obj
 0001:000161d0       ?UpdateTitle@CConEmuMain@@QEAAXXZ 00000001400171d0 f   ConEmu.obj
 0001:00016320       ?RightClickingPaint@CConEmuMain@@QEAAXPEAUHDC__@@PEAVCVirtualConsole@@@Z 0000000140017320 f   ConEmu.obj
 0001:00016820       ?isFirstInstance@CConEmuMain@@QEAA_N_N@Z 0000000140017820 f   ConEmu.obj
 0001:00016b20       ?EndSizing@CConEmuMain@@QEAAXI@Z 0000000140017b20 f   ConEmu.obj
 0001:00016dd0       ?GetNearestMonitor@CConEmuMain@@QEAAPEAUHMONITOR__@@PEAUtagMONITORINFO@@PEBUtagRECT@@@Z 0000000140017dd0 f   ConEmu.obj
 0001:00016fa0       ?OnGetMinMaxInfo@CConEmuMain@@QEAA_JPEAUtagMINMAXINFO@@@Z 0000000140017fa0 f   ConEmu.obj
 0001:000175a0       ?OnTaskbarButtonCreated@CConEmuMain@@QEAAXXZ 00000001400185a0 f   ConEmu.obj
 0001:00017650       ?OnKeyboard@CConEmuMain@@QEAA_JPEAUHWND__@@I_K_J@Z 0000000140018650 f   ConEmu.obj
 0001:00017e70       ?CheckActiveLayoutName@CConEmuMain@@IEAAXXZ 0000000140018e70 f   ConEmu.obj
 0001:000181b0       ?OnInfo_WhatsNew@CConEmuMain@@QEAAX_N@Z 00000001400191b0 f   ConEmu.obj
 0001:00018380       ?OnGhostCreated@CConEmuMain@@QEAAXPEAVCVirtualConsole@@PEAUHWND__@@@Z 0000000140019380 f   ConEmu.obj
 0001:00018450       ?OnAllGhostClosed@CConEmuMain@@QEAAXXZ 0000000140019450 f   ConEmu.obj
 0001:00018500       ?LogWindowPos@CConEmuMain@@QEAAXPEB_W@Z 0000000140019500 f   ConEmu.obj
 0001:00018710       ?InternalOpenCreate@?$MFileMapping@UConEmuGuiMapping@@@@IEAAPEAUConEmuGuiMapping@@HHH@Z 0000000140019710 f i ConEmu.obj
 0001:00018910       ??0CConEmuMain@@QEAA@XZ    0000000140019910 f   ConEmu.obj
 0001:0001a690       ??_GCConEmuMain@@UEAAPEAXI@Z 000000014001b690 f i ConEmu.obj
 0001:0001a690       ??_ECConEmuMain@@UEAAPEAXI@Z 000000014001b690 f i ConEmu.obj
 0001:0001a6c0       ?Init@CConEmuMain@@QEAAHXZ 000000014001b6c0 f   ConEmu.obj
 0001:0001a7a0       ?SizeWindow@CConEmuMain@@QEAA_NTCESize@@0@Z 000000014001b7a0 f   ConEmu.obj
 0001:0001a980       ?GetGuiClientRect@CConEmuMain@@QEAA?AUtagRECT@@XZ 000000014001b980 f   ConEmu.obj
 0001:0001a9a0       ?CreateWorkWindow@CConEmuMain@@QEAAHXZ 000000014001b9a0 f   ConEmu.obj
 0001:0001aa60       ?OnTabbarActivated@CConEmuMain@@QEAAX_N@Z 000000014001ba60 f   ConEmu.obj
 0001:0001aa90       ?JumpNextMonitor@CConEmuMain@@QEAA_NPEAUHWND__@@PEAUHMONITOR__@@_NUtagRECT@@@Z 000000014001ba90 f   ConEmu.obj
 0001:0001b080       ?OnSizing@CConEmuMain@@QEAA_J_K_J@Z 000000014001c080 f   ConEmu.obj
 0001:0001b500       ?DebugStep@CConEmuMain@@QEAAXPEB_WH@Z 000000014001c500 f   ConEmu.obj
 0001:0001b600       ?SetWindowIcon@CConEmuMain@@QEAAXPEB_W@Z 000000014001c600 f   ConEmu.obj
 0001:0001b740       ?RegisterMinRestore@CConEmuMain@@QEAAX_N@Z 000000014001c740 f   ConEmu.obj
 0001:0001bad0       ?CheckNeedUpdateTitle@CConEmuMain@@QEAAXPEB_W@Z 000000014001cad0 f   ConEmu.obj
 0001:0001bb20       ?isSizing@CConEmuMain@@QEAA_NI@Z 000000014001cb20 f   ConEmu.obj
 0001:0001bb80       ?LoadConsoleBatch_Task@CConEmuMain@@AEAAPEA_WPEB_WPEAPEA_W@Z 000000014001cb80 f   ConEmu.obj
 0001:0001be50       ?OnDestroy@CConEmuMain@@QEAA_JPEAUHWND__@@@Z 000000014001ce50 f   ConEmu.obj
 0001:0001c0b0       ?OnTaskbarSettingsChanged@CConEmuMain@@QEAAXXZ 000000014001d0b0 f   ConEmu.obj
 0001:0001c190       ?OnMouse_Move@CConEmuMain@@QEAA_JPEAVCVirtualConsole@@PEAUHWND__@@I_K_JUtagPOINT@@U_COORD@@@Z 000000014001d190 f   ConEmu.obj
 0001:0001c860       ?OnMouse_RBtnUp@CConEmuMain@@QEAA_JPEAVCVirtualConsole@@PEAUHWND__@@I_K_JUtagPOINT@@U_COORD@@@Z 000000014001d860 f   ConEmu.obj
 0001:0001d010       ?OnSetCursor@CConEmuMain@@QEAA_J_K_J@Z 000000014001e010 f   ConEmu.obj
 0001:0001d490       ?OnTransparent@CConEmuMain@@QEAAX_N0@Z 000000014001e490 f   ConEmu.obj
 0001:0001d5e0       ?OnAllVConClosed@CConEmuMain@@QEAAXXZ 000000014001e5e0 f   ConEmu.obj
 0001:0001d740       ?CreateGuiAttachMapping@CConEmuMain@@QEAAXK@Z 000000014001e740 f   ConEmu.obj
 0001:0001d820       ?UpdateGuiInfoMapping@CConEmuMain@@AEAAXXZ 000000014001e820 f   ConEmu.obj
 0001:0001e110       ?JumpNextMonitor@CConEmuMain@@QEAA_N_N@Z 000000014001f110 f   ConEmu.obj
 0001:0001e2e0       ?OnConsoleResize@CConEmuMain@@QEAAXH@Z 000000014001f2e0 f   ConEmu.obj
 0001:0001e540       ?OnWindowPosChanged@CConEmuMain@@UEAA_JPEAUHWND__@@I_K_J@Z 000000014001f540 f   ConEmu.obj
 0001:0001e990       ?isMouseOverFrame@CConEmuMain@@QEAA_N_N@Z 000000014001f990 f   ConEmu.obj
 0001:0001eb30       ?LoadConsoleBatch@CConEmuMain@@QEAAPEA_WPEB_WPEAPEA_W@Z 000000014001fb30 f   ConEmu.obj
 0001:0001ebd0       ?OnGlobalSettingsChanged@CConEmuMain@@QEAAXXZ 000000014001fbd0 f   ConEmu.obj
 0001:0001ec00       ?OnPanelViewSettingsChanged@CConEmuMain@@QEAAXH@Z 000000014001fc00 f   ConEmu.obj
 0001:0001ed50       ?OnMouse@CConEmuMain@@QEAA_JPEAUHWND__@@I_K_J@Z 000000014001fd50 f   ConEmu.obj
 0001:0001fc50       ?SetDragCursor@CConEmuMain@@QEAAXPEAUHICON__@@@Z 0000000140020c50 f   ConEmu.obj
 0001:0001fc80       ?OnTransparentSeparate@CConEmuMain@@QEAAX_N@Z 0000000140020c80 f   ConEmu.obj
 0001:0001fce0       ?OnTransparent@CConEmuMain@@QEAAXXZ 0000000140020ce0 f   ConEmu.obj
 0001:0001fd20       ?CreateWindowRgn@CConEmuMain@@QEAAPEAUHRGN__@@_N@Z 0000000140020d20 f   ConEmu.obj
 0001:00020300       ?UpdateWindowRgn@CConEmuMain@@QEAAXHHHH@Z 0000000140021300 f   ConEmu.obj
 0001:000204c0       ?ForceShowTabs@CConEmuMain@@QEAAXH@Z 00000001400214c0 f   ConEmu.obj
 0001:000205b0       ?OnSize@CConEmuMain@@QEAA_J_N_KGG@Z 00000001400215b0 f   ConEmu.obj
 0001:000208a0       ?SyncNtvdm@CConEmuMain@@QEAAXXZ 00000001400218a0 f   ConEmu.obj
 0001:000208c0       ?ReSize@CConEmuMain@@QEAAXH@Z 00000001400218c0 f   ConEmu.obj
 0001:00020d50       ?OnCreate@CConEmuMain@@QEAA_JPEAUHWND__@@PEAUtagCREATESTRUCTW@@@Z 0000000140021d50 f   ConEmu.obj
 0001:00021060       ?OnHideCaption@CConEmuMain@@QEAAXXZ 0000000140022060 f   ConEmu.obj
 0001:00021910       ?SetWindowMode@CConEmuMain@@QEAA_NW4ConEmuWindowMode@@HH@Z 0000000140022910 f   ConEmu.obj
 0001:00022990       ?OnWindowPosChanging@CConEmuMain@@QEAA_JPEAUHWND__@@I_K_J@Z 0000000140023990 f   ConEmu.obj
 0001:00023380       ?StartForceShowFrame@CConEmuMain@@IEAAXXZ 0000000140024380 f   ConEmu.obj
 0001:000233d0       ?StopForceShowFrame@CConEmuMain@@IEAAXXZ 00000001400243d0 f   ConEmu.obj
 0001:00023420       ?BeginSizing@CConEmuMain@@QEAAX_N@Z 0000000140024420 f   ConEmu.obj
 0001:000234c0       ?DoFullScreen@CConEmuMain@@QEAAXXZ 00000001400244c0 f   ConEmu.obj
 0001:00023550       ?DoMaximizeRestore@CConEmuMain@@QEAAXXZ 0000000140024550 f   ConEmu.obj
 0001:000235b0       ?DoMinimizeRestore@CConEmuMain@@QEAAXW4SingleInstanceShowHideType@@@Z 00000001400245b0 f   ConEmu.obj
 0001:000243c0       ?DoForcedFullScreen@CConEmuMain@@QEAAX_N@Z 00000001400253c0 f   ConEmu.obj
 0001:000245d0       ?OnTimer_FrameAppearDisappear@CConEmuMain@@QEAAX_K@Z 00000001400255d0 f   ConEmu.obj
 0001:00024670       ?SetQuakeMode@CConEmuMain@@QEAA_NEW4ConEmuWindowMode@@_N@Z 0000000140025670 f   ConEmu.obj
 0001:00024b00       ?SetTileMode@CConEmuMain@@QEAA_NW4ConEmuWindowCommand@@@Z 0000000140025b00 f   ConEmu.obj
 0001:000255d0       ?OnWmHotkey@CConEmuMain@@QEAAX_K@Z 00000001400265d0 f   ConEmu.obj
 0001:00025710       ?OnFocus@CConEmuMain@@QEAA_JPEAUHWND__@@I_K_JPEB_WH@Z 0000000140026710 f   ConEmu.obj
 0001:00026510       ?OnShellHook@CConEmuMain@@QEAA_J_K_J@Z 0000000140027510 f   ConEmu.obj
 0001:00026640       ?OnDesktopMode@CConEmuMain@@QEAAXXZ 0000000140027640 f   ConEmu.obj
 0001:000269f0       ?OnTimer_Main@CConEmuMain@@QEAAXPEAVCVirtualConsole@@@Z 00000001400279f0 f   ConEmu.obj
 0001:00027140       ?OnTimer_QuakeFocus@CConEmuMain@@QEAAXXZ 0000000140028140 f   ConEmu.obj
 0001:00027250       ?PostCreate@CConEmuMain@@QEAAXH@Z 0000000140028250 f   ConEmu.obj
 0001:00027ae0       ?OnTimer@CConEmuMain@@QEAA_J_K_J@Z 0000000140028ae0 f   ConEmu.obj
 0001:00027c10       ?WndProc@CConEmuMain@@QEAA_JPEAUHWND__@@I_K_J@Z 0000000140028c10 f   ConEmu.obj
 0001:00029210       ?MainWndProc@CConEmuMain@@SA_JPEAUHWND__@@I_K_J@Z 000000014002a210 f   ConEmu.obj
 0001:00029260       ?CreateMainWindow@CConEmuMain@@QEAAHXZ 000000014002a260 f   ConEmu.obj
 0001:000298a0       ?LogString@@YAXPEB_W_N1@Z  000000014002a8a0 f   ConEmuApp.obj
 0001:000298c0       ?MakeCoord@@YA?AU_COORD@@HH@Z 000000014002a8c0 f   ConEmuApp.obj
 0001:000298d0       ?MakePoint@@YA?AUtagPOINT@@HH@Z 000000014002a8d0 f   ConEmuApp.obj
 0001:000298e0       ?MakeRect@@YA?AUtagRECT@@HH@Z 000000014002a8e0 f   ConEmuApp.obj
 0001:00029900       ?MakeRect@@YA?AUtagRECT@@HHHH@Z 000000014002a900 f   ConEmuApp.obj
 0001:00029920       ?CoordInRect@@YAHAEBU_COORD@@AEBUtagRECT@@@Z 000000014002a920 f   ConEmuApp.obj
 0001:00029950       ?IntersectSmallRect@@YAHAEAUtagRECT@@AEAU_SMALL_RECT@@@Z 000000014002a950 f   ConEmuApp.obj
 0001:00029990       ?MyGetDlgItemText@@YA_KPEAUHWND__@@GAEA_KAEAPEA_W@Z 000000014002a990 f   ConEmuApp.obj
 0001:00029a70       ?EscapeChar@@YAX_NAEAPEB_WAEAPEA_W@Z 000000014002aa70 f   ConEmuApp.obj
 0001:00029e60       ?MySetDlgItemText@@YAHPEAUHWND__@@HPEB_W@Z 000000014002ae60 f   ConEmuApp.obj
 0001:00029e70       ?GetColorRef@@YA_NPEB_WPEAK@Z 000000014002ae70 f   ConEmuApp.obj
 0001:0002a0b0       ?DupCygwinPath@@YAPEA_WPEB_W_N@Z 000000014002b0b0 f   ConEmuApp.obj
 0001:0002a1e0       ?CreateProcessRestricted@@YAHPEB_WPEA_WPEAU_SECURITY_ATTRIBUTES@@2HKPEAX0PEAU_STARTUPINFOW@@PEAU_PROCESS_INFORMATION@@PEAK@Z 000000014002b1e0 f   ConEmuApp.obj
 0001:0002a3c0       ?isKey@@YA_NKK@Z           000000014002b3c0 f   ConEmuApp.obj
 0001:0002a410       ?isConsoleService@@YA_NPEB_W@Z 000000014002b410 f   ConEmuApp.obj
 0001:0002a520       ?AppWndProc@@YA_JPEAUHWND__@@I_K_J@Z 000000014002b520 f   ConEmuApp.obj
 0001:0002a5e0       ?getForegroundWindow@@YAPEAUHWND__@@XZ 000000014002b5e0 f   ConEmuApp.obj
 0001:0002a650       ?SkipShowWindowProc@@YA_JPEAUHWND__@@I_K_J@Z 000000014002b650 f   ConEmuApp.obj
 0001:0002a6d0       ?SkipOneShowWindow@@YAXXZ  000000014002b6d0 f   ConEmuApp.obj
 0001:0002a960       ?MessageBoxW@@YAHPEB_WI0PEAUHWND__@@@Z 000000014002b960 f   ConEmuApp.obj
 0001:0002aa00       ?DisplayLastError@@YAHPEB_WKK0PEAUHWND__@@@Z 000000014002ba00 f   ConEmuApp.obj
 0001:0002ab70       ?CenterInParent@@YA?AUtagRECT@@U1@PEAUHWND__@@@Z 000000014002bb70 f   ConEmuApp.obj
 0001:0002aca0       ?MessageLoop@@YAXXZ        000000014002bca0 f   ConEmuApp.obj
 0001:0002adf0       ?SplitCommandLine@@YAXPEA_WPEAI@Z 000000014002bdf0 f   ConEmuApp.obj
 0001:0002ae90       ?PrepareCommandLine@@YAHAEAPEA_W0AEA_NAEAI@Z 000000014002be90 f   ConEmuApp.obj
 0001:0002b1b0       ?ResetConman@@YAXXZ        000000014002c1b0 f   ConEmuApp.obj
 0001:0002b240       ?RaiseTestException@@YAXXZ 000000014002c240 f   ConEmuApp.obj
 0001:0002b250       ?LoadStartupEnv@@YAPEAUCEStartupEnv@@XZ 000000014002c250 f   ConEmuApp.obj
 0001:0002ba60       ?GetDlgItemTextW@@YAPEA_WPEAUHWND__@@G@Z 000000014002ca60 f   ConEmuApp.obj
 0001:0002bb10       ?CheckCreateAppWindow@@YAHXZ 000000014002cb10 f   ConEmuApp.obj
 0001:0002bd70       ?_CreateShellLink@@YAJPEB_W00PEAPEAUIShellLinkW@@@Z 000000014002cd70 f   ConEmuApp.obj
 0001:0002c3f0       ?_CreateSeparatorLink@@YAJPEAPEAUIShellLinkW@@@Z 000000014002d3f0 f   ConEmuApp.obj
 0001:0002c4b0       ?UpdateWin7TaskList@@YA_N_N0@Z 000000014002d4b0 f   ConEmuApp.obj
 0001:0002cbc0       ??$wcscat_c@$0BAO@@@YAHAEAY0BAO@_WPEB_W@Z 000000014002dbc0 f i ConEmuApp.obj
 0001:0002cc80       ??$wcscat_c@$0EAA@@@YAHAEAY0EAA@_WPEB_W@Z 000000014002dc80 f i ConEmuApp.obj
 0001:0002cd40       ?SelectFolder@@YAPEA_WPEB_W0PEAUHWND__@@_N2@Z 000000014002dd40 f   ConEmuApp.obj
 0001:0002cf60       ?SelectFile@@YAPEA_WPEB_W0PEAUHWND__@@0_N22@Z 000000014002df60 f   ConEmuApp.obj
 0001:0002d140       ?CreateDumpForReport@@YAKPEAU_EXCEPTION_POINTERS@@AEAY0EAA@_WPEA_W@Z 000000014002e140 f   ConEmuApp.obj
 0001:0002d6f0       ?AssertBox@@YAXPEB_W0IPEAU_EXCEPTION_POINTERS@@@Z 000000014002e6f0 f   ConEmuApp.obj
 0001:0002d9a0       ?CreateDumpOnException@@YAJPEAU_EXCEPTION_POINTERS@@@Z 000000014002e9a0 f   ConEmuApp.obj
 0001:0002db10       ?CreateProcessDemoted@@YAHPEB_WPEA_WPEAU_SECURITY_ATTRIBUTES@@2HKPEAX0PEAU_STARTUPINFOW@@PEAU_PROCESS_INFORMATION@@PEAK@Z 000000014002eb10 f   ConEmuApp.obj
 0001:0002e740       WinMain                    000000014002f740 f   ConEmuApp.obj
 0001:00030c10       ?ExecutePrepareCmd@@YAXPEAUCESERVER_REQ_HDR@@K_K@Z 0000000140031c10 f   ConEmuCheck.obj
 0001:00030c90       ?ExecuteFreeResult@@YAXAEAPEAUCESERVER_REQ@@@Z 0000000140031c90 f   ConEmuCheck.obj
 0001:00030cb0       ?myGetConsoleWindow@@YAPEAUHWND__@@XZ 0000000140031cb0 f   ConEmuCheck.obj
 0001:00030d20       ?ExecutePrepareCmd@@YAXPEAUCESERVER_REQ@@K_K@Z 0000000140031d20 f   ConEmuCheck.obj
 0001:00030d60       ?ExecuteNewCmd@@YAPEAUCESERVER_REQ@@K_K@Z 0000000140031d60 f   ConEmuCheck.obj
 0001:00030df0       ?ExecuteNewCmd@@YAHAEAPEAUCESERVER_REQ@@AEAKK_K@Z 0000000140031df0 f   ConEmuCheck.obj
 0001:00030eb0       ?ModuleName@@YAPEB_WPEB_W@Z 0000000140031eb0 f   ConEmuCheck.obj
 0001:00030fc0       ?ExecuteOpenPipe@@YAPEAXPEB_WAEAY0CAI@_W0KKHPEAX@Z 0000000140031fc0 f   ConEmuCheck.obj
 0001:000311e0       ?ExecuteCmd@@YAPEAUCESERVER_REQ@@PEB_WPEAU1@KPEAUHWND__@@HK@Z 00000001400321e0 f   ConEmuCheck.obj
 0001:00031400       ?GuiMessageBox@@YAHPEAUHWND__@@PEB_W1H@Z 0000000140032400 f   ConEmuCheck.obj
 0001:00031620       ?InternalOpenCreate@?$MFileMapping@UCESERVER_CONSOLE_MAPPING_HDR@@@@IEAAPEAUCESERVER_CONSOLE_MAPPING_HDR@@HHH@Z 0000000140032620 f i ConEmuCheck.obj
 0001:00031820       ?ExecuteGuiCmd@@YAPEAUCESERVER_REQ@@PEAUHWND__@@PEAU1@0H@Z 0000000140032820 f   ConEmuCheck.obj
 0001:000318d0       ?ExecuteSrvCmd@@YAPEAUCESERVER_REQ@@KPEAU1@PEAUHWND__@@HK@Z 00000001400328d0 f   ConEmuCheck.obj
 0001:00031980       ?ExecuteHkCmd@@YAPEAUCESERVER_REQ@@KPEAU1@PEAUHWND__@@H@Z 0000000140032980 f   ConEmuCheck.obj
 0001:00031a30       ?LoadSrvMapping@@YAHPEAUHWND__@@AEAUCESERVER_CONSOLE_MAPPING_HDR@@@Z 0000000140032a30 f   ConEmuCheck.obj
 0001:00031b90       ??0CConEmuCtrl@@QEAA@XZ    0000000140032b90 f   ConEmuCtrl.obj
 0001:00031bf0       ??1CConEmuCtrl@@UEAA@XZ    0000000140032bf0 f   ConEmuCtrl.obj
 0001:00031c00       ?UpdateControlKeyState@CConEmuCtrl@@QEAAXXZ 0000000140032c00 f   ConEmuCtrl.obj
 0001:00031d90       ?GetControlKeyState@CConEmuCtrl@@QEAAK_J@Z 0000000140032d90 f   ConEmuCtrl.obj
 0001:00031da0       ?VkModFromVk@CConEmuCtrl@@QEAAKK@Z 0000000140032da0 f   ConEmuCtrl.obj
 0001:00031e20       ?FixSingleModifier@CConEmuCtrl@@QEAAXKPEAVCRealConsole@@@Z 0000000140032e20 f   ConEmuCtrl.obj
 0001:00031e90       ?key_MinimizeRestore@CConEmuCtrl@@SA_NK_NPEBUConEmuHotKey@@PEAVCRealConsole@@@Z 0000000140032e90 f   ConEmuCtrl.obj
 0001:00031eb0       ?key_MinimizeByEsc@CConEmuCtrl@@SA_NK_NPEBUConEmuHotKey@@PEAVCRealConsole@@@Z 0000000140032eb0 f   ConEmuCtrl.obj
 0001:00031f30       ?key_GlobalRestore@CConEmuCtrl@@SA_NK_NPEBUConEmuHotKey@@PEAVCRealConsole@@@Z 0000000140032f30 f   ConEmuCtrl.obj
 0001:00031f50       ?key_MultiNew@CConEmuCtrl@@SA_NK_NPEBUConEmuHotKey@@PEAVCRealConsole@@@Z 0000000140032f50 f   ConEmuCtrl.obj
 0001:00031fa0       ?key_MultiNewShift@CConEmuCtrl@@SA_NK_NPEBUConEmuHotKey@@PEAVCRealConsole@@@Z 0000000140032fa0 f   ConEmuCtrl.obj
 0001:00031fd0       ?key_MultiNewPopupMenu@CConEmuCtrl@@SA_NK_NPEBUConEmuHotKey@@PEAVCRealConsole@@@Z 0000000140032fd0 f   ConEmuCtrl.obj
 0001:00032000       ?key_MultiNewPopupMenu2@CConEmuCtrl@@SA_NK_NPEBUConEmuHotKey@@PEAVCRealConsole@@@Z 0000000140033000 f   ConEmuCtrl.obj
 0001:00032030       ?key_MultiNewWindow@CConEmuCtrl@@SA_NK_NPEBUConEmuHotKey@@PEAVCRealConsole@@@Z 0000000140033030 f   ConEmuCtrl.obj
 0001:00032060       ?key_MultiNewAttach@CConEmuCtrl@@SA_NK_NPEBUConEmuHotKey@@PEAVCRealConsole@@@Z 0000000140033060 f   ConEmuCtrl.obj
 0001:000320a0       ?key_MultiNext@CConEmuCtrl@@SA_NK_NPEBUConEmuHotKey@@PEAVCRealConsole@@@Z 00000001400330a0 f   ConEmuCtrl.obj
 0001:000320c0       ?key_MultiNextShift@CConEmuCtrl@@SA_NK_NPEBUConEmuHotKey@@PEAVCRealConsole@@@Z 00000001400330c0 f   ConEmuCtrl.obj
 0001:000320e0       ?key_MultiRecreate@CConEmuCtrl@@SA_NK_NPEBUConEmuHotKey@@PEAVCRealConsole@@@Z 00000001400330e0 f   ConEmuCtrl.obj
 0001:00032110       ?key_AlternativeBuffer@CConEmuCtrl@@SA_NK_NPEBUConEmuHotKey@@PEAVCRealConsole@@@Z 0000000140033110 f   ConEmuCtrl.obj
 0001:00032130       ?key_MultiBuffer@CConEmuCtrl@@SA_NK_NPEBUConEmuHotKey@@PEAVCRealConsole@@@Z 0000000140033130 f   ConEmuCtrl.obj
 0001:00032150       ?key_MultiClose@CConEmuCtrl@@SA_NK_NPEBUConEmuHotKey@@PEAVCRealConsole@@@Z 0000000140033150 f   ConEmuCtrl.obj
 0001:00032180       ?key_TerminateProcess@CConEmuCtrl@@SA_NK_NPEBUConEmuHotKey@@PEAVCRealConsole@@@Z 0000000140033180 f   ConEmuCtrl.obj
 0001:000321b0       ?key_DuplicateRoot@CConEmuCtrl@@SA_NK_NPEBUConEmuHotKey@@PEAVCRealConsole@@@Z 00000001400331b0 f   ConEmuCtrl.obj
 0001:000321f0       ?key_MultiCmd@CConEmuCtrl@@SA_NK_NPEBUConEmuHotKey@@PEAVCRealConsole@@@Z 00000001400331f0 f   ConEmuCtrl.obj
 0001:00032260       ?key_CTSVkBlockStart@CConEmuCtrl@@SA_NK_NPEBUConEmuHotKey@@PEAVCRealConsole@@@Z 0000000140033260 f   ConEmuCtrl.obj
 0001:000322a0       ?key_CTSVkTextStart@CConEmuCtrl@@SA_NK_NPEBUConEmuHotKey@@PEAVCRealConsole@@@Z 00000001400332a0 f   ConEmuCtrl.obj
 0001:000322e0       ?key_About@CConEmuCtrl@@SA_NK_NPEBUConEmuHotKey@@PEAVCRealConsole@@@Z 00000001400332e0 f   ConEmuCtrl.obj
 0001:00032300       ?key_Hotkeys@CConEmuCtrl@@SA_NK_NPEBUConEmuHotKey@@PEAVCRealConsole@@@Z 0000000140033300 f   ConEmuCtrl.obj
 0001:00032320       ?key_Settings@CConEmuCtrl@@SA_NK_NPEBUConEmuHotKey@@PEAVCRealConsole@@@Z 0000000140033320 f   ConEmuCtrl.obj
 0001:00032360       ?key_SystemMenu@CConEmuCtrl@@SA_NK_NPEBUConEmuHotKey@@PEAVCRealConsole@@@Z 0000000140033360 f   ConEmuCtrl.obj
 0001:000323d0       ?key_TabMenu@CConEmuCtrl@@SA_NK_NPEBUConEmuHotKey@@PEAVCRealConsole@@@Z 00000001400333d0 f   ConEmuCtrl.obj
 0001:000324a0       ?key_ShowRealConsole@CConEmuCtrl@@SA_NK_NPEBUConEmuHotKey@@PEAVCRealConsole@@@Z 00000001400334a0 f   ConEmuCtrl.obj
 0001:000324d0       ?key_ForcedFullScreen@CConEmuCtrl@@SA_NK_NPEBUConEmuHotKey@@PEAVCRealConsole@@@Z 00000001400334d0 f   ConEmuCtrl.obj
 0001:000324f0       ?key_SwitchGuiFocus@CConEmuCtrl@@SA_NK_NPEBUConEmuHotKey@@PEAVCRealConsole@@@Z 00000001400334f0 f   ConEmuCtrl.obj
 0001:00032570       ?key_ChildSystemMenu@CConEmuCtrl@@SA_NK_NPEBUConEmuHotKey@@PEAVCRealConsole@@@Z 0000000140033570 f   ConEmuCtrl.obj
 0001:000325e0       ?key_BufferScroll@CConEmuCtrl@@SA_N_NEPEAVCRealConsole@@@Z 00000001400335e0 f   ConEmuCtrl.obj
 0001:000326e0       ?key_BufferScrollUp@CConEmuCtrl@@SA_NK_NPEBUConEmuHotKey@@PEAVCRealConsole@@@Z 00000001400336e0 f   ConEmuCtrl.obj
 0001:00032700       ?key_BufferScrollDown@CConEmuCtrl@@SA_NK_NPEBUConEmuHotKey@@PEAVCRealConsole@@@Z 0000000140033700 f   ConEmuCtrl.obj
 0001:00032720       ?key_BufferScrollPgUp@CConEmuCtrl@@SA_NK_NPEBUConEmuHotKey@@PEAVCRealConsole@@@Z 0000000140033720 f   ConEmuCtrl.obj
 0001:00032740       ?key_BufferScrollPgDn@CConEmuCtrl@@SA_NK_NPEBUConEmuHotKey@@PEAVCRealConsole@@@Z 0000000140033740 f   ConEmuCtrl.obj
 0001:00032760       ?key_CtrlTab@CConEmuCtrl@@SA_NK_NPEBUConEmuHotKey@@PEAVCRealConsole@@@Z 0000000140033760 f   ConEmuCtrl.obj
 0001:00032760       ?key_CtrlShiftTab@CConEmuCtrl@@SA_NK_NPEBUConEmuHotKey@@PEAVCRealConsole@@@Z 0000000140033760 f   ConEmuCtrl.obj
 0001:000327d0       ?key_CtrlTab_Next@CConEmuCtrl@@SA_NK_NPEBUConEmuHotKey@@PEAVCRealConsole@@@Z 00000001400337d0 f   ConEmuCtrl.obj
 0001:000327d0       ?key_CtrlTab_Prev@CConEmuCtrl@@SA_NK_NPEBUConEmuHotKey@@PEAVCRealConsole@@@Z 00000001400337d0 f   ConEmuCtrl.obj
 0001:00032860       ?key_WinSize@CConEmuCtrl@@SA_NE@Z 0000000140033860 f   ConEmuCtrl.obj
 0001:00032a10       ?key_WinWidthDec@CConEmuCtrl@@SA_NK_NPEBUConEmuHotKey@@PEAVCRealConsole@@@Z 0000000140033a10 f   ConEmuCtrl.obj
 0001:00032a20       ?key_WinWidthInc@CConEmuCtrl@@SA_NK_NPEBUConEmuHotKey@@PEAVCRealConsole@@@Z 0000000140033a20 f   ConEmuCtrl.obj
 0001:00032a30       ?key_WinHeightDec@CConEmuCtrl@@SA_NK_NPEBUConEmuHotKey@@PEAVCRealConsole@@@Z 0000000140033a30 f   ConEmuCtrl.obj
 0001:00032a40       ?key_WinHeightInc@CConEmuCtrl@@SA_NK_NPEBUConEmuHotKey@@PEAVCRealConsole@@@Z 0000000140033a40 f   ConEmuCtrl.obj
 0001:00032a50       ?PreparePortableReg@CConEmuMain@@QEAA_NXZ 0000000140033a50 f   ConEmu.obj
 0001:00032a50       ?key_WinDragStart@CConEmuCtrl@@SA_NK_NPEBUConEmuHotKey@@PEAVCRealConsole@@@Z 0000000140033a50 f   ConEmuCtrl.obj
 0001:00032a60       ?key_ConsoleNum@CConEmuCtrl@@SA_NK_NPEBUConEmuHotKey@@PEAVCRealConsole@@@Z 0000000140033a60 f   ConEmuCtrl.obj
 0001:00032b50       ?key_PicViewSlideshow@CConEmuCtrl@@SA_NK_NPEBUConEmuHotKey@@PEAVCRealConsole@@@Z 0000000140033b50 f   ConEmuCtrl.obj
 0001:00032d10       ?key_GuiMacro@CConEmuCtrl@@SA_NK_NPEBUConEmuHotKey@@PEAVCRealConsole@@@Z 0000000140033d10 f   ConEmuCtrl.obj
 0001:00032d80       ?ChooseTabFromMenu@CConEmuCtrl@@SAXHUtagPOINT@@K@Z 0000000140033d80 f   ConEmuCtrl.obj
 0001:00032e90       ?key_ShowTabsList@CConEmuCtrl@@SA_NK_NPEBUConEmuHotKey@@PEAVCRealConsole@@@Z 0000000140033e90 f   ConEmuCtrl.obj
 0001:00032f70       ?key_RenameTab@CConEmuCtrl@@SA_NK_NPEBUConEmuHotKey@@PEAVCRealConsole@@@Z 0000000140033f70 f   ConEmuCtrl.obj
 0001:00032f90       ?key_MoveTabLeft@CConEmuCtrl@@SA_NK_NPEBUConEmuHotKey@@PEAVCRealConsole@@@Z 0000000140033f90 f   ConEmuCtrl.obj
 0001:00032fd0       ?key_MoveTabRight@CConEmuCtrl@@SA_NK_NPEBUConEmuHotKey@@PEAVCRealConsole@@@Z 0000000140033fd0 f   ConEmuCtrl.obj
 0001:00033010       ?key_ShowCaption@CConEmuCtrl@@SA_NK_NPEBUConEmuHotKey@@PEAVCRealConsole@@@Z 0000000140034010 f   ConEmuCtrl.obj
 0001:00033090       ?key_AlwaysOnTop@CConEmuCtrl@@SA_NK_NPEBUConEmuHotKey@@PEAVCRealConsole@@@Z 0000000140034090 f   ConEmuCtrl.obj
 0001:000330d0       ?key_PasteTextAllApp@CConEmuCtrl@@SA_NK_NPEBUConEmuHotKey@@PEAVCRealConsole@@@Z 00000001400340d0 f   ConEmuCtrl.obj
 0001:00033170       ?key_PasteFirstLineAllApp@CConEmuCtrl@@SA_NK_NPEBUConEmuHotKey@@PEAVCRealConsole@@@Z 0000000140034170 f   ConEmuCtrl.obj
 0001:00033210       ?StatusCommand@CConEmuCtrl@@SAXW4ConEmuStatusCommand@@HPEB_WPEAVCRealConsole@@@Z 0000000140034210 f   ConEmuCtrl.obj
 0001:00033300       ?TabCommand@CConEmuCtrl@@SAXW4ConEmuTabCommand@@@Z 0000000140034300 f   ConEmuCtrl.obj
 0001:00033400       ?key_DeleteWordToLeft@CConEmuCtrl@@SA_NK_NPEBUConEmuHotKey@@PEAVCRealConsole@@@Z 0000000140034400 f   ConEmuCtrl.obj
 0001:00033460       ?key_RunTask@CConEmuCtrl@@SA_NK_NPEBUConEmuHotKey@@PEAVCRealConsole@@@Z 0000000140034460 f   ConEmuCtrl.obj
 0001:000334e0       ?key_FindTextDlg@CConEmuCtrl@@SA_NK_NPEBUConEmuHotKey@@PEAVCRealConsole@@@Z 00000001400344e0 f   ConEmuCtrl.obj
 0001:00033540       ?DoFindText@CConEmuCtrl@@SAXHPEAVCRealConsole@@@Z 0000000140034540 f   ConEmuCtrl.obj
 0001:000335c0       ?DoEndFindText@CConEmuCtrl@@SAXPEAVCRealConsole@@@Z 00000001400345c0 f   ConEmuCtrl.obj
 0001:00033640       ?SkipOneAppsReleaseHook@CConEmuCtrl@@CA_JH_K_J@Z 0000000140034640 f   ConEmuCtrl.obj
 0001:00033690       ?MakeScreenshot@CConEmuCtrl@@SAX_N@Z 0000000140034690 f   ConEmuCtrl.obj
 0001:00033900       ??_ECConEmuCtrl@@UEAAPEAXI@Z 0000000140034900 f i ConEmuCtrl.obj
 0001:00033900       ??_GCConEmuCtrl@@UEAAPEAXI@Z 0000000140034900 f i ConEmuCtrl.obj
 0001:00033930       ?key_ShowStatusBar@CConEmuCtrl@@SA_NK_NPEBUConEmuHotKey@@PEAVCRealConsole@@@Z 0000000140034930 f   ConEmuCtrl.obj
 0001:000339c0       ?key_ShowTabBar@CConEmuCtrl@@SA_NK_NPEBUConEmuHotKey@@PEAVCRealConsole@@@Z 00000001400349c0 f   ConEmuCtrl.obj
 0001:00033a50       ?key_PasteText@CConEmuCtrl@@SA_NK_NPEBUConEmuHotKey@@PEAVCRealConsole@@@Z 0000000140034a50 f   ConEmuCtrl.obj
 0001:00033ab0       ?key_PasteFirstLine@CConEmuCtrl@@SA_NK_NPEBUConEmuHotKey@@PEAVCRealConsole@@@Z 0000000140034ab0 f   ConEmuCtrl.obj
 0001:00033b10       ?SkipOneAppsRelease@CConEmuCtrl@@QEAAX_N@Z 0000000140034b10 f   ConEmuCtrl.obj
 0001:00033ba0       ?key_Screenshot@CConEmuCtrl@@SA_NK_NPEBUConEmuHotKey@@PEAVCRealConsole@@@Z 0000000140034ba0 f   ConEmuCtrl.obj
 0001:00033bc0       ?key_ScreenshotFull@CConEmuCtrl@@SA_NK_NPEBUConEmuHotKey@@PEAVCRealConsole@@@Z 0000000140034bc0 f   ConEmuCtrl.obj
 0001:00033be0       ?ProcessHotKey@CConEmuCtrl@@QEAAPEBUConEmuHotKey@@K_NPEB_WPEAVCRealConsole@@@Z 0000000140034be0 f   ConEmuCtrl.obj
 0001:00033e40       ?ProcessHotKeyMsg@CConEmuCtrl@@QEAA_NI_K_JPEB_WPEAVCRealConsole@@@Z 0000000140034e40 f   ConEmuCtrl.obj
 0001:000342a0       ?GetOpenedTabs@CConEmuCtrl@@SA_KAEAPEAUTabInfo@CESERVER_REQ_GETALLTABS@@@Z 00000001400352a0 f   ConEmuCtrl.obj
 0001:00034650       ??0CConEmuPipe@@QEAA@KK@Z  0000000140035650 f   ConEmuPipe.obj
 0001:000346c0       ?Close@CConEmuPipe@@QEAAXXZ 00000001400356c0 f   ConEmuPipe.obj
 0001:00034730       ?Init@CConEmuPipe@@QEAAHPEB_WH@Z 0000000140035730 f   ConEmuPipe.obj
 0001:000347b0       ?Execute@CConEmuPipe@@QEAAHHPEBXI@Z 00000001400357b0 f   ConEmuPipe.obj
 0001:00034b30       ?GetPtr@CConEmuPipe@@QEAAPEAEPEAK@Z 0000000140035b30 f   ConEmuPipe.obj
 0001:00034b70       ?Read@CConEmuPipe@@QEAAHPEAXKPEAK@Z 0000000140035b70 f   ConEmuPipe.obj
 0001:00034c30       ??1CConEmuPipe@@QEAA@XZ    0000000140035c30 f   ConEmuPipe.obj
 0001:00034c90       ??$wcscat_c@$0CAA@@@YAHAEAY0CAA@_WPEB_W@Z 0000000140035c90 f i ConfirmDlg.obj
 0001:00034d50       ?ConfirmCloseConsoles@@YAHAEBUConfirmCloseParam@@@Z 0000000140035d50 f   ConfirmDlg.obj
 0001:000354d0       ??1CustomFont@@UEAA@XZ     00000001400364d0 f i CustomFonts.obj
 0001:000354e0       ??_ECustomFont@@UEAAPEAXI@Z 00000001400364e0 f i CustomFonts.obj
 0001:000354e0       ??_GCustomFont@@UEAAPEAXI@Z 00000001400364e0 f i CustomFonts.obj
 0001:00035510       ??9@YA_NAEBUCEFONT@@0@Z    0000000140036510 f   CustomFonts.obj
 0001:00035540       ?CreateBitmap@BDFFont@@AEAAXXZ 0000000140036540 f i CustomFonts.obj
 0001:00035690       ?LoadBuffer@BDFFont@@SAPEADPEB_WAEAPEAD1@Z 0000000140036690 f i CustomFonts.obj
 0001:00035790       ?GetFamilyName@BDFFont@@SA_NPEB_WAEAY0CA@_W@Z 0000000140036790 f i CustomFonts.obj
 0001:000359b0       ?BDF_GetFamilyName@@YAHPEB_WAEAY0CA@_W@Z 00000001400369b0 f   CustomFonts.obj
 0001:00035a00       ??1CachedSolidBrush@@QEAA@XZ 0000000140036a00 f   CustomFonts.obj
 0001:00035a20       ?Get@CachedSolidBrush@@QEAAPEAUHBRUSH__@@K@Z 0000000140036a20 f   CustomFonts.obj
 0001:00035a70       ?DeleteDC@CEDC@@QEAAXXZ    0000000140036a70 f   CustomFonts.obj
 0001:00035b00       ?CreateDCW@CEDC@@QEAA_NII@Z 0000000140036b00 f   CustomFonts.obj
 0001:00035d10       ?SelectObject@CEDC@@QEAA?AUCEFONT@@U2@@Z 0000000140036d10 f   CustomFonts.obj
 0001:00035dc0       ?SetTextColor@CEDC@@QEAAXK@Z 0000000140036dc0 f   CustomFonts.obj
 0001:00035e00       ?SetBkColor@CEDC@@QEAAXK@Z 0000000140036e00 f   CustomFonts.obj
 0001:00035e40       ?SetBkMode@CEDC@@QEAAXH@Z  0000000140036e40 f   CustomFonts.obj
 0001:00035e80       ?ExtTextOutW@CEDC@@QEAAHHHIPEBUtagRECT@@PEB_WIPEBH@Z 0000000140036e80 f   CustomFonts.obj
 0001:00036060       ?ExtTextOutA@CEDC@@QEAAHHHIPEBUtagRECT@@PEBDIPEBH@Z 0000000140037060 f   CustomFonts.obj
 0001:000361a0       ?GetTextExtentPoint32W@CEDC@@QEAAHPEB_WHPEAUtagSIZE@@@Z 00000001400371a0 f   CustomFonts.obj
 0001:000361f0       ?GetFont@CustomFontFamily@@QEAAPEAVCustomFont@@HHHH@Z 00000001400371f0 f   CustomFonts.obj
 0001:00036330       ?IsMonospace@BDFFont@@UEAAHXZ 0000000140037330 f i CustomFonts.obj
 0001:00036340       ?HasUnicode@BDFFont@@UEAAHXZ 0000000140037340 f i CustomFonts.obj
 0001:00036350       ?GetSize@BDFFont@@UEAAHXZ  0000000140037350 f i CustomFonts.obj
 0001:00036370       ?GetTrackMenuPlace@CConEmuMenu@@QEAA?AW4TrackMenuPlace@@XZ 0000000140037370 f i Menu.obj
 0001:00036370       ?IsBold@BDFFont@@UEAAHXZ   0000000140037370 f i CustomFonts.obj
 0001:00036380       ?IsItalic@BDFFont@@UEAAHXZ 0000000140037380 f i CustomFonts.obj
 0001:00036380       ?IsUnderline@BDFFont@@UEAAHXZ 0000000140037380 f i CustomFonts.obj
 0001:00036380       ?DragEnter@CBaseDropTarget@@UEAAJPEAUIDataObject@@KU_POINTL@@PEAK@Z 0000000140037380 f i BaseDragDrops.obj
 0001:00036380       ?Drop@CBaseDropTarget@@UEAAJPEAUIDataObject@@KU_POINTL@@PEAK@Z 0000000140037380 f i BaseDragDrops.obj
 0001:00036380       ?DragOver@CBaseDropTarget@@UEAAJKU_POINTL@@PEAK@Z 0000000140037380 f i BaseDragDrops.obj
 0001:00036380       ?DragLeave@CBaseDropTarget@@UEAAJXZ 0000000140037380 f i BaseDragDrops.obj
 0001:00036390       ?GetBoundingBox@BDFFont@@UEAAXPEAJ0@Z 0000000140037390 f i CustomFonts.obj
 0001:000363a0       ?DrawTextW@BDFFont@@UEAAXPEAUHDC__@@HHPEB_WI@Z 00000001400373a0 f i CustomFonts.obj
 0001:00036460       ?DrawTextW@BDFFont@@UEAAXPEAK_KKKPEB_WI@Z 0000000140037460 f i CustomFonts.obj
 0001:000365d0       ??_GBDFFont@@UEAAPEAXI@Z   00000001400375d0 f i CustomFonts.obj
 0001:000365d0       ??_EBDFFont@@UEAAPEAXI@Z   00000001400375d0 f i CustomFonts.obj
 0001:00036650       ?Load@BDFFont@@SAPEAV1@PEB_W@Z 0000000140037650 f i CustomFonts.obj
 0001:00036d10       ?BDF_Load@@YAPEAVCustomFont@@PEB_W@Z 0000000140037d10 f   CustomFonts.obj
 0001:00036d20       ??0CEDC@@QEAA@PEAUHDC__@@@Z 0000000140037d20 f   CustomFonts.obj
 0001:00036d90       ?AddFont@CustomFontFamily@@QEAAXPEAVCustomFont@@@Z 0000000140037d90 f   CustomFonts.obj
 0001:00036e30       ??1CustomFontFamily@@QEAA@XZ 0000000140037e30 f   CustomFonts.obj
 0001:00036e80       ?StartDefTermHooker@@YAHKAEAPEAXAEAKPEB_W1@Z 0000000140037e80 f   DefaultTerm.obj
 0001:00037030       ?IsRegisteredOsStartup@CDefaultTerminal@@QEAA_NPEA_WKPEA_N@Z 0000000140038030 f   DefaultTerm.obj
 0001:00037140       ?CheckRegisterOsStartup@CDefaultTerminal@@QEAAXXZ 0000000140038140 f   DefaultTerm.obj
 0001:00037330       ?PostCheckThread@CDefaultTerminal@@CAKPEAX@Z 0000000140038330 f   DefaultTerm.obj
 0001:00037380       ?ClearThreads@CDefaultTerminal@@AEAAX_N@Z 0000000140038380 f   DefaultTerm.obj
 0001:00037470       ?ClearProcessed@CDefaultTerminal@@AEAAX_N@Z 0000000140038470 f   DefaultTerm.obj
 0001:000375a0       ?push_back@?$MArray@PEAX@@QEAA_JAEBQEAX@Z 00000001400385a0 f i DefaultTerm.obj
 0001:000375a0       ?push_back@?$MArray@PEAVCVConGuard@@@@QEAA_JAEBQEAVCVConGuard@@@Z 00000001400385a0 f i VConGroup.obj
 0001:00037620       ??0CDefaultTerminal@@QEAA@XZ 0000000140038620 f   DefaultTerm.obj
 0001:000376a0       ??1CDefaultTerminal@@QEAA@XZ 00000001400386a0 f   DefaultTerm.obj
 0001:000377d0       ?CheckForeground@CDefaultTerminal@@QEAA_NPEAUHWND__@@K_N@Z 00000001400387d0 f   DefaultTerm.obj
 0001:00037ba0       ?CheckShellWindow@CDefaultTerminal@@AEAA_NXZ 0000000140038ba0 f   DefaultTerm.obj
 0001:00037d00       ?OnHookedListChanged@CDefaultTerminal@@QEAAXXZ 0000000140038d00 f   DefaultTerm.obj
 0001:00037e30       ?PostCreatedThread@CDefaultTerminal@@CAKPEAX@Z 0000000140038e30 f   DefaultTerm.obj
 0001:00037e70       ?PostCreated@CDefaultTerminal@@QEAAX_N0@Z 0000000140038e70 f   DefaultTerm.obj
 0001:00038070       ?FileCreateName@CDragDrop@@IEAAPEA_WHHPEB_W0@Z 0000000140039070 f   DragDrop.obj
 0001:000385e0       ?FileStart@CDragDrop@@IEAAPEAXPEB_W@Z 00000001400395e0 f   DragDrop.obj
 0001:00038700       ?FileWrite@CDragDrop@@IEAAJPEAXK0@Z 0000000140039700 f   DragDrop.obj
 0001:00038840       ?DragOverInt@CDragDrop@@IEAAJKU_POINTL@@PEAK@Z 0000000140039840 f   DragDrop.obj
 0001:00038ba0       ?DragEnter@CDragDrop@@UEAAJPEAUIDataObject@@KU_POINTL@@PEAK@Z 0000000140039ba0 f   DragDrop.obj
 0001:00038cd0       ?DragLeave@CDragDrop@@UEAAJXZ 0000000140039cd0 f   DragDrop.obj
 0001:00038d10       ?CreateLink@CDragDrop@@QEAAJPEB_W00@Z 0000000140039d10 f   DragDrop.obj
 0001:00038de0       ?ReportUnknownData@CDragDrop@@IEAAXPEAUIDataObject@@PEB_W@Z 0000000140039de0 f   DragDrop.obj
 0001:00038fb0       ?DropNames@CDragDrop@@IEAAJPEAUHDROP__@@HH@Z 0000000140039fb0 f   DragDrop.obj
 0001:00039650       ?DropLinks@CDragDrop@@IEAAJPEAUHDROP__@@HH@Z 000000014003a650 f   DragDrop.obj
 0001:00039850       ?ShellOpThreadProc@CDragDrop@@KAKPEAX@Z 000000014003a850 f   DragDrop.obj
 0001:000399f0       ?DragOver@CDragDrop@@UEAAJKU_POINTL@@PEAK@Z 000000014003a9f0 f   DragDrop.obj
 0001:00039a80       ?push_back@?$MArray@UProcessInfo@CDefaultTerminal@@@@QEAA_JAEBUProcessInfo@CDefaultTerminal@@@Z 000000014003aa80 f i DefaultTerm.obj
 0001:00039a80       ?push_back@?$MArray@U_ThInfo@CDragDrop@@@@QEAA_JAEBU_ThInfo@CDragDrop@@@Z 000000014003aa80 f i DragDrop.obj
 0001:00039b00       ??0CDragDrop@@QEAA@XZ      000000014003ab00 f   DragDrop.obj
 0001:00039bb0       ??1CDragDrop@@QEAA@XZ      000000014003abb0 f   DragDrop.obj
 0001:00039e00       ?Drag@CDragDrop@@QEAAXHU_COORD@@@Z 000000014003ae00 f   DragDrop.obj
 0001:0003a020       ?DropFromStream@CDragDrop@@IEAAJPEAUIDataObject@@H@Z 000000014003b020 f   DragDrop.obj
 0001:0003a9f0       ?Drop@CDragDrop@@UEAAJPEAUIDataObject@@KU_POINTL@@PEAK@Z 000000014003b9f0 f   DragDrop.obj
 0001:0003b1b0       ?Register@CDragDropData@@QEAAHXZ 000000014003c1b0 f   DragDropData.obj
 0001:0003b220       ?UseTargetHelper@CDragDropData@@IEAA_N_N@Z 000000014003c220 f   DragDropData.obj
 0001:0003b300       ?UseSourceHelper@CDragDropData@@IEAA_NXZ 000000014003c300 f   DragDropData.obj
 0001:0003b3e0       ?AddFmt_SHELLIDLIST@CDragDropData@@AEAAHPEA_WIH@Z 000000014003c3e0 f   DragDropData.obj
 0001:0003b6e0       ?AddFmt_PREFERREDDROPEFFECT@CDragDropData@@AEAAHPEA_WIH@Z 000000014003c6e0 f   DragDropData.obj
 0001:0003b750       ?AddFmt_HDROP@CDragDropData@@AEAAHPEA_WIH@Z 000000014003c750 f   DragDropData.obj
 0001:0003b860       ?CheckIsUpdatePackage@CDragDropData@@IEAA_NPEAUIDataObject@@@Z 000000014003c860 f   DragDropData.obj
 0001:0003b980       ?NeedRefreshToInfo@CDragDropData@@QEAA_NU_POINTL@@@Z 000000014003c980 f   DragDropData.obj
 0001:0003ba50       ?DrawImageBits@CDragDropData@@IEAAHPEAUHDC__@@PEA_WPEAHH2@Z 000000014003ca50 f   DragDropData.obj
 0001:0003bc90       ?InDragDrop@CDragDropData@@QEAAHXZ 000000014003cc90 f   DragDropData.obj
 0001:0003bcb0       ?DragFeedBack@CDragDropData@@QEAAXK@Z 000000014003ccb0 f   DragDropData.obj
 0001:0003bd40       ??$PidlDump@PEFBU_ITEMIDLIST@@@@YAXPEFBU_ITEMIDLIST@@PEAX@Z 000000014003cd40 f i DragDropData.obj
 0001:0003bf20       ?StringCbCopyW@@YAJPEA_W_KPEB_W@Z 000000014003cf20 f i DragDropData.obj
 0001:0003bfb0       ?PaintDragImageBits@CDragDropData@@IEAAHPEA_WAEAPEAUHDC__@@AEAPEAUHBITMAP__@@2HHPEAH3PEAUtagPOINT@@_NK@Z 000000014003cfb0 f   DragDropData.obj
 0001:0003c4b0       ?IsDragStarting@CDragDropData@@QEAAHXZ 000000014003d4b0 f   DragDropData.obj
 0001:0003c510       ?ForwardMessage@CDragDropData@@QEAAHI_K_J@Z 000000014003d510 f   DragDropData.obj
 0001:0003c5a0       ?TerminateDrag@CDragDropData@@IEAAXXZ 000000014003d5a0 f   DragDropData.obj
 0001:0003c6e0       ??0CDragDropData@@QEAA@XZ  000000014003d6e0 f   DragDropData.obj
 0001:0003c760       ??1CDragDropData@@QEAA@XZ  000000014003d760 f   DragDropData.obj
 0001:0003c810       ?AddFmt_DragImageBits@CDragDropData@@AEAAHPEA_WIH@Z 000000014003d810 f   DragDropData.obj
 0001:0003ca10       ?EnumDragFormats@CDragDropData@@IEAAXPEAUIDataObject@@PEAX@Z 000000014003da10 f   DragDropData.obj
 0001:0003d4d0       ?SetDragToInfo@CDragDropData@@QEAAXPEBUForwardedPanelInfo@@_KPEAVCRealConsole@@@Z 000000014003e4d0 f   DragDropData.obj
 0001:0003d6f0       ?RetrieveDragToInfo@CDragDropData@@QEAAXU_POINTL@@@Z 000000014003e6f0 f   DragDropData.obj
 0001:0003daa0       ?RetrieveDragFromInfo@CDragDropData@@AEAAHHU_COORD@@PEAPEA_WPEAI@Z 000000014003eaa0 f   DragDropData.obj
 0001:0003dfa0       ?PrepareDrag@CDragDropData@@QEAAHHU_COORD@@PEAK@Z 000000014003efa0 f   DragDropData.obj
 0001:0003e2b0       ??1CDwmHelper@@UEAA@XZ     000000014003f2b0 f   DwmHelper.obj
 0001:0003e3b0       ?InitDwm@CDwmHelper@@AEAAXXZ 000000014003f3b0 f   DwmHelper.obj
 0001:0003e810       ?IsDwm@CDwmHelper@@QEAA_NXZ 000000014003f810 f   DwmHelper.obj
 0001:0003e850       ?IsGlass@CDwmHelper@@QEAA_NXZ 000000014003f850 f   DwmHelper.obj
 0001:0003e880       ?IsThemed@CDwmHelper@@QEAA_NXZ 000000014003f880 f   DwmHelper.obj
 0001:0003e8c0       ?DwmDefWindowProc@CDwmHelper@@QEAAHPEAUHWND__@@I_K_JPEA_J@Z 000000014003f8c0 f   DwmHelper.obj
 0001:0003e910       ?DwmGetWindowAttribute@CDwmHelper@@QEAAJPEAUHWND__@@KPEAXK@Z 000000014003f910 f   DwmHelper.obj
 0001:0003e950       ?GetDwmClientRectTopOffset@CDwmHelper@@QEAAHXZ 000000014003f950 f   DwmHelper.obj
 0001:0003e9d0       ?BeginBufferedPaint@CDwmHelper@@QEAAPEAXPEAUHDC__@@AEBUtagRECT@@AEAUPaintDC@@@Z 000000014003f9d0 f   DwmHelper.obj
 0001:0003eb70       ?EndBufferedPaint@CDwmHelper@@QEAAJAEAUPaintDC@@H@Z 000000014003fb70 f   DwmHelper.obj
 0001:0003ec40       ?ForceSetIconic@CDwmHelper@@QEAAXPEAUHWND__@@@Z 000000014003fc40 f   DwmHelper.obj
 0001:0003ecb0       ?DwmSetIconicThumbnail@CDwmHelper@@QEAAJPEAUHWND__@@PEAUHBITMAP__@@@Z 000000014003fcb0 f   DwmHelper.obj
 0001:0003ece0       ?DwmSetIconicLivePreviewBitmap@CDwmHelper@@QEAAJPEAUHWND__@@PEAUHBITMAP__@@PEAUtagPOINT@@@Z 000000014003fce0 f   DwmHelper.obj
 0001:0003ed20       ?DwmInvalidateIconicBitmaps@CDwmHelper@@QEAAJPEAUHWND__@@@Z 000000014003fd20 f   DwmHelper.obj
 0001:0003ed40       ??_ECDwmHelper@@UEAAPEAXI@Z 000000014003fd40 f i DwmHelper.obj
 0001:0003ed40       ??_GCDwmHelper@@UEAAPEAXI@Z 000000014003fd40 f i DwmHelper.obj
 0001:0003ed70       ?DrawType@CDwmHelper@@QEAA?AW4FrameDrawStyle@@XZ 000000014003fd70 f   DwmHelper.obj
 0001:0003ee00       ?ExtendWindowFrame@CDwmHelper@@QEAA_NXZ 000000014003fe00 f   DwmHelper.obj
 0001:0003ee70       ??0CDwmHelper@@QEAA@XZ     000000014003fe70 f   DwmHelper.obj
 0001:0003eeb0       ?GetImageSubsystem@@YA_NPEB_WAEAK11@Z 000000014003feb0 f   Execute.obj
 0001:0003f1b0       ?UpdateFindDlgAlpha@CEFindDlg@@QEAAX_N@Z 00000001400401b0 f   FindDlg.obj
 0001:0003f280       ?findTextProc@CEFindDlg@@SA_JPEAUHWND__@@I_K_J@Z 0000000140040280 f   FindDlg.obj
 0001:0003f7c0       ?FindTextDialog@CEFindDlg@@QEAAXXZ 00000001400407c0 f   FindDlg.obj
 0001:0003f8f0       ??0CFrameHolder@@QEAA@XZ   00000001400408f0 f   FrameHolder.obj
 0001:0003f920       ??1CFrameHolder@@UEAA@XZ   0000000140040920 f   FrameHolder.obj
 0001:0003f940       ?PostScClose@CFrameHolder@@QEAAXXZ 0000000140040940 f   FrameHolder.obj
 0001:0003f960       ?RedrawFrame@CFrameHolder@@QEAAXXZ 0000000140040960 f   FrameHolder.obj
 0001:0003f9d0       ?NC_Wrapper@CFrameHolder@@IEAA_JPEAUHWND__@@I_K_J@Z 00000001400409d0 f   FrameHolder.obj
 0001:0003fa60       ?SetDontPreserveClient@CFrameHolder@@QEAA_N_N@Z 0000000140040a60 f   FrameHolder.obj
 0001:0003fa70       ?SetAllowPreserveClient@CFrameHolder@@QEAA_N_N@Z 0000000140040a70 f   FrameHolder.obj
 0001:0003fa80       ?OnNcHitTest@CFrameHolder@@IEAA_JPEAUHWND__@@I_K_J@Z 0000000140040a80 f   FrameHolder.obj
 0001:0003fcc0       ?GetFrameHeight@CFrameHolder@@QEAAHXZ 0000000140040cc0 f   FrameHolder.obj
 0001:0003fcd0       ?GetTabsHeight@CFrameHolder@@QEAAHXZ 0000000140040cd0 f   FrameHolder.obj
 0001:0003fd20       ?GetCaptionDragHeight@CFrameHolder@@QEAAHXZ 0000000140040d20 f   FrameHolder.obj
 0001:0003fd30       ??_ECFrameHolder@@UEAAPEAXI@Z 0000000140040d30 f i FrameHolder.obj
 0001:0003fd30       ??_GCFrameHolder@@UEAAPEAXI@Z 0000000140040d30 f i FrameHolder.obj
 0001:0003fd60       ?CalculateCaptionPosition@CFrameHolder@@UEAAXAEBUtagRECT@@PEAU2@@Z 0000000140040d60 f   FrameHolder.obj
 0001:0003fde0       ?CalculateTabPosition@CFrameHolder@@UEAAXAEBUtagRECT@@0PEAU2@@Z 0000000140040de0 f   FrameHolder.obj
 0001:0003ffe0       ?RecalculateFrameSizes@CFrameHolder@@QEAAXXZ 0000000140040fe0 f   FrameHolder.obj
 0001:000400b0       ?InitFrameHolder@CFrameHolder@@QEAAXXZ 00000001400410b0 f   FrameHolder.obj
 0001:000400c0       ?OnPaint@CFrameHolder@@IEAA_JPEAUHWND__@@PEAUHDC__@@@Z 00000001400410c0 f   FrameHolder.obj
 0001:00040220       ?OnNcPaint@CFrameHolder@@IEAA_JPEAUHWND__@@I_K_J@Z 0000000140041220 f   FrameHolder.obj
 0001:00040440       ?OnNcActivate@CFrameHolder@@IEAA_JPEAUHWND__@@I_K_J@Z 0000000140041440 f   FrameHolder.obj
 0001:00040560       ?OnNcCalcSize@CFrameHolder@@IEAA_JPEAUHWND__@@I_K_J@Z 0000000140041560 f   FrameHolder.obj
 0001:00040810       ?ProcessNcMessage@CFrameHolder@@QEAA_NPEAUHWND__@@I_K_JAEA_J@Z 0000000140041810 f   FrameHolder.obj
 0001:00040e00       ??0CGestures@@QEAA@XZ      0000000140041e00 f   GestureEngine.obj
 0001:00040ed0       ??1CGestures@@UEAA@XZ      0000000140041ed0 f   GestureEngine.obj
 0001:00040ee0       ?IsGesturesEnabled@CGestures@@QEAA_NXZ 0000000140041ee0 f   GestureEngine.obj
 0001:00040f40       ?SendRClick@CGestures@@AEAAXPEAUHWND__@@JJ@Z 0000000140041f40 f   GestureEngine.obj
 0001:00041060       ?ProcessTwoFingerTap@CGestures@@UEAAXPEAUHWND__@@JJK@Z 0000000140042060 f   GestureEngine.obj
 0001:00041060       ?ProcessPressAndTap@CGestures@@UEAAXPEAUHWND__@@JJFF@Z 0000000140042060 f   GestureEngine.obj
 0001:00041070       ?ProcessZoom@CGestures@@UEAAXPEAUHWND__@@NJJ@Z 0000000140042070 f   GestureEngine.obj
 0001:00041100       ?ProcessMove@CGestures@@UEAA_NPEAUHWND__@@JJ@Z 0000000140042100 f   GestureEngine.obj
 0001:00041260       ?ProcessRotate@CGestures@@UEAA_NPEAUHWND__@@JJJ_N@Z 0000000140042260 f   GestureEngine.obj
 0001:00041310       ??_ECGestures@@UEAAPEAXI@Z 0000000140042310 f i GestureEngine.obj
 0001:00041310       ??_GCGestures@@UEAAPEAXI@Z 0000000140042310 f i GestureEngine.obj
 0001:00041340       ?DumpGesture@CGestures@@AEAAXPEB_WAEBUtagGESTUREINFO@@@Z 0000000140042340 f   GestureEngine.obj
 0001:00041660       ?ProcessGestureMessage@CGestures@@UEAA_NPEAUHWND__@@I_K_JAEA_J@Z 0000000140042660 f   GestureEngine.obj
 0001:00041bc0       ?ServerCommandFree@CRealServer@@KAXPEAUCESERVER_REQ@@_J@Z 0000000140042bc0 f   RealServer.obj
 0001:00041bc0       ?GuiServerFree@CGuiServer@@KAXPEAUCESERVER_REQ@@_J@Z 0000000140042bc0 f   GuiServer.obj
 0001:00041be0       ?DumpError@?$PipeServer@UCESERVER_REQ@@@@IEAAXPEAUPipeInst@1@PEB_WH@Z 0000000140042be0 f i GuiServer.obj
 0001:00041d00       ?_PipeServerThread@?$PipeServer@UCESERVER_REQ@@@@KAKPEAX@Z 0000000140042d00 f i GuiServer.obj
 0001:00041d60       ?WaitOverlapped@?$PipeServer@UCESERVER_REQ@@@@IEAAHPEAUPipeInst@1@PEAK@Z 0000000140042d60 f i GuiServer.obj
 0001:00041fc0       ?AllocRequestBuf@PipeInst@?$PipeServer@UCESERVER_REQ@@@@QEAAPEAUCESERVER_REQ@@K@Z 0000000140042fc0 f i GuiServer.obj
 0001:00042020       ??0CGuiServer@@QEAA@XZ     0000000140043020 f   GuiServer.obj
 0001:00042070       ?StopPipeServer@?$PipeServer@UCESERVER_REQ@@@@QEAAX_N@Z 0000000140043070 f i GuiServer.obj
 0001:000423c0       ?StartPipeInstance@?$PipeServer@UCESERVER_REQ@@@@IEAA_NPEAUPipeInst@1@@Z 00000001400433c0 f i GuiServer.obj
 0001:000424c0       ?PipeServerRead@?$PipeServer@UCESERVER_REQ@@@@IEAAHPEAUPipeInst@1@@Z 00000001400434c0 f i GuiServer.obj
 0001:00042730       ?WaitForClient@?$PipeServer@UCESERVER_REQ@@@@IEAA_NPEAUPipeInst@1@AEAH1@Z 0000000140043730 f i GuiServer.obj
 0001:00042b80       ?WriteDummyAnswer@?$PipeServer@UCESERVER_REQ@@@@IEAAHPEAUPipeInst@1@@Z 0000000140043b80 f i GuiServer.obj
 0001:00042cb0       ?Stop@CGuiServer@@QEAAX_N@Z 0000000140043cb0 f   GuiServer.obj
 0001:00042d30       ?GuiServerCommand@CGuiServer@@KAHPEAXPEAUCESERVER_REQ@@AEAPEAU2@AEAK3_J@Z 0000000140043d30 f   GuiServer.obj
 0001:00043660       ?StartPipeServer@?$PipeServer@UCESERVER_REQ@@@@QEAA_NPEB_W_JPEAU_SECURITY_ATTRIBUTES@@P6AHPEAXPEAUCESERVER_REQ@@AEAPEAU3@AEAK61@ZP6AX41@ZP6AH31@Z99@Z 0000000140044660 f i GuiServer.obj
 0001:000437f0       ?PipeServerThread@?$PipeServer@UCESERVER_REQ@@@@IEAAKPEAUPipeInst@1@@Z 00000001400447f0 f i GuiServer.obj
 0001:00043b90       ??1CGuiServer@@QEAA@XZ     0000000140044b90 f   GuiServer.obj
 0001:00043c00       ?Start@CGuiServer@@QEAA_NXZ 0000000140044c00 f   GuiServer.obj
 0001:00043ca0       ?dlgGetHotkey@CHotKeyDialog@@SAKPEAUHWND__@@II@Z 0000000140044ca0 f   Hotkeys.obj
 0001:00043d40       ?CanChangeVK@ConEmuHotKey@@QEBA_NXZ 0000000140044d40 f   Hotkeys.obj
 0001:00043d70       ?GetTaskIndex@ConEmuHotKey@@QEBAHXZ 0000000140044d70 f   Hotkeys.obj
 0001:00043d90       ?SetTaskIndex@ConEmuHotKey@@QEAAXH@Z 0000000140044d90 f   Hotkeys.obj
 0001:00043db0       ?TestHostkeyModifiers@ConEmuHotKey@@SAXAEAK@Z 0000000140044db0 f   Hotkeys.obj
 0001:00043fe0       ?MakeHotKey@ConEmuHotKey@@SAKEEEE@Z 0000000140044fe0 f   Hotkeys.obj
 0001:00044040       ?GetModifier@ConEmuHotKey@@SAKKH@Z 0000000140045040 f   Hotkeys.obj
 0001:000440d0       ?HasModifier@ConEmuHotKey@@SA_NKE@Z 00000001400450d0 f   Hotkeys.obj
 0001:000441e0       ?GetHotkey@ConEmuHotKey@@SAKK@Z 00000001400451e0 f   Hotkeys.obj
 0001:000441f0       ?UseWinNumber@ConEmuHotKey@@SA_NXZ 00000001400451f0 f   Hotkeys.obj
 0001:00044230       ?UseWinArrows@ConEmuHotKey@@SA_NXZ 0000000140045230 f   Hotkeys.obj
 0001:00044240       ?InSelection@ConEmuHotKey@@SA_NXZ 0000000140045240 f   Hotkeys.obj
 0001:000442c0       ?UseCTSShiftArrow@ConEmuHotKey@@SA_NXZ 00000001400452c0 f   Hotkeys.obj
 0001:000443b0       ?UseCtrlTab@ConEmuHotKey@@SA_NXZ 00000001400453b0 f   Hotkeys.obj
 0001:000443c0       ?AllocateHotkeys@ConEmuHotKey@@SAHPEAPEAU1@@Z 00000001400453c0 f   Hotkeys.obj
 0001:0004a600       ?GetDescription@ConEmuHotKey@@QEBAPEB_WPEA_WH_N@Z 000000014004b600 f   Hotkeys.obj
 0001:0004a7f0       ?GetHotKeyMod@ConEmuHotKey@@SAKK@Z 000000014004b7f0 f   Hotkeys.obj
 0001:0004a990       ?SetModifier@ConEmuHotKey@@SAKKE_N@Z 000000014004b990 f   Hotkeys.obj
 0001:0004ae10       ??$wcscpy_c@$0IA@@@YAHAEAY0IA@_WPEB_W@Z 000000014004be10 f i Hotkeys.obj
 0001:0004ae70       ?hkDlgProc@CHotKeyDialog@@SA_JPEAUHWND__@@I_K_J@Z 000000014004be70 f   Hotkeys.obj
 0001:0004b1c0       ?GetVkKeyName@ConEmuHotKey@@SAXEAEAY0CA@_W@Z 000000014004c1c0 f   Hotkeys.obj
 0001:0004b760       ?EditHotKey@CHotKeyDialog@@SA_NPEAUHWND__@@AEAK@Z 000000014004c760 f   Hotkeys.obj
 0001:0004b7f0       ?GetHotkeyName@ConEmuHotKey@@QEBAPEB_WAEAY0IA@_W_N@Z 000000014004c7f0 f   Hotkeys.obj
 0001:0004b9f0       ?GetHotkeyName@ConEmuHotKey@@SAPEB_WKAEAY0IA@_W_N@Z 000000014004c9f0 f   Hotkeys.obj
 0001:0004ba90       ?IsInitialized@CIconList@@QEAA_NXZ 000000014004ca90 f   IconList.obj
 0001:0004baa0       ?Initialize@CIconList@@QEAA_NXZ 000000014004caa0 f   IconList.obj
 0001:0004bb60       ?GetTabIcon@CIconList@@QEAAH_N@Z 000000014004cb60 f   IconList.obj
 0001:0004bb80       ??0CIconList@@QEAA@XZ      000000014004cb80 f   IconList.obj
 0001:0004bbb0       ??1CIconList@@QEAA@XZ      000000014004cbb0 f   IconList.obj
 0001:0004bc80       ?CreateTabIcon@CIconList@@QEAAHPEB_W_N@Z 000000014004cc80 f   IconList.obj
 0001:0004c040       ?InitInside@CConEmuInside@@SA_N_N0PEB_WKPEAUHWND__@@@Z 000000014004d040 f   Inside.obj
 0001:0004c140       ?EnumInsideFindParent@CConEmuInside@@CAHPEAUHWND__@@_J@Z 000000014004d140 f   Inside.obj
 0001:0004c1e0       ?InsideFindConEmu@CConEmuInside@@AEAAPEAUHWND__@@PEAU2@@Z 000000014004d1e0 f   Inside.obj
 0001:0004c290       ?InsideFindShellView@CConEmuInside@@AEAA_NPEAUHWND__@@@Z 000000014004d290 f   Inside.obj
 0001:0004c660       ?SendVkKeySequence@CConEmuInside@@AEAA_NPEAUHWND__@@PEAG@Z 000000014004d660 f   Inside.obj
 0001:0004c870       ?InsideUpdateDir@CConEmuInside@@AEAAXXZ 000000014004d870 f   Inside.obj
 0001:0004ca50       ?GetInsideRect@CConEmuInside@@QEAA_NPEAUtagRECT@@@Z 000000014004da50 f   Inside.obj
 0001:0004cc30       ??_ECConEmuInside@@UEAAPEAXI@Z 000000014004dc30 f i Inside.obj
 0001:0004cc30       ??_GCConEmuInside@@UEAAPEAXI@Z 000000014004dc30 f i Inside.obj
 0001:0004cca0       ?InsideUpdatePlacement@CConEmuInside@@AEAAXXZ 000000014004dca0 f   Inside.obj
 0001:0004ce90       ?TurnExplorerTipPane@CConEmuInside@@AEAA_NAEAY0IA@_W@Z 000000014004de90 f   Inside.obj
 0001:0004d0a0       ?InsideParentMonitor@CConEmuInside@@QEAAXXZ 000000014004e0a0 f   Inside.obj
 0001:0004d0d0       ?InsideFindParent@CConEmuInside@@QEAAPEAUHWND__@@XZ 000000014004e0d0 f   Inside.obj
 0001:0004d420       ?SetData@MStream@@QEAAXPEBXK@Z 000000014004e420 f i LoadImg.obj
 0001:0004d6e0       ?CreateSolidImage@@YAPEAUtagBITMAPFILEHEADER@@KII@Z 000000014004e6e0 f   LoadImg.obj
 0001:0004d850       ?LoadImageFinalize@@YAXXZ  000000014004e850 f   LoadImg.obj
 0001:0004d8b0       ?GetCodecClsid@@YAHPEB_WPEAU_GUID@@@Z 000000014004e8b0 f   LoadImg.obj
 0001:0004d9b0       ?LoadImageGdip@@YAPEAUtagBITMAPFILEHEADER@@PEB_W@Z 000000014004e9b0 f   LoadImg.obj
 0001:0004dd10       ?LoadImageEx@@YAPEAUtagBITMAPFILEHEADER@@PEB_WAEAU_BY_HANDLE_FILE_INFORMATION@@@Z 000000014004ed10 f   LoadImg.obj
 0001:0004dec0       ?SaveImageEx@@YA_NPEB_WPEAUHBITMAP__@@@Z 000000014004eec0 f   LoadImg.obj
 0001:0004e020       ?QueryInterface@MStream@@UEAAJAEBU_GUID@@PEAPEAX@Z 000000014004f020 f i LoadImg.obj
 0001:0004e0d0       ?AddRef@MStream@@UEAAKXZ   000000014004f0d0 f i LoadImg.obj
 0001:0004e0e0       ?Read@MStream@@UEAAJPEAXKPEAK@Z 000000014004f0e0 f i LoadImg.obj
 0001:0004e170       ?Write@MStream@@UEAAJPEBXKPEAK@Z 000000014004f170 f i LoadImg.obj
 0001:0004e250       ?Seek@MStream@@UEAAJT_LARGE_INTEGER@@KPEAT_ULARGE_INTEGER@@@Z 000000014004f250 f i LoadImg.obj
 0001:0004e2d0       ?SetSize@MStream@@UEAAJT_ULARGE_INTEGER@@@Z 000000014004f2d0 f i LoadImg.obj
 0001:0004e3b0       ?Commit@MStream@@UEAAJK@Z  000000014004f3b0 f i LoadImg.obj
 0001:0004e3c0       ?Stat@MStream@@UEAAJPEAUtagSTATSTG@@K@Z 000000014004f3c0 f i LoadImg.obj
 0001:0004e420       ?LockRegion@MStream@@UEAAJT_ULARGE_INTEGER@@0K@Z 000000014004f420 f i LoadImg.obj
 0001:0004e420       ?Revert@MStream@@UEAAJXZ   000000014004f420 f i LoadImg.obj
 0001:0004e420       ?UnlockRegion@MStream@@UEAAJT_ULARGE_INTEGER@@0K@Z 000000014004f420 f i LoadImg.obj
 0001:0004e420       ?CopyTo@MStream@@UEAAJPEAUIStream@@T_ULARGE_INTEGER@@PEAT3@2@Z 000000014004f420 f i LoadImg.obj
 0001:0004e420       ?Clone@MStream@@UEAAJPEAPEAUIStream@@@Z 000000014004f420 f i LoadImg.obj
 0001:0004e430       ?Release@MStream@@UEAAKXZ  000000014004f430 f i LoadImg.obj
 0001:0004e4b0       ?SaveImageEx@@YA_NPEB_WPEAEK@Z 000000014004f4b0 f   LoadImg.obj
 0001:0004e670       ?SkipWhiteSpaces@CConEmuMacro@@KAXAEAPEA_W@Z 000000014004f670 f   Macro.obj
 0001:0004e6b0       ?GetNextInt@CConEmuMacro@@KAPEA_WAEAPEA_WAEAH@Z 000000014004f6b0 f   Macro.obj
 0001:0004e7c0       ?GetNextString@CConEmuMacro@@KAPEA_WAEAPEA_W0_N@Z 000000014004f7c0 f   Macro.obj
 0001:0004e970       ?IsRealVisible@CConEmuMacro@@SAPEA_WPEAUGuiMacro@@PEAVCRealConsole@@@Z 000000014004f970 f   Macro.obj
 0001:0004e9b0       ?IsConsoleActive@CConEmuMacro@@SAPEA_WPEAUGuiMacro@@PEAVCRealConsole@@@Z 000000014004f9b0 f   Macro.obj
 0001:0004e9f0       ?Close@CConEmuMacro@@SAPEA_WPEAUGuiMacro@@PEAVCRealConsole@@@Z 000000014004f9f0 f   Macro.obj
 0001:0004ebd0       ?FindFarWindowHelper@CConEmuMacro@@SAPEA_WIPEA_WPEAVCRealConsole@@_N@Z 000000014004fbd0 f   Macro.obj
 0001:0004ed10       ?WindowMode@CConEmuMacro@@SAPEA_WPEAUGuiMacro@@PEAVCRealConsole@@@Z 000000014004fd10 f   Macro.obj
 0001:0004f090       ?Menu@CConEmuMacro@@SAPEA_WPEAUGuiMacro@@PEAVCRealConsole@@@Z 0000000140050090 f   Macro.obj
 0001:0004f1d0       ?MsgBox@CConEmuMacro@@SAPEA_WPEAUGuiMacro@@PEAVCRealConsole@@@Z 00000001400501d0 f   Macro.obj
 0001:0004f310       ?FontSetSize@CConEmuMacro@@SAPEA_WPEAUGuiMacro@@PEAVCRealConsole@@@Z 0000000140050310 f   Macro.obj
 0001:0004f380       ?FontSetName@CConEmuMacro@@SAPEA_WPEAUGuiMacro@@PEAVCRealConsole@@@Z 0000000140050380 f   Macro.obj
 0001:0004f420       ?Copy@CConEmuMacro@@SAPEA_WPEAUGuiMacro@@PEAVCRealConsole@@@Z 0000000140050420 f   Macro.obj
 0001:0004f4a0       ?Paste@CConEmuMacro@@SAPEA_WPEAUGuiMacro@@PEAVCRealConsole@@@Z 00000001400504a0 f   Macro.obj
 0001:0004f600       ?Print@CConEmuMacro@@SAPEA_WPEAUGuiMacro@@PEAVCRealConsole@@@Z 0000000140050600 f   Macro.obj
 0001:0004f670       ?Progress@CConEmuMacro@@SAPEA_WPEAUGuiMacro@@PEAVCRealConsole@@@Z 0000000140050670 f   Macro.obj
 0001:0004f710       ?Rename@CConEmuMacro@@SAPEA_WPEAUGuiMacro@@PEAVCRealConsole@@@Z 0000000140050710 f   Macro.obj
 0001:0004f7b0       ?Select@CConEmuMacro@@SAPEA_WPEAUGuiMacro@@PEAVCRealConsole@@@Z 00000001400507b0 f   Macro.obj
 0001:0004f960       ?SetOption@CConEmuMacro@@SAPEA_WPEAUGuiMacro@@PEAVCRealConsole@@@Z 0000000140050960 f   Macro.obj
 0001:0004fb90       ?Status@CConEmuMacro@@SAPEA_WPEAUGuiMacro@@PEAVCRealConsole@@@Z 0000000140050b90 f   Macro.obj
 0001:0004fc40       ?Tab@CConEmuMacro@@SAPEA_WPEAUGuiMacro@@PEAVCRealConsole@@@Z 0000000140050c40 f   Macro.obj
 0001:0004fea0       ?AsString@GuiMacro@@QEAAPEA_WXZ 0000000140050ea0 f   Macro.obj
 0001:000502c0       ?WindowMaximize@CConEmuMacro@@SAPEA_WPEAUGuiMacro@@PEAVCRealConsole@@@Z 00000001400512c0 f   Macro.obj
 0001:00050360       ?WindowMinimize@CConEmuMacro@@SAPEA_WPEAUGuiMacro@@PEAVCRealConsole@@@Z 0000000140051360 f   Macro.obj
 0001:000503e0       ?Shell@CConEmuMacro@@SAPEA_WPEAUGuiMacro@@PEAVCRealConsole@@@Z 00000001400513e0 f   Macro.obj
 0001:00050ae0       ?Task@CConEmuMacro@@SAPEA_WPEAUGuiMacro@@PEAVCRealConsole@@@Z 0000000140051ae0 f   Macro.obj
 0001:00050cb0       ?GetNextMacro@CConEmuMacro@@KAPEAUGuiMacro@@AEAPEA_W_NPEAPEA_W@Z 0000000140051cb0 f   Macro.obj
 0001:00051350       ?ExecuteMacro@CConEmuMacro@@SAPEA_WPEA_WPEAVCRealConsole@@_N@Z 0000000140052350 f   Macro.obj
 0001:00051a00       ?Split@CConEmuMacro@@SAPEA_WPEAUGuiMacro@@PEAVCRealConsole@@@Z 0000000140052a00 f   Macro.obj
 0001:00051b90       ?ConvertMacro@CConEmuMacro@@SAPEA_WPEB_WE_N@Z 0000000140052b90 f   Macro.obj
 0001:00051d40       ?SetPassSysCommand@CConEmuMenu@@QEAA_N_N@Z 0000000140052d40 f   Menu.obj
 0001:00051d50       ?GetInScMinimize@CConEmuMenu@@QEAA_NXZ 0000000140052d50 f   Menu.obj
 0001:00051d60       ?SetRestoreFromMinimized@CConEmuMenu@@QEAA_N_N@Z 0000000140052d60 f   Menu.obj
 0001:00051d70       ?GetRestoreFromMinimized@CConEmuMenu@@QEAA_NXZ 0000000140052d70 f   Menu.obj
 0001:00051d80       ?SetTrackMenuPlace@CConEmuMenu@@QEAA?AW4TrackMenuPlace@@W42@@Z 0000000140052d80 f   Menu.obj
 0001:00051d90       ?ExecPopupMenuCmd@CConEmuMenu@@QEAAXPEAVCVirtualConsole@@H@Z 0000000140052d90 f   Menu.obj
 0001:00052100       ?CalcTabMenuPos@CConEmuMenu@@QEAA?AUtagPOINT@@PEAVCVirtualConsole@@@Z 0000000140053100 f   Menu.obj
 0001:000521f0       ?trackPopupMenu@CConEmuMenu@@QEAAHW4TrackMenuPlace@@PEAUHMENU__@@IHHPEAUHWND__@@PEAUtagRECT@@@Z 00000001400531f0 f   Menu.obj
 0001:00052320       ?ShowMenuHint@CConEmuMenu@@AEAAXPEAUHMENU__@@GG@Z 0000000140053320 f   Menu.obj
 0001:00052450       ?ShowKeyBarHint@CConEmuMenu@@AEAAXPEAUHMENU__@@GG@Z 0000000140053450 f   Menu.obj
 0001:000524f0       ?OnSysCommand@CConEmuMenu@@QEAA_JPEAUHWND__@@_K_J@Z 00000001400534f0 f   Menu.obj
 0001:00053090       ?addsize@?$MArray@UProcessInfo@CDefaultTerminal@@@@QEAAX_J@Z 0000000140054090 f i DefaultTerm.obj
 0001:00053090       ?addsize@?$MArray@PEAVCBackgroundInfo@@@@QEAAX_J@Z 0000000140054090 f i Background.obj
 0001:00053090       ?addsize@?$MArray@UtagPROCESSENTRY32W@@@@QEAAX_J@Z 0000000140054090 f i RealConsole.obj
 0001:00053090       ?addsize@?$MArray@UCmdTaskPopupItem@CConEmuMenu@@@@QEAAX_J@Z 0000000140054090 f i Menu.obj
 0001:00053090       ?addsize@?$MArray@URunQueueItem@CRunQueue@@@@QEAAX_J@Z 0000000140054090 f i RunQueue.obj
 0001:00053090       ?addsize@?$MArray@UConProcess@@@@QEAAX_J@Z 0000000140054090 f i RealConsole.obj
 0001:00053090       ?addsize@?$MArray@PEAX@@QEAAX_J@Z 0000000140054090 f i DefaultTerm.obj
 0001:00053090       ?addsize@?$MArray@UDragData@CDataObject@@@@QEAAX_J@Z 0000000140054090 f i BaseDragDrops.obj
 0001:00053090       ?addsize@?$MArray@PEAVCVConGuard@@@@QEAAX_J@Z 0000000140054090 f i VConGroup.obj
 0001:00053090       ?addsize@?$MArray@Utxt@CHtmlCopy@@@@QEAAX_J@Z 0000000140054090 f i RealBuffer.obj
 0001:00053090       ?addsize@?$MArray@PEAVCustomFont@@@@QEAAX_J@Z 0000000140054090 f i CustomFonts.obj
 0001:00053090       ?addsize@?$MArray@PEAUHWND__@@@@QEAAX_J@Z 0000000140054090 f i ConEmu.obj
 0001:00053090       ?addsize@?$MArray@PEA_W@@QEAAX_J@Z 0000000140054090 f i OptionsClass.obj
 0001:00053090       ?addsize@?$MArray@Utag_FAR_WND_ID@TabBarClass@@@@QEAAX_J@Z 0000000140054090 f i TabBar.obj
 0001:00053090       ?addsize@?$MArray@UTabIconCache@CIconList@@@@QEAAX_J@Z 0000000140054090 f i IconList.obj
 0001:00053090       ?addsize@?$MArray@U_ThInfo@CDragDrop@@@@QEAAX_J@Z 0000000140054090 f i DragDrop.obj
 0001:00053090       ?addsize@?$MArray@Utag_RegFont@CSettings@@@@QEAAX_J@Z 0000000140054090 f i OptionsClass.obj
 0001:00053090       ?addsize@?$MArray@U_FindAllMonitorsItem@@@@QEAAX_J@Z 0000000140054090 f i Monitors.obj
 0001:00053150       ?OnMenuSelected_NewCon@CConEmuMenu@@AEAA_NPEAUHMENU__@@GG@Z 0000000140054150 f   Menu.obj
 0001:00053340       ?OnMenuSelected@CConEmuMenu@@QEAA_NPEAUHMENU__@@GG@Z 0000000140054340 f   Menu.obj
 0001:000533d0       ?push_back@?$MArray@UCmdTaskPopupItem@CConEmuMenu@@@@QEAA_JAEBUCmdTaskPopupItem@CConEmuMenu@@@Z 00000001400543d0 f i Menu.obj
 0001:00053450       ??$wcscat_c@$0CE@@@YAHAEAY0CE@_WPEB_W@Z 0000000140054450 f i Menu.obj
 0001:00053510       ??0CConEmuMenu@@QEAA@XZ    0000000140054510 f   Menu.obj
 0001:00053660       ??1CConEmuMenu@@QEAA@XZ    0000000140054660 f   Menu.obj
 0001:00053700       ?SetMenuName@CmdTaskPopupItem@CConEmuMenu@@SAXPEA_W_JPEB_W_N32@Z 0000000140054700 f   Menu.obj
 0001:000539b0       ?CreateVConListPopupMenu@CConEmuMenu@@QEAAPEAUHMENU__@@PEAU2@H@Z 00000001400549b0 f   Menu.obj
 0001:00053e80       ?MenuAccel@CConEmuMenu@@AEAAPEB_WHPEB_W@Z 0000000140054e80 f   Menu.obj
 0001:00053fa0       ?CreateDebugMenuPopup@CConEmuMenu@@QEAAPEAUHMENU__@@XZ 0000000140054fa0 f   Menu.obj
 0001:00054130       ?CreateVConPopupMenu@CConEmuMenu@@QEAAPEAUHMENU__@@PEAVCVirtualConsole@@PEAU2@HAEAPEAU2@@Z 0000000140055130 f   Menu.obj
 0001:00054870       ?CreateEditMenuPopup@CConEmuMenu@@QEAAPEAUHMENU__@@PEAVCVirtualConsole@@PEAU2@@Z 0000000140055870 f   Menu.obj
 0001:00054bf0       ?CreateHelpMenuPopup@CConEmuMenu@@QEAAPEAUHMENU__@@XZ 0000000140055bf0 f   Menu.obj
 0001:00054d90       ?OnNewConPopupMenu@CConEmuMenu@@QEAAXPEAUtagPOINT@@K_N@Z 0000000140055d90 f   Menu.obj
 0001:00055a20       ?ShowPopupMenu@CConEmuMenu@@QEAAXPEAVCVirtualConsole@@UtagPOINT@@K@Z 0000000140056a20 f   Menu.obj
 0001:00055bb0       ?UpdateSysMenu@CConEmuMenu@@AEAAXPEAUHMENU__@@@Z 0000000140056bb0 f   Menu.obj
 0001:00055ff0       ?FillTaskPopup@CConEmuMenu@@AEAAHPEAUHMENU__@@PEAUCmdTaskPopupItem@1@@Z 0000000140056ff0 f   Menu.obj
 0001:00056330       ?OnInitMenuPopup@CConEmuMenu@@QEAA_JPEAUHWND__@@PEAUHMENU__@@_J@Z 0000000140057330 f   Menu.obj
 0001:00056630       ?OnNewConPopupMenuRClick@CConEmuMenu@@AEAAXPEAUHMENU__@@I@Z 0000000140057630 f   Menu.obj
 0001:00056a80       ?OnMenuRClick@CConEmuMenu@@QEAAXPEAUHMENU__@@I@Z 0000000140057a80 f   Menu.obj
 0001:00056aa0       ?GetSysMenu@CConEmuMenu@@QEAAPEAUHMENU__@@H@Z 0000000140057aa0 f   Menu.obj
 0001:00056b60       ?ShowSysmenu@CConEmuMenu@@QEAAXHH_N@Z 0000000140057b60 f   Menu.obj
 0001:00057030       ?OnNcIconLClick@CConEmuMenu@@QEAAXXZ 0000000140058030 f   Menu.obj
 0001:000570d0       ?HeapInitialize@@YA_NXZ    00000001400580d0 f   Memory.obj
 0001:00057110       ??_U@YAPEAX_K@Z            0000000140058110 f   Memory.obj
 0001:00057110       ??2@YAPEAX_K@Z             0000000140058110 f   Memory.obj
 0001:00057110       ?xf_malloc@@YAPEAX_K@Z     0000000140058110 f   Memory.obj
 0001:00057130       ?xf_calloc@@YAPEAX_K0@Z    0000000140058130 f   Memory.obj
 0001:00057150       ?xf_realloc@@YAPEAXPEAX_K@Z 0000000140058150 f   Memory.obj
 0001:00057170       ?xf_free@@YAXPEAX@Z        0000000140058170 f   Memory.obj
 0001:00057170       ??3@YAXPEAX@Z              0000000140058170 f   Memory.obj
 0001:00057170       ??_V@YAXPEAX@Z             0000000140058170 f   Memory.obj
 0001:000571a0       ?lstrdupW@@YAPEA_WPEBDI@Z  00000001400581a0 f   Memory.obj
 0001:00057230       ?lstrdup@@YAPEA_WPEB_W@Z   0000000140058230 f   Memory.obj
 0001:000572c0       ?lstrmerge@@YAPEA_WPEB_W000@Z 00000001400582c0 f   Memory.obj
 0001:000573f0       ?lstrmerge@@YA_NPEAPEA_WPEB_W11@Z 00000001400583f0 f   Memory.obj
 0001:00057450       ?FindPrimaryMonitor@@YAHPEAUHMONITOR__@@PEAUHDC__@@PEAUtagRECT@@_J@Z 0000000140058450 f   Monitors.obj
 0001:000574e0       ?GetPrimaryMonitorInfo@@YAPEAUHMONITOR__@@PEAUtagMONITORINFO@@@Z 00000001400584e0 f   Monitors.obj
 0001:000575a0       ?GetNearestMonitorInfo@@YAPEAUHMONITOR__@@PEAUtagMONITORINFO@@PEAU1@PEBUtagRECT@@PEAUHWND__@@@Z 00000001400585a0 f   Monitors.obj
 0001:000576a0       ?MonitorSortCallback@@YAHAEAU_FindAllMonitorsItem@@0@Z 00000001400586a0 f   Monitors.obj
 0001:000576d0       ?sort@?$MArray@U_FindAllMonitorsItem@@@@QEAAXP6AHAEAU_FindAllMonitorsItem@@0@Z@Z 00000001400586d0 f i Monitors.obj
 0001:00057800       ?GetMonitorInfoSafe@@YA_NPEAUHMONITOR__@@AEAUtagMONITORINFO@@@Z 0000000140058800 f   Monitors.obj
 0001:00057850       ?EnumAllMonitors@@YAHPEAUHMONITOR__@@PEAUHDC__@@PEAUtagRECT@@_J@Z 0000000140058850 f   Monitors.obj
 0001:00057900       ?GetNextMonitorInfo@@YAPEAUHMONITOR__@@PEAUtagMONITORINFO@@PEBUtagRECT@@_N@Z 0000000140058900 f   Monitors.obj
 0001:00057b00       ?LoadAdvApi@MNullDesc@@IEAAHXZ 0000000140058b00 f i MSecurity.obj
 0001:00057c80       ?LocalSecurity@MNullDesc@@QEAAPEAU_SECURITY_ATTRIBUTES@@XZ 0000000140058c80 f i MSecurity.obj
 0001:00057e40       ?LocalSecurity@@YAPEAU_SECURITY_ATTRIBUTES@@XZ 0000000140058e40 f   MSecurity.obj
 0001:00057ec0       ?ShutdownSecurity@@YAXXZ   0000000140058ec0 f   MSecurity.obj
 0001:00057f30       ?msprintf@@YAPEB_WPEA_W_KPEB_WZZ 0000000140058f30 f   MStrSafe.obj
 0001:00058370       ?lstrcmpni@@YAHPEB_W0H@Z   0000000140059370 f   MStrSafe.obj
 0001:000583f0       ?AsString@CESize@@QEAAPEB_WXZ 00000001400593f0 f i Options.obj
 0001:00058460       ?FreePtr@CommandTasks@Settings@@QEAAXXZ 0000000140059460 f i Options.obj
 0001:000584d0       ?ResetSavedOnExit@Settings@@QEAAXXZ 00000001400594d0 f   Options.obj
 0001:000584e0       ?isTransparentAllowed@Settings@@QEAA_NXZ 00000001400594e0 f   Options.obj
 0001:00058520       ?isIntegralSize@Settings@@QEAA_NXZ 0000000140059520 f   Options.obj
 0001:00058550       ?FreeApps@Settings@@AEAAXHPEAPEAUAppSettings@1@@Z 0000000140059550 f   Options.obj
 0001:00058610       ?LoadCursorSettings@Settings@@AEAAXPEAUSettingsBase@@PEATCECursorType@@1@Z 0000000140059610 f   Options.obj
 0001:00058990       ?FreeCmdTasks@Settings@@IEAAXXZ 0000000140059990 f   Options.obj
 0001:00058ad0       ?SortPalettes@Settings@@IEAAXXZ 0000000140059ad0 f   Options.obj
 0001:00058c10       ?FreePalettes@Settings@@IEAAXXZ 0000000140059c10 f   Options.obj
 0001:00058ce0       ?CreatePredefinedPalettes@Settings@@QEAAXH@Z 0000000140059ce0 f   Options.obj
 0001:00058ed0       ?PaletteGetPtr@Settings@@IEAAPEAUColorPalette@1@H@Z 0000000140059ed0 f   Options.obj
 0001:00058fa0       ?PaletteGetIndex@Settings@@QEAAHPEB_W@Z 0000000140059fa0 f   Options.obj
 0001:00059050       ?FreeProgresses@Settings@@IEAAXXZ 000000014005a050 f   Options.obj
 0001:00059100       ?StatusBarFontHeight@Settings@@QEAAHXZ 000000014005a100 f   Options.obj
 0001:00059120       ?StatusBarHeight@Settings@@QEAAHXZ 000000014005a120 f   Options.obj
 0001:00059160       ?isKeyboardHooks@Settings@@QEAA_N_N@Z 000000014005a160 f   Options.obj
 0001:00059190       ?HistoryCheck@Settings@@QEAAXXZ 000000014005a190 f   Options.obj
 0001:00059220       ?HistoryGet@Settings@@QEAAPEB_WXZ 000000014005a220 f   Options.obj
 0001:00059240       ?ParseCharRanges@Settings@@QEAAHPEB_WAEAY0BAAAA@EE@Z 000000014005a240 f   Options.obj
 0001:000593a0       ?CreateCharRanges@Settings@@QEAAPEA_WAEAY0BAAAA@E@Z 000000014005a3a0 f   Options.obj
 0001:000594a0       ?isCharBorder@Settings@@QEAA_N_W@Z 000000014005a4a0 f   Options.obj
 0001:000594b0       ?CheckConsoleSettings@Settings@@QEAAXXZ 000000014005a4b0 f   Options.obj
 0001:00059640       ?SetHideCaptionAlways@Settings@@QEAAX_N@Z 000000014005a640 f   Options.obj
 0001:00059650       ?SwitchHideCaptionAlways@Settings@@QEAAXXZ 000000014005a650 f   Options.obj
 0001:00059670       ?isHideCaptionAlways@Settings@@QEAA_NXZ 000000014005a670 f   Options.obj
 0001:000596b0       ?isForcedHideCaptionAlways@Settings@@QEAA_NXZ 000000014005a6b0 f   Options.obj
 0001:000596d0       ?isMinimizeOnLoseFocus@Settings@@QEAA_NXZ 000000014005a6d0 f   Options.obj
 0001:000596f0       ?isMinToTray@Settings@@QEAA_N_N@Z 000000014005a6f0 f   Options.obj
 0001:00059710       ?SetMinToTray@Settings@@QEAAX_N@Z 000000014005a710 f   Options.obj
 0001:00059750       ?isCaptionHidden@Settings@@QEAA_NW4ConEmuWindowMode@@@Z 000000014005a750 f   Options.obj
 0001:000597b0       ?isFrameHidden@Settings@@QEAA_NXZ 000000014005a7b0 f   Options.obj
 0001:00059800       ?GetAppSettingsId@Settings@@QEAAHPEB_W_N@Z 000000014005a800 f   Options.obj
 0001:000599b0       ?GetAppSettings@Settings@@QEAAPEBUAppSettings@1@H@Z 000000014005a9b0 f   Options.obj
 0001:00059a00       ?GetAppSettingsPtr@Settings@@IEAAPEAUAppSettings@1@HH@Z 000000014005aa00 f   Options.obj
 0001:00059b50       ?AppSettingsDelete@Settings@@IEAAXH@Z 000000014005ab50 f   Options.obj
 0001:00059c10       ?AppSettingsXch@Settings@@IEAA_NHH@Z 000000014005ac10 f   Options.obj
 0001:00059c60       ?ResetFadeColors@Settings@@QEAAXXZ 000000014005ac60 f   Options.obj
 0001:00059cc0       ?isTabsOnTaskBar@Settings@@QEAA_NXZ 000000014005acc0 f   Options.obj
 0001:00059d10       ?isWindowOnTaskBar@Settings@@QEAA_N_N@Z 000000014005ad10 f   Options.obj
 0001:00059d60       ?isRClickTouchInvert@Settings@@QEAA_NXZ 000000014005ad60 f   Options.obj
 0001:00059da0       ?RClickMacroDefault@Settings@@QEAAPEB_WW4FarMacroVersion@@@Z 000000014005ada0 f   Options.obj
 0001:00059dc0       ?SafeFarCloseMacroDefault@Settings@@QEAAPEB_WW4FarMacroVersion@@@Z 000000014005adc0 f   Options.obj
 0001:00059de0       ?TabCloseMacroDefault@Settings@@QEAAPEB_WW4FarMacroVersion@@@Z 000000014005ade0 f   Options.obj
 0001:00059e00       ?SaveAllMacroDefault@Settings@@QEAAPEB_WW4FarMacroVersion@@@Z 000000014005ae00 f   Options.obj
 0001:00059e20       ?CmdTaskGet@Settings@@QEAAPEBUCommandTasks@1@H@Z 000000014005ae20 f   Options.obj
 0001:00059ee0       ?CmdTaskSetVkMod@Settings@@QEAAXHK@Z 000000014005aee0 f   Options.obj
 0001:00059f10       ?CmdTaskXch@Settings@@QEAA_NHH@Z 000000014005af10 f   Options.obj
 0001:00059f60       ?GetDefaultTerminalAppsMSZ@Settings@@QEAAPEB_WXZ 000000014005af60 f   Options.obj
 0001:00059f70       ?GetDefaultTerminalApps@Settings@@QEAAPEA_WXZ 000000014005af70 f   Options.obj
 0001:0005a090       ?SetDefaultTerminalApps@Settings@@QEAAXPEB_W@Z 000000014005b090 f   Options.obj
 0001:0005a210       ?GetHotkeyById@Settings@@QEAAKHPEAPEBUConEmuHotKey@@@Z 000000014005b210 f   Options.obj
 0001:0005a2b0       ?IsHotkey@Settings@@QEAA_NH@Z 000000014005b2b0 f   Options.obj
 0001:0005a350       ?isModifierExist@Settings@@QEAA_NE_N@Z 000000014005b350 f   Options.obj
 0001:0005a410       ?CheckHotkeyUnique@Settings@@QEAAXXZ 000000014005b410 f   Options.obj
 0001:0005a6e0       ?SetGuiArg@CommandTasks@Settings@@QEAAXPEB_W@Z 000000014005b6e0 f i Options.obj
 0001:0005a770       ?SetCommands@CommandTasks@Settings@@QEAAXPEB_W@Z 000000014005b770 f i Options.obj
 0001:0005a800       ??0Settings@@QEAA@XZ       000000014005b800 f   Options.obj
 0001:0005a830       ?ReleasePointers@Settings@@IEAAXXZ 000000014005b830 f   Options.obj
 0001:0005a9b0       ??1Settings@@QEAA@XZ       000000014005b9b0 f   Options.obj
 0001:0005a9e0       ?SaveCmdTask@Settings@@IEAA_NPEAUSettingsBase@@PEAUCommandTasks@1@@Z 000000014005b9e0 f   Options.obj
 0001:0005ac40       ?PaletteGet@Settings@@QEAAPEBUColorPalette@1@H@Z 000000014005bc40 f   Options.obj
 0001:0005ac50       ?SetPaletteName@AppSettings@Settings@@QEAAXPEB_W@Z 000000014005bc50 f   Options.obj
 0001:0005ac70       ?PaletteSetActive@Settings@@QEAAHPEB_W@Z 000000014005bc70 f   Options.obj
 0001:0005ad20       ?SaveAppSettings@Settings@@AEAAXPEAUSettingsBase@@PEAUAppSettings@1@@Z 000000014005bd20 f   Options.obj
 0001:0005b2e0       ?SaveStatusSettings@Settings@@IEAAXPEAUSettingsBase@@@Z 000000014005c2e0 f   Options.obj
 0001:0005b500       ?CreateSettings@Settings@@QEAAPEAUSettingsBase@@PEBUSettingsStorage@@@Z 000000014005c500 f   Options.obj
 0001:0005b710       ?GetFadeColor@Settings@@QEAAKK@Z 000000014005c710 f   Options.obj
 0001:0005b830       ?IsModifierPressed@Settings@@QEAA_NH_N@Z 000000014005c830 f   Options.obj
 0001:0005b980       ?NeedCreateAppWindow@Settings@@QEAA_NXZ 000000014005c980 f   Options.obj
 0001:0005b9c0       ?RClickMacro@Settings@@QEAAPEB_WW4FarMacroVersion@@@Z 000000014005c9c0 f   Options.obj
 0001:0005ba30       ?SafeFarCloseMacro@Settings@@QEAAPEB_WW4FarMacroVersion@@@Z 000000014005ca30 f   Options.obj
 0001:0005baa0       ?TabCloseMacro@Settings@@QEAAPEB_WW4FarMacroVersion@@@Z 000000014005caa0 f   Options.obj
 0001:0005bb10       ?SaveAllMacro@Settings@@QEAAPEB_WW4FarMacroVersion@@@Z 000000014005cb10 f   Options.obj
 0001:0005bb80       ?SetHotkeyById@Settings@@QEAAXHK@Z 000000014005cb80 f   Options.obj
 0001:0005bc00       ??$wcscat_c@$0BCC@@@YAHAEAY0BCC@_WPEB_W@Z 000000014005cc00 f i Options.obj
 0001:0005bcc0       ??$wcscat_c@$0FA@@@YAHAEAY0FA@_WPEB_W@Z 000000014005ccc0 f i Options.obj
 0001:0005bd80       ?SetName@CommandTasks@Settings@@QEAAXPEB_WH@Z 000000014005cd80 f i Options.obj
 0001:0005bee0       ?InitSettings@Settings@@QEAAXXZ 000000014005cee0 f   Options.obj
 0001:0005ced0       ?LoadAppSettings@Settings@@AEAAXPEAUSettingsBase@@PEAUAppSettings@1@@Z 000000014005ded0 f   Options.obj
 0001:0005d4f0       ?LoadCmdTask@Settings@@IEAA_NPEAUSettingsBase@@AEAPEAUCommandTasks@1@H@Z 000000014005e4f0 f   Options.obj
 0001:0005d8a0       ?SaveCmdTasks@Settings@@QEAA_NPEAUSettingsBase@@@Z 000000014005e8a0 f   Options.obj
 0001:0005db20       ?LoadPalettes@Settings@@QEAAXPEAUSettingsBase@@@Z 000000014005eb20 f   Options.obj
 0001:0005e020       ?SavePalettes@Settings@@IEAAXPEAUSettingsBase@@@Z 000000014005f020 f   Options.obj
 0001:0005e680       ?PaletteSetStdIndexes@Settings@@QEAAXXZ 000000014005f680 f   Options.obj
 0001:0005e770       ?PaletteSaveAs@Settings@@QEAAXPEB_W@Z 000000014005f770 f   Options.obj
 0001:0005ea40       ?PaletteDelete@Settings@@QEAAXPEB_W@Z 000000014005fa40 f   Options.obj
 0001:0005eb10       ?SaveSettingsOnExit@Settings@@QEAAXXZ 000000014005fb10 f   Options.obj
 0001:0005f120       ?SaveConsoleFont@Settings@@QEAAXXZ 0000000140060120 f   Options.obj
 0001:0005f240       ?SaveFindOptions@Settings@@QEAAXPEAUSettingsBase@@@Z 0000000140060240 f   Options.obj
 0001:0005f3a0       ?SaveAppSettings@Settings@@QEAAXPEAUSettingsBase@@@Z 00000001400603a0 f   Options.obj
 0001:0005f620       ?isUseClink@Settings@@QEAAK_N@Z 0000000140060620 f   Options.obj
 0001:0005f8c0       ?HistoryReset@Settings@@QEAAXXZ 00000001400608c0 f   Options.obj
 0001:0005f9b0       ?HistoryAdd@Settings@@QEAAXPEB_W@Z 00000001400609b0 f   Options.obj
 0001:0005fc70       ?GetSettingsType@Settings@@QEAAXAEAUSettingsStorage@@AEA_N@Z 0000000140060c70 f   Options.obj
 0001:0005fdd0       ?GetColorsPrepare@Settings@@IEAAPEAKPEAK0PEA_NH@Z 0000000140060dd0 f   Options.obj
 0001:0005feb0       ?CmdTaskSet@Settings@@QEAAXHPEB_W00@Z 0000000140060eb0 f   Options.obj
 0001:00060080       ?LoadHotkeys@Settings@@AEAAXPEAUSettingsBase@@@Z 0000000140061080 f   Options.obj
 0001:000603a0       ?SaveHotkeys@Settings@@AEAAXPEAUSettingsBase@@@Z 00000001400613a0 f   Options.obj
 0001:00060640       ?LoadAppSettings@Settings@@AEAAXPEAUSettingsBase@@_N@Z 0000000140061640 f   Options.obj
 0001:000609c0       ?LoadCmdTasks@Settings@@QEAAXPEAUSettingsBase@@_N@Z 00000001400619c0 f   Options.obj
 0001:00060cd0       ?LoadSettings@Settings@@QEAAXPEA_N@Z 0000000140061cd0 f   Options.obj
 0001:000647d0       ?SaveSettings@Settings@@QEAAHHPEBUSettingsStorage@@@Z 00000001400657d0 f   Options.obj
 0001:00067990       ?GetPaletteColors@Settings@@QEAAPEAKPEB_WH@Z 0000000140068990 f   Options.obj
 0001:00067a20       ?GetColors@Settings@@QEAAPEAKHH@Z 0000000140068a20 f   Options.obj
 0001:00067ac0       ?SetFromString@CESize@@QEAA_N_NPEB_W@Z 0000000140068ac0 f i OptionsClass.obj
 0001:00067b70       ?Delete@CEFONT@@QEAAHXZ    0000000140068b70 f i OptionsClass.obj
 0001:00067bd0       ?UpdateDpi@CSettings@@IEAAHXZ 0000000140068bd0 f   OptionsClass.obj
 0001:00067c40       ?ReleaseHotkeys@CSettings@@AEAAXXZ 0000000140068c40 f   OptionsClass.obj
 0001:00067d10       ?GetHotKeyPtr@CSettings@@QEAAPEBUConEmuHotKey@@H@Z 0000000140068d10 f   OptionsClass.obj
 0001:00067d70       ?GetHotKeyInfo@CSettings@@QEAAPEBUConEmuHotKey@@K_NPEAVCRealConsole@@@Z 0000000140068d70 f   OptionsClass.obj
 0001:000680a0       ?HasSingleWinHotkey@CSettings@@QEAA_NXZ 00000001400690a0 f   OptionsClass.obj
 0001:00068160       ?UpdateWinHookSettings@CSettings@@QEAAXPEAUHINSTANCE__@@@Z 0000000140069160 f   OptionsClass.obj
 0001:000684d0       ?InitVars_Pages@CSettings@@AEAAXXZ 00000001400694d0 f   OptionsClass.obj
 0001:000691a0       ?GetConfigPath@CSettings@@QEAAPEB_WXZ 000000014006a1a0 f   OptionsClass.obj
 0001:000691b0       ?GetConfigName@CSettings@@QEAAPEB_WXZ 000000014006a1b0 f   OptionsClass.obj
 0001:000691c0       ?SettingsPreSave@CSettings@@QEAAXXZ 000000014006a1c0 f   OptionsClass.obj
 0001:00069490       ?EnumFontCallBackEx@CSettings@@SAHPEAUtagENUMLOGFONTEXW@@PEAUtagNEWTEXTMETRICEXW@@K_J@Z 000000014006a490 f   OptionsClass.obj
 0001:000694f0       ?FillBgImageColors@CSettings@@AEAAXXZ 000000014006a4f0 f   OptionsClass.obj
 0001:00069600       ?HotkeysCompare@CSettings@@KAH_J00@Z 000000014006a600 f   OptionsClass.obj
 0001:000697b0       ?OnInitDialog_StatusItems@CSettings@@IEAAXPEAUHWND__@@@Z 000000014006a7b0 f   OptionsClass.obj
 0001:00069950       ?UpdateTextColorSettings@CSettings@@IEAAXHH@Z 000000014006a950 f   OptionsClass.obj
 0001:00069990       ?OnInitDialog_Apps@CSettings@@IEAA_JPEAUHWND__@@_N@Z 000000014006a990 f   OptionsClass.obj
 0001:00069a70       ?OnInitDialog_DefTerm@CSettings@@IEAA_JPEAUHWND__@@H@Z 000000014006aa70 f   OptionsClass.obj
 0001:00069d80       ?DeleteRegKeyRecursive@CSettings@@AEAA_NPEAUHKEY__@@PEB_W1@Z 000000014006ad80 f   OptionsClass.obj
 0001:00069f10       ?OnEditChanged_Cursor@CSettings@@IEAA_NPEAUHWND__@@_K_JPEAUAppSettings@Settings@@@Z 000000014006af10 f   OptionsClass.obj
 0001:0006a040       ?OnPage@CSettings@@IEAA_JPEAUtagNMHDR@@@Z 000000014006b040 f   OptionsClass.obj
 0001:0006a4a0       ?Dialog@CSettings@@SAXH@Z  000000014006b4a0 f   OptionsClass.obj
 0001:0006a610       ?OnClose@CSettings@@QEAAXXZ 000000014006b610 f   OptionsClass.obj
 0001:0006a6c0       ?ProcessTipHelp@CSettings@@AEAA_JPEAUHWND__@@I_K_J@Z 000000014006b6c0 f   OptionsClass.obj
 0001:0006a780       ?OnMeasureFontItem@CSettings@@IEAA_JPEAUHWND__@@I_K_J@Z 000000014006b780 f   OptionsClass.obj
 0001:0006a7f0       ?OnDrawFontItem@CSettings@@IEAA_JPEAUHWND__@@I_K_J@Z 000000014006b7f0 f   OptionsClass.obj
 0001:0006aa40       ?debugLogCommand@CSettings@@QEAAXPEAUCESERVER_REQ@@HKKPEB_W0@Z 000000014006ba40 f   OptionsClass.obj
 0001:0006ac50       ?OnSaveActivityLogFile@CSettings@@IEAAXPEAUHWND__@@@Z 000000014006bc50 f   OptionsClass.obj
 0001:0006aff0       ?UpdatePosSizeEnabled@CSettings@@QEAAXPEAUHWND__@@@Z 000000014006bff0 f   OptionsClass.obj
 0001:0006b100       ?UpdatePos@CSettings@@QEAAXHH_N@Z 000000014006c100 f   OptionsClass.obj
 0001:0006b310       ?UpdateFontInfo@CSettings@@QEAAXXZ 000000014006c310 f   OptionsClass.obj
 0001:0006b3b0       ?BalloonStyle@CSettings@@QEAAKXZ 000000014006c3b0 f   OptionsClass.obj
 0001:0006b440       ?RegisterTipsFor@CSettings@@AEAAXPEAUHWND__@@@Z 000000014006c440 f   OptionsClass.obj
 0001:0006b910       ?IsAlmostMonospace@CSettings@@CA_NPEB_WHHH@Z 000000014006c910 f   OptionsClass.obj
 0001:0006b990       ?LoadOutline@CSettings@@AEAAPEAU_OUTLINETEXTMETRICW@@PEAUHDC__@@PEAUHFONT__@@@Z 000000014006c990 f   OptionsClass.obj
 0001:0006baa0       ?checkDlgButton@CSettings@@SAHPEAUHWND__@@GI@Z 000000014006caa0 f   OptionsClass.obj
 0001:0006bab0       ?IsChecked@CSettings@@SAHPEAUHWND__@@G@Z 000000014006cab0 f   OptionsClass.obj
 0001:0006baf0       ?GetNumber@CSettings@@SAHPEAUHWND__@@G@Z 000000014006caf0 f   OptionsClass.obj
 0001:0006bb90       ?SelectStringExact@CSettings@@SAHPEAUHWND__@@GPEB_W@Z 000000014006cb90 f   OptionsClass.obj
 0001:0006bd00       ?SetCurCmd@CSettings@@QEAAXAEAPEA_W_N@Z 000000014006cd00 f   OptionsClass.obj
 0001:0006bd60       ?GetCurCmd@CSettings@@QEAAPEB_WPEA_N@Z 000000014006cd60 f   OptionsClass.obj
 0001:0006bd90       ?GetDefaultCmd@CSettings@@QEAAPEB_WXZ 000000014006cd90 f   OptionsClass.obj
 0001:0006bda0       ?IsSingleInstanceArg@CSettings@@QEAA_NXZ 000000014006cda0 f   OptionsClass.obj
 0001:0006bdd0       ?ResetCmdArg@CSettings@@QEAAXXZ 000000014006cdd0 f   OptionsClass.obj
 0001:0006be20       ?ResetCmdHistory@CSettings@@QEAA_NPEAUHWND__@@@Z 000000014006ce20 f   OptionsClass.obj
 0001:0006be80       ?GetMainLogFont@CSettings@@QEAAXAEAUtagLOGFONTW@@@Z 000000014006ce80 f   OptionsClass.obj
 0001:0006bea0       ?FontFaceName@CSettings@@QEAAPEB_WXZ 000000014006cea0 f   OptionsClass.obj
 0001:0006beb0       ?FontWidth@CSettings@@QEAAJXZ 000000014006ceb0 f   OptionsClass.obj
 0001:0006bed0       ?FontHeight@CSettings@@QEAAJXZ 000000014006ced0 f   OptionsClass.obj
 0001:0006bef0       ?FontHeightPx@CSettings@@QEAAJXZ 000000014006cef0 f   OptionsClass.obj
 0001:0006bf30       ?FontBold@CSettings@@QEAAHXZ 000000014006cf30 f   OptionsClass.obj
 0001:0006bf40       ?FontItalic@CSettings@@QEAAHXZ 000000014006cf40 f   OptionsClass.obj
 0001:0006bf50       ?FontQuality@CSettings@@QEAAEXZ 000000014006cf50 f   OptionsClass.obj
 0001:0006bf60       ?BorderFontFaceName@CSettings@@QEAAPEB_WXZ 000000014006cf60 f   OptionsClass.obj
 0001:0006bf70       ?BorderFontWidth@CSettings@@QEAAJXZ 000000014006cf70 f   OptionsClass.obj
 0001:0006bf80       ?FontCharSet@CSettings@@QEAAEXZ 000000014006cf80 f   OptionsClass.obj
 0001:0006bf90       ?RegisterTabs@CSettings@@AEAAXXZ 000000014006cf90 f   OptionsClass.obj
 0001:0006bff0       ?UnregisterTabs@CSettings@@AEAAXXZ 000000014006cff0 f   OptionsClass.obj
 0001:0006c050       ?UpdateConsoleMode@CSettings@@QEAAXK@Z 000000014006d050 f   OptionsClass.obj
 0001:0006c0c0       ?CheckTheming@CSettings@@QEAA_NXZ 000000014006d0c0 f   OptionsClass.obj
 0001:0006c190       ?GetColorById@CSettings@@AEAA_NGPEAK@Z 000000014006d190 f   OptionsClass.obj
 0001:0006c290       ?SetColorById@CSettings@@AEAA_NGK@Z 000000014006d290 f   OptionsClass.obj
 0001:0006c3f0       ?GetHotKeyListItems@CSettings@@SAIW4eFillListBoxHotKeys@1@PEAPEAUListBoxItem@1@@Z 000000014006d3f0 f   OptionsClass.obj
 0001:0006c450       ?SetHotkeyField@CSettings@@SAXPEAUHWND__@@E@Z 000000014006d450 f   OptionsClass.obj
 0001:0006c4b0       ?CenterMoreDlg@CSettings@@CAXPEAUHWND__@@@Z 000000014006d4b0 f   OptionsClass.obj
 0001:0006c560       ?OnPanelViewAppeared@CSettings@@QEAAXH@Z 000000014006d560 f   OptionsClass.obj
 0001:0006c5d0       ?IsBackgroundEnabled@CSettings@@QEAA_NPEAVCVirtualConsole@@@Z 000000014006d5d0 f   OptionsClass.obj
 0001:0006c710       ?GetBackgroundObject@CSettings@@QEAAPEAVCBackgroundInfo@@XZ 000000014006d710 f   OptionsClass.obj
 0001:0006c730       ?LoadBackgroundFile@CSettings@@QEAA_NPEA_W_N@Z 000000014006d730 f   OptionsClass.obj
 0001:0006c7b0       ?NeedBackgroundUpdate@CSettings@@QEAAXXZ 000000014006d7b0 f   OptionsClass.obj
 0001:0006c820       ?ShowErrorTip@CSettings@@CAXPEB_WPEAUHWND__@@HPEA_WH1PEAUtagTOOLINFOW@@1K_N@Z 000000014006d820 f   OptionsClass.obj
 0001:0006c990       ?CheckConsoleFontRegistry@CSettings@@KA_NPEB_W@Z 000000014006d990 f   OptionsClass.obj
 0001:0006cc90       ?ShowConFontErrorTip@CSettings@@KAXPEB_W@Z 000000014006dc90 f   OptionsClass.obj
 0001:0006cdc0       ?isDialogMessage@CSettings@@QEAA_NAEAUtagMSG@@@Z 000000014006ddc0 f   OptionsClass.obj
 0001:0006ce20       ?SetNames@AppSettings@Settings@@QEAAXPEB_W@Z 000000014006de20 f i OptionsClass.obj
 0001:0006cef0       ?EnumFamCallBack@CSettings@@SAHPEAUtagLOGFONTW@@PEAUtagNEWTEXTMETRICW@@KPEAX@Z 000000014006def0 f   OptionsClass.obj
 0001:0006d030       ?OnInitDialog_Show@CSettings@@IEAA_JPEAUHWND__@@_N@Z 000000014006e030 f   OptionsClass.obj
 0001:0006d460       ?OnInitDialog_Taskbar@CSettings@@IEAA_JPEAUHWND__@@_N@Z 000000014006e460 f   OptionsClass.obj
 0001:0006d7c0       ?InitCursorCtrls@CSettings@@IEAAXPEAUHWND__@@PEBUAppSettings@Settings@@@Z 000000014006e7c0 f   OptionsClass.obj
 0001:0006d970       ?OnInitDialog_Ext@CSettings@@IEAA_JPEAUHWND__@@@Z 000000014006e970 f   OptionsClass.obj
 0001:0006dbe0       ?CheckSelectionModifiers@CSettings@@IEAAXPEAUHWND__@@@Z 000000014006ebe0 f   OptionsClass.obj
 0001:0006df70       ?OnInitDialog_Far@CSettings@@IEAA_JPEAUHWND__@@H@Z 000000014006ef70 f   OptionsClass.obj
 0001:0006e310       ?OnInitDialog_FarMacro@CSettings@@IEAA_JPEAUHWND__@@H@Z 000000014006f310 f   OptionsClass.obj
 0001:0006e630       ?OnInitDialog_Control@CSettings@@IEAA_JPEAUHWND__@@H@Z 000000014006f630 f   OptionsClass.obj
 0001:0006e9b0       ?RegisterShell@CSettings@@AEAAXPEB_W0000@Z 000000014006f9b0 f   OptionsClass.obj
 0001:0006ee20       ?UnregisterShell@CSettings@@AEAAXPEB_W@Z 000000014006fe20 f   OptionsClass.obj
 0001:0006eed0       ?OnInitDialog_CopyFonts@CSettings@@IEAAXPEAUHWND__@@HZZ 000000014006fed0 f   OptionsClass.obj
 0001:0006f150       ?OnButtonClicked_Cursor@CSettings@@IEAA_JPEAUHWND__@@_K_JPEAUAppSettings@Settings@@@Z 0000000140070150 f   OptionsClass.obj
 0001:0006f470       ?pageOpProc_AppsChild@CSettings@@KA_JPEAUHWND__@@I_K_J@Z 0000000140070470 f   OptionsClass.obj
 0001:0006f690       ?debugLogShellText@CSettings@@QEAAXAEAPEA_WPEB_W@Z 0000000140070690 f   OptionsClass.obj
 0001:0006f900       ?OnActivityLogNotify@CSettings@@IEAA_JPEAUHWND__@@_K_J@Z 0000000140070900 f   OptionsClass.obj
 0001:0006fb70       ?UpdateWindowMode@CSettings@@QEAAXG@Z 0000000140070b70 f   OptionsClass.obj
 0001:0006fbf0       ?UpdateSize@CSettings@@QEAAXTCESize@@0@Z 0000000140070bf0 f   OptionsClass.obj
 0001:000701e0       ?UpdateTTF@CSettings@@QEAAXH@Z 00000001400711e0 f   OptionsClass.obj
 0001:00070250       ?ShowFontErrorTip@CSettings@@CAXPEB_W@Z 0000000140071250 f   OptionsClass.obj
 0001:000702c0       ?GetString@CSettings@@SA_JPEAUHWND__@@GPEAPEA_WPEB_W_N@Z 00000001400712c0 f   OptionsClass.obj
 0001:000704a0       ?GetSelectedString@CSettings@@SA_JPEAUHWND__@@GPEAPEA_W@Z 00000001400714a0 f   OptionsClass.obj
 0001:000705f0       ?IsMulti@CSettings@@QEAA_NXZ 00000001400715f0 f   OptionsClass.obj
 0001:00070630       ?SetSaveCmdHistory@CSettings@@QEAAX_N@Z 0000000140071630 f   OptionsClass.obj
 0001:000706d0       ?UnregisterFonts@CSettings@@QEAAXXZ 00000001400716d0 f   OptionsClass.obj
 0001:000707d0       ?ColorSetEdit@CSettings@@AEAAXPEAUHWND__@@G@Z 00000001400717d0 f   OptionsClass.obj
 0001:00070890       ?ColorEditDialog@CSettings@@AEAA_NPEAUHWND__@@G@Z 0000000140071890 f   OptionsClass.obj
 0001:000709f0       ?ColorCtlStatic@CSettings@@AEAA_JPEAUHWND__@@G0@Z 00000001400719f0 f   OptionsClass.obj
 0001:00070b80       ?FillListBoxHotKeys@CSettings@@SAXPEAUHWND__@@W4eFillListBoxHotKeys@1@AEAE@Z 0000000140071b80 f   OptionsClass.obj
 0001:00070c80       ?GetListBoxHotKey@CSettings@@SAXPEAUHWND__@@W4eFillListBoxHotKeys@1@AEAE@Z 0000000140071c80 f   OptionsClass.obj
 0001:00070d40       ?SetBgImageDarker@CSettings@@QEAAXE_N@Z 0000000140071d40 f   OptionsClass.obj
 0001:00070e30       ??1?$MArray@PEA_W@@QEAA@XZ 0000000140071e30 f i OptionsClass.obj
 0001:00070e30       ??1?$MArray@Utag_FAR_WND_ID@TabBarClass@@@@QEAA@XZ 0000000140071e30 f i TabBar.obj
 0001:00070e30       ??1?$MArray@UGuiMacroArg@@@@QEAA@XZ 0000000140071e30 f i Macro.obj
 0001:00070e30       ??1?$MArray@PEAUHWND__@@@@QEAA@XZ 0000000140071e30 f i ConEmu.obj
 0001:00070e30       ??1?$MArray@UCmdTaskPopupItem@CConEmuMenu@@@@QEAA@XZ 0000000140071e30 f i Menu.obj
 0001:00070e30       ??1?$MArray@Utag_RegFont@CSettings@@@@QEAA@XZ 0000000140071e30 f i OptionsClass.obj
 0001:00070e30       ??1?$MArray@PEAUtag_CEDragSource@CDragDropData@@@@QEAA@XZ 0000000140071e30 f i DragDropData.obj
 0001:00070e30       ??1_FindAllMonitors@@QEAA@XZ 0000000140071e30 f i Monitors.obj
 0001:00070e30       ??1?$MArray@UDragData@CDataObject@@@@QEAA@XZ 0000000140071e30 f i BaseDragDrops.obj
 0001:00070e30       ??1?$MArray@UTabIconCache@CIconList@@@@QEAA@XZ 0000000140071e30 f i IconList.obj
 0001:00070e30       ??1?$MArray@UtagPROCESSENTRY32W@@@@QEAA@XZ 0000000140071e30 f i RealConsole.obj
 0001:00070e30       ??1?$MArray@PEAVCVConGuard@@@@QEAA@XZ 0000000140071e30 f i VConGroup.obj
 0001:00070e30       ??1?$MArray@UConProcess@@@@QEAA@XZ 0000000140071e30 f i RealConsole.obj
 0001:00070e30       ??1?$MArray@Utxt@CHtmlCopy@@@@QEAA@XZ 0000000140071e30 f i RealBuffer.obj
 0001:00070e30       ??1?$MArray@U_ThInfo@CDragDrop@@@@QEAA@XZ 0000000140071e30 f i DragDrop.obj
 0001:00070e30       ??1?$MArray@UProcessInfo@CDefaultTerminal@@@@QEAA@XZ 0000000140071e30 f i DefaultTerm.obj
 0001:00070e70       ??$wcscat_c@$0BIE@@@YAHAEAY0BIE@_WPEB_W@Z 0000000140071e70 f i OptionsClass.obj
 0001:00070f30       ??$wcscpy_c@$03@@YAHAEAY03_WPEB_W@Z 0000000140071f30 f i OptionsClass.obj
 0001:00070f90       ?SetConfigName@CSettings@@QEAAXPEB_W@Z 0000000140071f90 f   OptionsClass.obj
 0001:000710d0       ?EnumFontsThread@CSettings@@CAKPEAX@Z 00000001400720d0 f   OptionsClass.obj
 0001:000714b0       ?SearchForControls@CSettings@@IEAAXXZ 00000001400724b0 f   OptionsClass.obj
 0001:00071c30       ?OnInitDialog@CSettings@@IEAA_JXZ 0000000140072c30 f   OptionsClass.obj
 0001:00072400       ?OnInitDialog_Main@CSettings@@IEAA_JPEAUHWND__@@@Z 0000000140073400 f   OptionsClass.obj
 0001:00072c10       ?OnInitDialog_WndPosSize@CSettings@@IEAA_JPEAUHWND__@@_N@Z 0000000140073c10 f   OptionsClass.obj
 0001:00073060       ?pageOpProc_Start@CSettings@@IEAA_JPEAUHWND__@@I_K_J@Z 0000000140074060 f   OptionsClass.obj
 0001:00073830       ?OnInitDialog_Selection@CSettings@@IEAA_JPEAUHWND__@@@Z 0000000140074830 f   OptionsClass.obj
 0001:00073f60       ?FillHotKeysList@CSettings@@IEAAXPEAUHWND__@@H@Z 0000000140074f60 f   OptionsClass.obj
 0001:00074720       ?OnHotkeysNotify@CSettings@@IEAA_JPEAUHWND__@@_K_J@Z 0000000140075720 f   OptionsClass.obj
 0001:00074df0       ?OnInitDialog_Keys@CSettings@@IEAA_JPEAUHWND__@@H@Z 0000000140075df0 f   OptionsClass.obj
 0001:000751b0       ?OnInitDialog_Tabs@CSettings@@IEAA_JPEAUHWND__@@@Z 00000001400761b0 f   OptionsClass.obj
 0001:00075650       ?OnInitDialog_Status@CSettings@@IEAA_JPEAUHWND__@@_N@Z 0000000140076650 f   OptionsClass.obj
 0001:00075920       ?OnInitDialog_Color@CSettings@@IEAA_JPEAUHWND__@@@Z 0000000140076920 f   OptionsClass.obj
 0001:00075e70       ?OnInitDialog_Transparent@CSettings@@IEAA_JPEAUHWND__@@@Z 0000000140076e70 f   OptionsClass.obj
 0001:00076050       ?UnregisterShellInvalids@CSettings@@AEAAXXZ 0000000140077050 f   OptionsClass.obj
 0001:000763e0       ?ShellIntegration@CSettings@@QEAAXPEAUHWND__@@W4ShellIntegrType@1@_N2@Z 00000001400773e0 f   OptionsClass.obj
 0001:00076960       ?OnInitDialog_Views@CSettings@@IEAA_JPEAUHWND__@@@Z 0000000140077960 f   OptionsClass.obj
 0001:00077150       ?OnInitDialog_Debug@CSettings@@IEAA_JPEAUHWND__@@@Z 0000000140078150 f   OptionsClass.obj
 0001:000772b0       ?OnComboBox@CSettings@@IEAA_JPEAUHWND__@@_K_J@Z 00000001400782b0 f   OptionsClass.obj
 0001:000790c0       ?pageOpProc_Apps@CSettings@@IEAA_JPEAUHWND__@@0I_K_J@Z 000000014007a0c0 f   OptionsClass.obj
 0001:0007af50       ?debugLogShell@CSettings@@QEAAXPEAUHWND__@@PEAUDebugLogShellActivity@@@Z 000000014007bf50 f   OptionsClass.obj
 0001:0007b600       ?debugLogInfo@CSettings@@QEAAXPEAUHWND__@@PEAUCESERVER_REQ_PEEKREADINFO@@@Z 000000014007c600 f   OptionsClass.obj
 0001:0007c160       ?debugLogCommand@CSettings@@AEAAXPEAUHWND__@@PEAULogCommandsData@1@@Z 000000014007d160 f   OptionsClass.obj
 0001:0007c460       ?PostUpdateCounters@CSettings@@QEAAX_N@Z 000000014007d460 f   OptionsClass.obj
 0001:0007c990       ?Performance@CSettings@@QEAAXIH@Z 000000014007d990 f   OptionsClass.obj
 0001:0007cc30       ?CreateOtherFont@CSettings@@QEAAPEAUHFONT__@@PEB_W@Z 000000014007dc30 f   OptionsClass.obj
 0001:0007cce0       ?RecreateBorderFont@CSettings@@AEAAXPEBUtagLOGFONTW@@@Z 000000014007dce0 f   OptionsClass.obj
 0001:0007d180       ?CreateFontIndirectMy@CSettings@@AEAA?AUCEFONT@@PEAUtagLOGFONTW@@@Z 000000014007e180 f   OptionsClass.obj
 0001:0007dc50       ?SetDefaultCmd@CSettings@@QEAAXPEB_W@Z 000000014007ec50 f   OptionsClass.obj
 0001:0007de60       ?GetCmd@CSettings@@QEAAPEB_WPEA_N_N@Z 000000014007ee60 f   OptionsClass.obj
 0001:0007e280       ?GetDefaultCreateAction@CSettings@@QEAA?AW4RecreateActionParm@@XZ 000000014007f280 f   OptionsClass.obj
 0001:0007e2d0       ?GetFontNameFromFile_TTF@CSettings@@QEAAHPEB_WAEAY0CA@_W1@Z 000000014007f2d0 f   OptionsClass.obj
 0001:0007e7f0       ?GetFontNameFromFile_OTF@CSettings@@QEAAHPEB_WAEAY0CA@_W1@Z 000000014007f7f0 f   OptionsClass.obj
 0001:0007ee90       ?CheckConsoleFontFast@CSettings@@QEAA_NXZ 000000014007fe90 f   OptionsClass.obj
 0001:0007f360       ?CreateConFontError@CSettings@@IEAAPEB_WPEB_W0@Z 0000000140080360 f   OptionsClass.obj
 0001:0007f4e0       ?EnumConFamCallBack@CSettings@@SAHPEAUtagLOGFONTW@@PEAUtagNEWTEXTMETRICW@@KPEAX@Z 00000001400804e0 f   OptionsClass.obj
 0001:0007f7e0       ?InternalOpenCreate@?$MFileMapping@UPanelViewSetMapping@@@@IEAAPEAUPanelViewSetMapping@@HHH@Z 00000001400807e0 f i OptionsClass.obj
 0001:0007f9e0       ??1CSettings@@QEAA@XZ      00000001400809e0 f   OptionsClass.obj
 0001:0007fbf0       ?InitFont@CSettings@@QEAAXPEB_WHH@Z 0000000140080bf0 f   OptionsClass.obj
 0001:0007fef0       ?OnInitDialog_Tasks@CSettings@@IEAA_JPEAUHWND__@@_N@Z 0000000140080ef0 f   OptionsClass.obj
 0001:00080070       ?pageOpProc_Integr@CSettings@@IEAA_JPEAUHWND__@@I_K_J@Z 0000000140081070 f   OptionsClass.obj
 0001:00080df0       ?OnInitDialog_Info@CSettings@@IEAA_JPEAUHWND__@@@Z 0000000140081df0 f   OptionsClass.obj
 0001:00080f40       ?OnEditChanged@CSettings@@IEAA_JPEAUHWND__@@_K_J@Z 0000000140081f40 f   OptionsClass.obj
 0001:000826f0       ?MacroFontSetName@CSettings@@QEAAXPEB_WGG@Z 00000001400836f0 f   OptionsClass.obj
 0001:00082990       ?RecreateFont@CSettings@@AEAAXG@Z 0000000140083990 f   OptionsClass.obj
 0001:00082f00       ?MacroFontSetSize@CSettings@@QEAA_NHH@Z 0000000140083f00 f   OptionsClass.obj
 0001:000833d0       ?AutoRecreateFont@CSettings@@QEAA_NHH@Z 00000001400843d0 f   OptionsClass.obj
 0001:00083580       ?SetArgBufferHeight@CSettings@@QEAAXH@Z 0000000140084580 f   OptionsClass.obj
 0001:00083600       ?CheckConsoleFont@CSettings@@KA_NPEAUHWND__@@@Z 0000000140084600 f   OptionsClass.obj
 0001:00083aa0       ?EditConsoleFontProc@CSettings@@SA_JPEAUHWND__@@I_K_J@Z 0000000140084aa0 f   OptionsClass.obj
 0001:00084880       ??0CSettings@@QEAA@XZ      0000000140085880 f   OptionsClass.obj
 0001:00084ef0       ?SettingsLoaded@CSettings@@QEAAXKPEB_W@Z 0000000140085ef0 f   OptionsClass.obj
 0001:00085520       ?OnInitDialog_Comspec@CSettings@@IEAA_JPEAUHWND__@@_N@Z 0000000140086520 f   OptionsClass.obj
 0001:00085760       ?OnButtonClicked_Tasks@CSettings@@IEAA_JPEAUHWND__@@_K_J@Z 0000000140086760 f   OptionsClass.obj
 0001:00086220       ?OnResetOrReload@CSettings@@IEAAXH@Z 0000000140087220 f   OptionsClass.obj
 0001:00086400       ?RegisterFont@CSettings@@QEAAHPEB_WH@Z 0000000140087400 f   OptionsClass.obj
 0001:000870a0       ?RegisterFontsInt@CSettings@@AEAAXPEB_W@Z 00000001400880a0 f   OptionsClass.obj
 0001:00087410       ?EditConsoleFont@CSettings@@QEAA_NPEAUHWND__@@@Z 0000000140088410 f   OptionsClass.obj
 0001:00087470       ?OnButtonClicked@CSettings@@IEAA_JPEAUHWND__@@_K_J@Z 0000000140088470 f   OptionsClass.obj
 0001:0008d790       ?OnListBoxDblClk@CSettings@@IEAA_JPEAUHWND__@@_K_J@Z 000000014008e790 f   OptionsClass.obj
 0001:0008d7e0       ?wndOpProc@CSettings@@SA_JPEAUHWND__@@I_K_J@Z 000000014008e7e0 f   OptionsClass.obj
 0001:0008df50       ?RegisterFonts@CSettings@@QEAAXXZ 000000014008ef50 f   OptionsClass.obj
 0001:0008e060       ?OnInitDialog_Update@CSettings@@IEAA_JPEAUHWND__@@@Z 000000014008f060 f   OptionsClass.obj
 0001:0008e250       ?pageOpProc@CSettings@@SA_JPEAUHWND__@@I_K_J@Z 000000014008f250 f   OptionsClass.obj
 0001:0008fe90       ?CreateDefaultTasks@@YAX_N@Z 0000000140090e90 f   OptionsFast.obj
 0001:000908b0       ?CheckOptionsFast@@YAXPEB_WK@Z 00000001400918b0 f   OptionsFast.obj
 0001:00090b10       ?GetItemHelp@CEHelpPopup@@QEAA_NHPEAUHWND__@@PEA_WK@Z 0000000140091b10 f   OptionsHelp.obj
 0001:00090c70       ?helpProc@CEHelpPopup@@SA_JPEAUHWND__@@I_K_J@Z 0000000140091c70 f   OptionsHelp.obj
 0001:00090d90       ?ShowItemHelp@CEHelpPopup@@QEAAXHPEAUHWND__@@UtagPOINT@@@Z 0000000140091d90 f   OptionsHelp.obj
 0001:00090ec0       ?ShowItemHelp@CEHelpPopup@@QEAAXPEAUtagHELPINFO@@@Z 0000000140091ec0 f   OptionsHelp.obj
 0001:00090ed0       ??0RConStartArgs@@QEAA@XZ  0000000140091ed0 f   RConStartArgs.obj
 0001:00090f70       ?AssignFrom@RConStartArgs@@QEAA_NPEBU1@@Z 0000000140091f70 f   RConStartArgs.obj
 0001:000911c0       ??1RConStartArgs@@QEAA@XZ  00000001400921c0 f   RConStartArgs.obj
 0001:00091280       ?CheckUserToken@RConStartArgs@@QEAAPEAXXZ 0000000140092280 f   RConStartArgs.obj
 0001:000912d0       ?ProcessNewConArg@RConStartArgs@@QEAAH_N@Z 00000001400922d0 f   RConStartArgs.obj
 0001:00091c80       ?AppendServerArgs@RConStartArgs@@QEAAXPEA_W_J@Z 0000000140092c80 f   RConStartArgs.obj
 0001:00091cf0       ?CheckUserToken@RConStartArgs@@QEAAHPEAUHWND__@@@Z 0000000140092cf0 f   RConStartArgs.obj
 0001:00091df0       ?CreateCommandLine@RConStartArgs@@QEAAPEA_W_N@Z 0000000140092df0 f   RConStartArgs.obj
 0001:00092690       ?CursorFixedSize@AppSettings@Settings@@QEBAE_N@Z 0000000140093690 f i RealBuffer.obj
 0001:000926f0       ??0CRealBuffer@@QEAA@PEAVCRealConsole@@W4RealBufferType@@@Z 00000001400936f0 f   RealBuffer.obj
 0001:00092870       ??1CRealBuffer@@QEAA@XZ    0000000140093870 f   RealBuffer.obj
 0001:00092990       ?ReleaseMem@CRealBuffer@@QEAAXXZ 0000000140093990 f   RealBuffer.obj
 0001:00092a00       ?DumpConsole@CRealBuffer@@QEAAXPEAX@Z 0000000140093a00 f   RealBuffer.obj
 0001:00092ad0       ?isScroll@CRealBuffer@@QEAAHW4RealBufferScroll@@@Z 0000000140093ad0 f   RealBuffer.obj
 0001:00092ae0       ?InitSBI@CRealBuffer@@QEAAXPEAU_CONSOLE_SCREEN_BUFFER_INFO@@@Z 0000000140093ae0 f   RealBuffer.obj
 0001:00092b10       ?InitMaxSize@CRealBuffer@@QEAAXAEBU_COORD@@@Z 0000000140093b10 f   RealBuffer.obj
 0001:00092b20       ?GetMaxSize@CRealBuffer@@QEAA?AU_COORD@@XZ 0000000140093b20 f   RealBuffer.obj
 0001:00092b30       ?isInitialized@CRealBuffer@@QEAA_NXZ 0000000140093b30 f   RealBuffer.obj
 0001:00092b60       ?isFarMenuOrMacro@CRealBuffer@@QEAA_NXZ 0000000140093b60 f   RealBuffer.obj
 0001:00092ce0       ?isConsoleDataChanged@CRealBuffer@@QEAAHXZ 0000000140093ce0 f   RealBuffer.obj
 0001:00092cf0       ?PreFillBuffers@CRealBuffer@@QEAAXXZ 0000000140093cf0 f   RealBuffer.obj
 0001:00092dc0       ?GetBufferWidth@CRealBuffer@@QEAAFXZ 0000000140093dc0 f   RealBuffer.obj
 0001:00092dd0       ?GetBufferHeight@CRealBuffer@@QEAAFXZ 0000000140093dd0 f   RealBuffer.obj
 0001:00092de0       ?GetBufferPosY@CRealBuffer@@QEAAFXZ 0000000140093de0 f   RealBuffer.obj
 0001:00092df0       ?TextWidth@CRealBuffer@@QEAAHXZ 0000000140093df0 f   RealBuffer.obj
 0001:00092e20       ?GetTextWidth@CRealBuffer@@QEAAHXZ 0000000140093e20 f   RealBuffer.obj
 0001:00092e40       ?TextHeight@CRealBuffer@@QEAAHXZ 0000000140093e40 f   RealBuffer.obj
 0001:00092e70       ?GetTextHeight@CRealBuffer@@QEAAHXZ 0000000140093e70 f   RealBuffer.obj
 0001:00092e90       ?GetWindowHeight@CRealBuffer@@QEAAHXZ 0000000140093e90 f   RealBuffer.obj
 0001:00092eb0       ?BufferHeight@CRealBuffer@@QEAAHI@Z 0000000140093eb0 f   RealBuffer.obj
 0001:00092f00       ?GetConWindowSize@CRealBuffer@@QEAAHAEBU_CONSOLE_SCREEN_BUFFER_INFO@@PEAH1PEAK@Z 0000000140093f00 f   RealBuffer.obj
 0001:00093030       ?SetChange2Size@CRealBuffer@@QEAAXHH@Z 0000000140094030 f   RealBuffer.obj
 0001:00093040       ?BuferModeChangeLock@CRealBuffer@@QEAAHXZ 0000000140094040 f   RealBuffer.obj
 0001:00093060       ?BuferModeChangeUnlock@CRealBuffer@@QEAAXXZ 0000000140094060 f   RealBuffer.obj
 0001:00093070       ?BufferHeightTurnedOn@CRealBuffer@@QEAAHPEAU_CONSOLE_SCREEN_BUFFER_INFO@@@Z 0000000140094070 f   RealBuffer.obj
 0001:000930d0       ?ScreenToBuffer@CRealBuffer@@QEAA?AU_COORD@@U2@@Z 00000001400940d0 f   RealBuffer.obj
 0001:00093110       ?BufferToScreen@CRealBuffer@@QEAA?AU_COORD@@U2@_N@Z 0000000140094110 f   RealBuffer.obj
 0001:00093180       ?GetLastTextRangeType@CRealBuffer@@QEAA?AW4ExpandTextRangeType@@XZ 0000000140094180 f   RealBuffer.obj
 0001:00093190       ?ShowKeyBarHint@CRealBuffer@@QEAAXG@Z 0000000140094190 f   RealBuffer.obj
 0001:000931d0       ?GetRBtnDrag@CRealBuffer@@QEAAHPEAU_COORD@@@Z 00000001400941d0 f   RealBuffer.obj
 0001:000931f0       ?SetRBtnDrag@CRealBuffer@@QEAAXHPEBU_COORD@@@Z 00000001400941f0 f   RealBuffer.obj
 0001:00093210       ?DoSelectionStop@CRealBuffer@@QEAAXXZ 0000000140094210 f   RealBuffer.obj
 0001:000932c0       ?UpdateSelection@CRealBuffer@@QEAAXXZ 00000001400942c0 f   RealBuffer.obj
 0001:00093310       ?isConSelectMode@CRealBuffer@@QEAA_NXZ 0000000140094310 f   RealBuffer.obj
 0001:00093360       ?isSelfSelectMode@CRealBuffer@@QEAA_NXZ 0000000140094360 f   RealBuffer.obj
 0001:00093360       ?isSelectionPresent@CRealBuffer@@QEAA_NXZ 0000000140094360 f   RealBuffer.obj
 0001:00093380       ?isStreamSelection@CRealBuffer@@QEAA_NXZ 0000000140094380 f   RealBuffer.obj
 0001:000933a0       ?GetDefaultNtvdmHeight@CRealBuffer@@QEAA?AU_COORD@@XZ 00000001400943a0 f   RealBuffer.obj
 0001:00093440       ?GetConsoleLine@CRealBuffer@@QEAAHHPEAPEA_WPEAHPEAVMSectionLock@@@Z 0000000140094440 f   RealBuffer.obj
 0001:000935c0       ?PrepareColorTable@CRealBuffer@@AEAAX_NAEAY0BAA@Utag_CharAttr@@1PEBUAppSettings@Settings@@@Z 00000001400945c0 f   RealBuffer.obj
 0001:00093830       ?GetKeybLayout@CRealBuffer@@QEAA_KXZ 0000000140094830 f   RealBuffer.obj
 0001:00093840       ?SetKeybLayout@CRealBuffer@@QEAAX_K@Z 0000000140094840 f   RealBuffer.obj
 0001:00093850       ?GetConMode@CRealBuffer@@QEAAKXZ 0000000140094850 f   RealBuffer.obj
 0001:00093850       ?GetConsoleMode@CRealBuffer@@QEAAKXZ 0000000140094850 f   RealBuffer.obj
 0001:00093860       ?GetStatusLineCount@CRealBuffer@@QEAAHH@Z 0000000140094860 f   RealBuffer.obj
 0001:00093910       ?PrepareTransparent@CRealBuffer@@AEAAXPEA_WPEAUtag_CharAttr@@HH@Z 0000000140094910 f   RealBuffer.obj
 0001:00093ad0       ?isSelectionAllowed@CRealBuffer@@QEAA_NXZ 0000000140094ad0 f   RealBuffer.obj
 0001:00093b40       ?GetConsoleSelectionInfo@CRealBuffer@@QEAA_NPEAU_CONSOLE_SELECTION_INFO@@@Z 0000000140094b40 f   RealBuffer.obj
 0001:00093bb0       ?ConsoleCursorInfo@CRealBuffer@@QEAAXPEAU_CONSOLE_CURSOR_INFO@@@Z 0000000140094bb0 f   RealBuffer.obj
 0001:00093cb0       ?GetCursorInfo@CRealBuffer@@QEAAXPEAU_COORD@@PEAU_CONSOLE_CURSOR_INFO@@@Z 0000000140094cb0 f   RealBuffer.obj
 0001:00093ce0       ?ConsoleCursorPos@CRealBuffer@@QEAAXPEAU_COORD@@@Z 0000000140094ce0 f   RealBuffer.obj
 0001:00093d30       ?ResetBuffer@CRealBuffer@@QEAAXXZ 0000000140094d30 f   RealBuffer.obj
 0001:00093e00       ?FindRangeStart@CRealBuffer@@AEAA_NAEAU_COORD@@0AEA_NPEB_W22222H@Z 0000000140094e00 f   RealBuffer.obj
 0001:00094020       ?CheckValidUrl@CRealBuffer@@AEAA_NAEAU_COORD@@0AEA_NPEB_W222H@Z 0000000140095020 f   RealBuffer.obj
 0001:00094180       ?StoreLastTextRange@CRealBuffer@@AEAAXW4ExpandTextRangeType@@@Z 0000000140095180 f   RealBuffer.obj
 0001:000941d0       ?GetPanelRect@CRealBuffer@@QEAAHHPEAUtagRECT@@HH@Z 00000001400951d0 f   RealBuffer.obj
 0001:000942d0       ?isLeftPanel@CRealBuffer@@QEAAHXZ 00000001400952d0 f   RealBuffer.obj
 0001:000942d0       ?HasBorders@BDFFont@@UEAAHXZ 00000001400952d0 f   CustomFonts.obj
 0001:000942e0       ?isRightPanel@CRealBuffer@@QEAAHXZ 00000001400952e0 f   RealBuffer.obj
 0001:000942f0       ?CheckProgressInConsole@CRealBuffer@@AEAAFPEB_W@Z 00000001400952f0 f   RealBuffer.obj
 0001:00094830       ?OnScroll@CRealBuffer@@QEAA_JHFI@Z 0000000140095830 f   RealBuffer.obj
 0001:00094a90       ?OnSetScrollPos@CRealBuffer@@QEAA_J_K@Z 0000000140095a90 f   RealBuffer.obj
 0001:00094ac0       ?GetDetector@CRealBuffer@@QEAAPEBVCRgnDetect@@XZ 0000000140095ac0 f   RealBuffer.obj
 0001:00094ad0       ?Close@?$MPipe@UCESERVER_REQ_HDR@@U1@@@QEAAXXZ 0000000140095ad0 f i RealBuffer.obj
 0001:00094b10       ?Open@?$MPipe@UCESERVER_REQ_HDR@@U1@@@QEAAHXZ 0000000140095b10 f i RealBuffer.obj
 0001:00094be0       ?SetConsoleSizeSrv@CRealBuffer@@AEAAHGGGK@Z 0000000140095be0 f   RealBuffer.obj
 0001:00095630       ?SetConsoleSize@CRealBuffer@@QEAAHGGGK@Z 0000000140096630 f   RealBuffer.obj
 0001:00095890       ?SyncConsole2Window@CRealBuffer@@QEAAXGG@Z 0000000140096890 f   RealBuffer.obj
 0001:000959a0       ?InitBuffers@CRealBuffer@@AEAAHK@Z 00000001400969a0 f   RealBuffer.obj
 0001:00095dd0       ?ChangeBufferHeightMode@CRealBuffer@@QEAAXH@Z 0000000140096dd0 f   RealBuffer.obj
 0001:00095ec0       ?LoadDataFromSrv@CRealBuffer@@AEAAHKPEAU_CHAR_INFO@@@Z 0000000140096ec0 f   RealBuffer.obj
 0001:00096120       ?IsTrueColorerBufferChanged@CRealBuffer@@AEAAHXZ 0000000140097120 f   RealBuffer.obj
 0001:00096310       ?OnBufferHeight@CRealBuffer@@QEAAXXZ 0000000140097310 f   RealBuffer.obj
 0001:00096340       ?MarkFindText@CRealBuffer@@QEAAXHPEB_W_N1@Z 0000000140097340 f   RealBuffer.obj
 0001:000969a0       ?ExpandSelection@CRealBuffer@@QEAAXFF@Z 00000001400979a0 f   RealBuffer.obj
 0001:00096ca0       ?ConsoleScreenBufferInfo@CRealBuffer@@QEAAXPEAU_CONSOLE_SCREEN_BUFFER_INFO@@@Z 0000000140097ca0 f   RealBuffer.obj
 0001:00096d10       ?ExpandTextRange@CRealBuffer@@AEAA?AW4ExpandTextRangeType@@AEAU_COORD@@0W42@PEA_W_K@Z 0000000140097d10 f   RealBuffer.obj
 0001:00097a60       ?Transact@?$MPipe@UCESERVER_REQ_HDR@@U1@@@QEAAHPEBUCESERVER_REQ_HDR@@KPEAPEBU2@@Z 0000000140098a60 f i RealBuffer.obj
 0001:00097fe0       ??1CHtmlCopy@@QEAA@XZ      0000000140098fe0 f i RealBuffer.obj
 0001:00098090       ?RawAdd@CHtmlCopy@@QEAAXPEB_W_J@Z 0000000140099090 f i RealBuffer.obj
 0001:000981d0       ?LoadDumpConsole@CRealBuffer@@QEAA_NPEB_W@Z 00000001400991d0 f   RealBuffer.obj
 0001:00098820       ?LoadDataFromDump@CRealBuffer@@AEAA_NAEBU_CONSOLE_SCREEN_BUFFER_INFO@@PEBU_CHAR_INFO@@K@Z 0000000140099820 f   RealBuffer.obj
 0001:00098d20       ?SetBufferHeightMode@CRealBuffer@@QEAAXHH@Z 0000000140099d20 f   RealBuffer.obj
 0001:00098d70       ?CheckBufferSize@CRealBuffer@@AEAAHXZ 0000000140099d70 f   RealBuffer.obj
 0001:00098e30       ?ApplyConsoleInfo@CRealBuffer@@QEAAHXZ 0000000140099e30 f   RealBuffer.obj
 0001:000993a0       ?ProcessFarHyperlink@CRealBuffer@@QEAA_NIU_COORD@@@Z 000000014009a3a0 f   RealBuffer.obj
 0001:00099a30       ?StartSelection@CRealBuffer@@QEAAXHFFHIPEAU_COORD@@@Z 000000014009aa30 f   RealBuffer.obj
 0001:00099cd0       ?FindPanels@CRealBuffer@@QEAAXXZ 000000014009acd0 f   RealBuffer.obj
 0001:0009a6e0       ?InternalOpenCreate@?$MFileMapping@UCESERVER_CONSAVE_MAPHDR@@@@IEAAPEAUCESERVER_CONSAVE_MAPHDR@@HHH@Z 000000014009b6e0 f i RealBuffer.obj
 0001:0009a8e0       ?InternalOpenCreate@?$MFileMapping@UCESERVER_CONSAVE_MAP@@@@IEAAPEAUCESERVER_CONSAVE_MAP@@HHH@Z 000000014009b8e0 f i RealBuffer.obj
 0001:0009aae0       ?Init@CHtmlCopy@@QEAAX_NPEB_W1HKK@Z 000000014009bae0 f i RealBuffer.obj
 0001:0009ac20       ?TextAdd@CHtmlCopy@@QEAAXPEB_W_JKK_N2@Z 000000014009bc20 f i RealBuffer.obj
 0001:0009b1e0       ?LineAdd@CHtmlCopy@@QEAAXPEB_WPEBGPEBK_J@Z 000000014009c1e0 f i RealBuffer.obj
 0001:0009b310       ?LineAdd@CHtmlCopy@@QEAAXPEB_WPEBUtag_CharAttr@@_J@Z 000000014009c310 f i RealBuffer.obj
 0001:0009b470       ?CreateResult@CHtmlCopy@@QEAAPEAXXZ 000000014009c470 f i RealBuffer.obj
 0001:0009b780       ?PreInit@CRealBuffer@@QEAAHXZ 000000014009c780 f   RealBuffer.obj
 0001:0009b990       ?ProcessFarHyperlink@CRealBuffer@@QEAA_NI@Z 000000014009c990 f   RealBuffer.obj
 0001:0009ba00       ?DoSelectionCopyInt@CRealBuffer@@AEAA_N_N0HHHHE@Z 000000014009ca00 f   RealBuffer.obj
 0001:0009c990       ?GetConsoleData@CRealBuffer@@QEAAXPEA_WPEAUtag_CharAttr@@HH@Z 000000014009d990 f   RealBuffer.obj
 0001:0009db40       ?LoadAlternativeConsole@CRealBuffer@@QEAA_NW4LoadAltMode@@@Z 000000014009eb40 f   RealBuffer.obj
 0001:0009e180       ?DoSelectionCopy@CRealBuffer@@QEAA_N_NE@Z 000000014009f180 f   RealBuffer.obj
 0001:0009e400       ?DoSelectionFinalize@CRealBuffer@@QEAA_N_N_K@Z 000000014009f400 f   RealBuffer.obj
 0001:0009e490       ?ProcessSelectionHotKey@CRealBuffer@@QEAAPEBUConEmuHotKey@@K_NPEB_W@Z 000000014009f490 f   RealBuffer.obj
 0001:0009e520       ?OnKeyboard@CRealBuffer@@QEAA_NPEAUHWND__@@I_K_JPEB_W@Z 000000014009f520 f   RealBuffer.obj
 0001:0009e850       ?OnMouseSelection@CRealBuffer@@AEAA_NI_KHH@Z 000000014009f850 f   RealBuffer.obj
 0001:0009ed50       ?OnMouse@CRealBuffer@@QEAA_NI_KHHU_COORD@@_N@Z 000000014009fd50 f   RealBuffer.obj
 0001:0009f550       ?CursorBlink@AppSettings@Settings@@QEBA_N_N@Z 00000001400a0550 f i RealConsole.obj
 0001:0009f5b0       ?VCon@CRealConsole@@QEAAPEAVCVirtualConsole@@XZ 00000001400a05b0 f   RealConsole.obj
 0001:0009f5c0       ?GetActiveBufferType@CRealConsole@@QEAA?AW4RealBufferType@@XZ 00000001400a05c0 f   RealConsole.obj
 0001:0009f5e0       ?DumpConsole@CRealConsole@@QEAAXPEAX@Z 00000001400a05e0 f   RealConsole.obj
 0001:0009f5f0       ?SetConsoleSize@CRealConsole@@QEAAHGGGK@Z 00000001400a05f0 f   RealConsole.obj
 0001:0009f620       ?SyncConsole2Window@CRealConsole@@QEAAXHPEAUtagRECT@@@Z 00000001400a0620 f   RealConsole.obj
 0001:0009f730       ?ShowKeyBarHint@CRealConsole@@QEAAXG@Z 00000001400a0730 f   RealConsole.obj
 0001:0009f750       ?SetMonitorThreadEvent@CRealConsole@@IEAAXXZ 00000001400a0750 f   RealConsole.obj
 0001:0009f770       ?GetStartupDir@CRealConsole@@QEAAPEB_WXZ 00000001400a0770 f   RealConsole.obj
 0001:0009f890       ?ScreenToBuffer@CRealConsole@@QEAA?AU_COORD@@U2@@Z 00000001400a0890 f   RealConsole.obj
 0001:0009f8c0       ?BufferToScreen@CRealConsole@@QEAA?AU_COORD@@U2@_N@Z 00000001400a08c0 f   RealConsole.obj
 0001:0009f8f0       ?StartSelection@CRealConsole@@QEAAXHFFH@Z 00000001400a08f0 f   RealConsole.obj
 0001:0009f920       ?ExpandSelection@CRealConsole@@QEAAXFF@Z 00000001400a0920 f   RealConsole.obj
 0001:0009f930       ?isGuiVisible@CRealConsole@@QEAAHXZ 00000001400a0930 f   RealConsole.obj
 0001:0009f960       ?isGuiOverCon@CRealConsole@@QEAAHXZ 00000001400a0960 f   RealConsole.obj
 0001:0009f9a0       ?isBufferHeight@CRealConsole@@QEAAHXZ 00000001400a09a0 f   RealConsole.obj
 0001:0009f9f0       ?isAlternative@CRealConsole@@QEAAHXZ 00000001400a09f0 f   RealConsole.obj
 0001:0009fa20       ?isConSelectMode@CRealConsole@@QEAA_NXZ 00000001400a0a20 f   RealConsole.obj
 0001:0009fa40       ?isDetached@CRealConsole@@QEAA_NXZ 00000001400a0a40 f   RealConsole.obj
 0001:0009fa70       ?OnScroll@CRealConsole@@QEAA_JH@Z 00000001400a0a70 f   RealConsole.obj
 0001:0009fa90       ?OnSetScrollPos@CRealConsole@@QEAA_J_K@Z 00000001400a0a90 f   RealConsole.obj
 0001:0009fab0       ?OnDosAppStartStop@CRealConsole@@QEAAXW4StartStopType@@K@Z 00000001400a0ab0 f   RealConsole.obj
 0001:0009fb40       ?GetProgramStatus@CRealConsole@@QEAAKXZ 00000001400a0b40 f   RealConsole.obj
 0001:0009fb50       ?GetFarStatus@CRealConsole@@QEAAKXZ 00000001400a0b50 f   RealConsole.obj
 0001:0009fb70       ?isServerAlive@CRealConsole@@QEAA_NXZ 00000001400a0b70 f   RealConsole.obj
 0001:0009fbb0       ?isServerClosing@CRealConsole@@QEAA_NXZ 00000001400a0bb0 f   RealConsole.obj
 0001:0009fbd0       ?GetMonitorThreadID@CRealConsole@@QEAAKXZ 00000001400a0bd0 f   RealConsole.obj
 0001:0009fbe0       ?GetServerPID@CRealConsole@@QEAAK_N@Z 00000001400a0be0 f   RealConsole.obj
 0001:0009fc40       ?isServerCreated@CRealConsole@@QEAA_N_N@Z 00000001400a0c40 f   RealConsole.obj
 0001:0009fc60       ?GetFarPID@CRealConsole@@QEAAK_N@Z 00000001400a0c60 f   RealConsole.obj
 0001:0009fca0       ?SetFarPID@CRealConsole@@QEAAXK@Z 00000001400a0ca0 f   RealConsole.obj
 0001:0009fd10       ?SetFarPluginPID@CRealConsole@@QEAAXK@Z 00000001400a0d10 f   RealConsole.obj
 0001:0009fd40       ?GetActivePID@CRealConsole@@QEAAKXZ 00000001400a0d40 f   RealConsole.obj
 0001:0009fd80       ?ResetActiveAppSettingsId@CRealConsole@@QEAAXXZ 00000001400a0d80 f   RealConsole.obj
 0001:0009fd90       ?ProcessCheckName@CRealConsole@@AEAAXAEAUConProcess@@PEA_W@Z 00000001400a0d90 f   RealConsole.obj
 0001:0009ff60       ?WaitConsoleSize@CRealConsole@@IEAAHHK@Z 00000001400a0f60 f   RealConsole.obj
 0001:000a0020       ?LogString@CRealConsole@@QEAAXPEB_WH@Z 00000001400a1020 f   RealConsole.obj
 0001:000a0060       ?LogString@CRealConsole@@QEAAXPEBDH@Z 00000001400a1060 f   RealConsole.obj
 0001:000a00a0       ?LogInput@CRealConsole@@QEAAXI_K_JPEB_W@Z 00000001400a10a0 f   RealConsole.obj
 0001:000a04a0       ?LogInput@CRealConsole@@AEAAXPEAU_INPUT_RECORD@@@Z 00000001400a14a0 f   RealConsole.obj
 0001:000a08c0       ?IsConsoleDataChanged@CRealConsole@@QEAAHXZ 00000001400a18c0 f   RealConsole.obj
 0001:000a0900       ?GetConsoleData@CRealConsole@@QEAAXPEA_WPEAUtag_CharAttr@@HH@Z 00000001400a1900 f   RealConsole.obj
 0001:000a0940       ?SetFullScreen@CRealConsole@@QEAA_NXZ 00000001400a1940 f   RealConsole.obj
 0001:000a0a10       ?ShowOtherWindow@CRealConsole@@QEAAHPEAUHWND__@@HH@Z 00000001400a1a10 f   RealConsole.obj
 0001:000a0b70       ?SetOtherWindowPos@CRealConsole@@QEAAHPEAUHWND__@@0HHHHI@Z 00000001400a1b70 f   RealConsole.obj
 0001:000a0df0       ?SetOtherWindowParent@CRealConsole@@QEAAPEAUHWND__@@PEAU2@0@Z 00000001400a1df0 f   RealConsole.obj
 0001:000a0f40       ?SetOtherWindowRgn@CRealConsole@@QEAAHPEAUHWND__@@HPEAUtagRECT@@H@Z 00000001400a1f40 f   RealConsole.obj
 0001:000a10a0       ?RenameTab@CRealConsole@@QEAAXPEB_W@Z 00000001400a20a0 f   RealConsole.obj
 0001:000a1100       ?GetRootProcessIcon@CRealConsole@@QEAAHXZ 00000001400a2100 f   RealConsole.obj
 0001:000a1120       ?GetTabCount@CRealConsole@@QEAAHH@Z 00000001400a2120 f   RealConsole.obj
 0001:000a1160       ?GetActiveTab@CRealConsole@@QEAAHXZ 00000001400a2160 f   RealConsole.obj
 0001:000a1190       ?GetModifiedEditors@CRealConsole@@QEAAHXZ 00000001400a2190 f   RealConsole.obj
 0001:000a11d0       ?CheckPanelTitle@CRealConsole@@AEAAXXZ 00000001400a21d0 f   RealConsole.obj
 0001:000a1260       ?ChangeBufferHeightMode@CRealConsole@@QEAAXH@Z 00000001400a2260 f   RealConsole.obj
 0001:000a1280       ?PrepareOutputFileCreate@CRealConsole@@AEAAPEAXPEA_W@Z 00000001400a2280 f   RealConsole.obj
 0001:000a1310       ?isConsoleClosing@CRealConsole@@QEAA_NXZ 00000001400a2310 f   RealConsole.obj
 0001:000a13a0       ?TextWidth@CRealConsole@@QEAAIXZ 00000001400a23a0 f   RealConsole.obj
 0001:000a13a0       ?BufferWidth@CRealConsole@@QEAAIXZ 00000001400a23a0 f   RealConsole.obj
 0001:000a13c0       ?TextHeight@CRealConsole@@QEAAIXZ 00000001400a23c0 f   RealConsole.obj
 0001:000a13e0       ?OnBufferHeight@CRealConsole@@QEAAXXZ 00000001400a23e0 f   RealConsole.obj
 0001:000a13f0       ?isActive@CRealConsole@@QEAA_N_N@Z 00000001400a23f0 f   RealConsole.obj
 0001:000a1410       ?isInFocus@CRealConsole@@QEAA_NXZ 00000001400a2410 f   RealConsole.obj
 0001:000a1460       ?isVisible@CRealConsole@@QEAA_NXZ 00000001400a2460 f   RealConsole.obj
 0001:000a1480       ?CheckProgressInTitle@CRealConsole@@IEAAFXZ 00000001400a2480 f   RealConsole.obj
 0001:000a1650       ?isEditor@CRealConsole@@QEAA_NXZ 00000001400a2650 f   RealConsole.obj
 0001:000a1680       ?isEditorModified@CRealConsole@@QEAA_NXZ 00000001400a2680 f   RealConsole.obj
 0001:000a16f0       ?isViewer@CRealConsole@@QEAA_NXZ 00000001400a26f0 f   RealConsole.obj
 0001:000a1720       ?isNtvdm@CRealConsole@@QEAA_NXZ 00000001400a2720 f   RealConsole.obj
 0001:000a1740       ?GetArgs@CRealConsole@@QEAAAEBURConStartArgs@@XZ 00000001400a2740 f   RealConsole.obj
 0001:000a1750       ?GetCmd@CRealConsole@@QEAAPEB_W_N@Z 00000001400a2750 f   RealConsole.obj
 0001:000a1780       ?CreateCommandLine@CRealConsole@@QEAAPEA_W_N@Z 00000001400a2780 f   RealConsole.obj
 0001:000a17a0       ?GetUserPwd@CRealConsole@@QEAAHPEAPEB_W0PEAH@Z 00000001400a27a0 f   RealConsole.obj
 0001:000a17f0       ?GetProgress@CRealConsole@@QEAAFPEAH0@Z 00000001400a27f0 f   RealConsole.obj
 0001:000a1880       ?SetProgress@CRealConsole@@QEAA_NFFPEB_W@Z 00000001400a2880 f   RealConsole.obj
 0001:000a19a0       ?UpdateGuiInfoMapping@CRealConsole@@QEAAXPEBUConEmuGuiMapping@@@Z 00000001400a29a0 f   RealConsole.obj
 0001:000a1ab0       ?UpdateFarSettings@CRealConsole@@QEAAXK@Z 00000001400a2ab0 f   RealConsole.obj
 0001:000a1bd0       ?FindPicViewFrom@CRealConsole@@AEAAPEAUHWND__@@PEAU2@@Z 00000001400a2bd0 f   RealConsole.obj
 0001:000a1c70       ?FindChildGuiWindowProc@CRealConsole@@CAHPEAUHWND__@@_J@Z 00000001400a2c70 f   RealConsole.obj
 0001:000a1cd0       ?GetView@CRealConsole@@QEAAPEAUHWND__@@XZ 00000001400a2cd0 f   RealConsole.obj
 0001:000a1cf0       ?GhostWnd@CTaskBarGhost@@QEAAPEAUHWND__@@XZ 00000001400a2cf0 f   TaskBarGhost.obj
 0001:000a1cf0       ?GuiWnd@CRealConsole@@QEAAPEAUHWND__@@XZ 00000001400a2cf0 f   RealConsole.obj
 0001:000a1d00       ?GuiWndPID@CRealConsole@@QEAAKXZ 00000001400a2d00 f   RealConsole.obj
 0001:000a1d20       ?StoreGuiChildRect@CRealConsole@@QEAAXPEAUtagRECT@@@Z 00000001400a2d20 f   RealConsole.obj
 0001:000a1da0       ?CorrectGuiChildRect@CRealConsole@@SAXKKAEAUtagRECT@@@Z 00000001400a2da0 f   RealConsole.obj
 0001:000a1e90       ?GetPanelRect@CRealConsole@@QEAAHHPEAUtagRECT@@HH@Z 00000001400a2e90 f   RealConsole.obj
 0001:000a1f00       ?isFar@CRealConsole@@QEAA_N_N@Z 00000001400a2f00 f   RealConsole.obj
 0001:000a1f50       ?isFarInStack@CRealConsole@@QEAA_NXZ 00000001400a2f50 f   RealConsole.obj
 0001:000a1f90       ?isFarBufferSupported@CRealConsole@@QEAA_NXZ 00000001400a2f90 f   RealConsole.obj
 0001:000a1fe0       ?isSendMouseAllowed@CRealConsole@@QEAA_NXZ 00000001400a2fe0 f   RealConsole.obj
 0001:000a2010       ?isSelectionAllowed@CRealConsole@@QEAA_NXZ 00000001400a3010 f   RealConsole.obj
 0001:000a2030       ?isSelectionPresent@CRealConsole@@QEAA_NXZ 00000001400a3030 f   RealConsole.obj
 0001:000a2050       ?GetConsoleCursorInfo@CRealConsole@@QEAAXPEAU_CONSOLE_CURSOR_INFO@@PEAU_COORD@@@Z 00000001400a3050 f   RealConsole.obj
 0001:000a20a0       ?GetConsoleScreenBufferInfo@CRealConsole@@QEAAXPEAU_CONSOLE_SCREEN_BUFFER_INFO@@@Z 00000001400a30a0 f   RealConsole.obj
 0001:000a20c0       ?isAdministrator@CRealConsole@@QEAA_NXZ 00000001400a30c0 f   RealConsole.obj
 0001:000a2100       ?isMouseButtonDown@CRealConsole@@QEAAHXZ 00000001400a3100 f   RealConsole.obj
 0001:000a2110       ?OnConsoleKeyboardLayout@CRealConsole@@QEAAXK@Z 00000001400a3110 f   RealConsole.obj
 0001:000a2140       ?OnConsoleLangChange@CRealConsole@@QEAAX_K@Z 00000001400a3140 f   RealConsole.obj
 0001:000a2240       ?GetConsoleStates@CRealConsole@@QEAAKXZ 00000001400a3240 f   RealConsole.obj
 0001:000a2260       ?isAlive@CRealConsole@@QEAA_NXZ 00000001400a3260 f   RealConsole.obj
 0001:000a22e0       ?GetConStatus@CRealConsole@@QEAAPEB_WXZ 00000001400a32e0 f   RealConsole.obj
 0001:000a2300       ?SetConStatus@CRealConsole@@QEAAXPEB_W_N1@Z 00000001400a3300 f   RealConsole.obj
 0001:000a24a0       ?UpdateCursorInfo@CRealConsole@@QEAAXXZ 00000001400a34a0 f   RealConsole.obj
 0001:000a2530       ?isNeedCursorDraw@CRealConsole@@QEAA_NXZ 00000001400a3530 f   RealConsole.obj
 0001:000a2590       ?GetDetector@CRealConsole@@QEAAPEBVCRgnDetect@@XZ 00000001400a3590 f   RealConsole.obj
 0001:000a25b0       ?PostMacroThread@CRealConsole@@CAKPEAX@Z 00000001400a35b0 f   RealConsole.obj
 0001:000a26a0       ?PostCommand@CRealConsole@@AEAAXKKPEBX@Z 00000001400a36a0 f   RealConsole.obj
 0001:000a27b0       ?GetFarInfo@CRealConsole@@QEAAPEBUCEFAR_INFO_MAPPING@@XZ 00000001400a37b0 f   RealConsole.obj
 0001:000a27d0       ?InCreateRoot@CRealConsole@@QEAA_NXZ 00000001400a37d0 f   RealConsole.obj
 0001:000a27f0       ?InRecreate@CRealConsole@@QEAA_NXZ 00000001400a37f0 f   RealConsole.obj
 0001:000a2810       ?ShowPropertiesDialog@CRealConsole@@QEAAXXZ 00000001400a3810 f   RealConsole.obj
 0001:000a2920       ?GetLastTextRangeType@CRealConsole@@QEAA?AW4ExpandTextRangeType@@XZ 00000001400a3920 f   RealConsole.obj
 0001:000a2930       ?setGuiWndPID@CRealConsole@@AEAAXKPEB_W@Z 00000001400a3930 f   RealConsole.obj
 0001:000a29c0       ?AutoCopyTimer@CRealConsole@@QEAAXXZ 00000001400a39c0 f   RealConsole.obj
 0001:000a2a10       ??0?$MPipe@UCESERVER_REQ_HDR@@U1@@@QEAA@XZ 00000001400a3a10 f i RealConsole.obj
 0001:000a2ac0       ??1?$MPipe@UCESERVER_REQ_HDR@@U1@@@QEAA@XZ 00000001400a3ac0 f i RealConsole.obj
 0001:000a2b20       ?Set@?$MMap@KH@@QEAA_NAEBKAEBH@Z 00000001400a3b20 f i RealConsole.obj
 0001:000a2c80       ?SetActiveBuffer@CRealConsole@@AEAA_NPEAVCRealBuffer@@_N@Z 00000001400a3c80 f   RealConsole.obj
 0001:000a2d50       ?SyncGui2Window@CRealConsole@@QEAAXUtagRECT@@@Z 00000001400a3d50 f   RealConsole.obj
 0001:000a2ef0       ?PostLeftClickSync@CRealConsole@@QEAA_NU_COORD@@@Z 00000001400a3ef0 f   RealConsole.obj
 0001:000a3080       ?MonitorAssertTrap@CRealConsole@@QEAAXXZ 00000001400a4080 f   RealConsole.obj
 0001:000a30a0       ?ConHostSearchPrepare@CRealConsole@@IEAAXXZ 00000001400a40a0 f   RealConsole.obj
 0001:000a31f0       ?InitNames@CRealConsole@@IEAAXXZ 00000001400a41f0 f   RealConsole.obj
 0001:000a3320       ?OpenConsoleEventPipe@CRealConsole@@QEAAHXZ 00000001400a4320 f   RealConsole.obj
 0001:000a3590       ?PostConsoleEventPipe@CRealConsole@@QEAA_NPEAUMSG64@@_K@Z 00000001400a4590 f   RealConsole.obj
 0001:000a3780       ?PostConsoleMessage@CRealConsole@@QEAA_NPEAUHWND__@@I_K_J@Z 00000001400a4780 f   RealConsole.obj
 0001:000a3920       ?StopSignal@CRealConsole@@QEAAXXZ 00000001400a4920 f   RealConsole.obj
 0001:000a3a20       ?StartStopXTerm@CRealConsole@@QEAAXK_N@Z 00000001400a4a20 f   RealConsole.obj
 0001:000a3ac0       ?InScroll@CRealConsole@@QEAA_NXZ 00000001400a4ac0 f   RealConsole.obj
 0001:000a3b00       ?ProcessSelectionHotKey@CRealConsole@@QEAAPEBUConEmuHotKey@@K_NPEB_W@Z 00000001400a4b00 f   RealConsole.obj
 0001:000a3b70       ?OnServerClosing@CRealConsole@@QEAAXK@Z 00000001400a4b70 f   RealConsole.obj
 0001:000a3be0       ?isProcessExist@CRealConsole@@QEAA_NK@Z 00000001400a4be0 f   RealConsole.obj
 0001:000a3cf0       ?isServerAvailable@CRealConsole@@QEAA_NXZ 00000001400a4cf0 f   RealConsole.obj
 0001:000a3d10       ?SetMainSrvPID@CRealConsole@@IEAAXKPEAX@Z 00000001400a4d10 f   RealConsole.obj
 0001:000a3d80       ?InitAltServer@CRealConsole@@IEAA_NK@Z 00000001400a4d80 f   RealConsole.obj
 0001:000a3ea0       ?ProcessUpdateFlags@CRealConsole@@AEAAHH@Z 00000001400a4ea0 f   RealConsole.obj
 0001:000a4150       ?ShowGuiClientInt@CRealConsole@@QEAAX_N@Z 00000001400a5150 f   RealConsole.obj
 0001:000a4210       ?ChildSystemMenu@CRealConsole@@QEAAXXZ 00000001400a5210 f   RealConsole.obj
 0001:000a4310       ?ShowGuiClientExt@CRealConsole@@QEAAXHH@Z 00000001400a5310 f   RealConsole.obj
 0001:000a44b0       ?ShowConsole@CRealConsole@@QEAAXH@Z 00000001400a54b0 f   RealConsole.obj
 0001:000a4600       ?SetHwnd@CRealConsole@@AEAAXPEAUHWND__@@H@Z 00000001400a5600 f   RealConsole.obj
 0001:000a47b0       ?IsFarHyperlinkAllowed@CRealConsole@@AEAA_N_N@Z 00000001400a57b0 f   RealConsole.obj
 0001:000a4880       ?UpdateServerActive@CRealConsole@@QEAAXH@Z 00000001400a5880 f   RealConsole.obj
 0001:000a4a50       ?UpdateScrollInfo@CRealConsole@@QEAAXXZ 00000001400a5a50 f   RealConsole.obj
 0001:000a4bc0       ?SetTabs@CRealConsole@@QEAAXPEAUConEmuTab@@H@Z 00000001400a5bc0 f   RealConsole.obj
 0001:000a4ee0       ?RenameWindow@CRealConsole@@QEAAXPEB_W@Z 00000001400a5ee0 f   RealConsole.obj
 0001:000a5010       ?GetActiveTabType@CRealConsole@@QEAAIXZ 00000001400a6010 f   RealConsole.obj
 0001:000a5100       ?UpdateTabFlags@CRealConsole@@AEAAXPEAUConEmuTab@@@Z 00000001400a6100 f   RealConsole.obj
 0001:000a51d0       ?GetTab@CRealConsole@@QEAA_NHPEAUConEmuTab@@@Z 00000001400a61d0 f   RealConsole.obj
 0001:000a5470       ?SwitchKeyboardLayout@CRealConsole@@QEAAX_K0@Z 00000001400a6470 f   RealConsole.obj
 0001:000a55f0       ?isCloseConfirmed@CRealConsole@@QEAA_NPEB_W_N@Z 00000001400a65f0 f   RealConsole.obj
 0001:000a5760       ?CanCloseTab@CRealConsole@@QEAAHH@Z 00000001400a6760 f   RealConsole.obj
 0001:000a57b0       ?isFilePanel@CRealConsole@@QEAA_N_N0@Z 00000001400a67b0 f   RealConsole.obj
 0001:000a5980       ?GuiNotifyChildWindow@CRealConsole@@QEAAXXZ 00000001400a6980 f   RealConsole.obj
 0001:000a5ac0       ?GuiWndFocusStore@CRealConsole@@QEAAXXZ 00000001400a6ac0 f   RealConsole.obj
 0001:000a5c20       ?GuiWndFocusRestore@CRealConsole@@QEAAX_N@Z 00000001400a6c20 f   RealConsole.obj
 0001:000a5df0       ?GetStatusLineCount@CRealConsole@@QEAAHH@Z 00000001400a6df0 f   RealConsole.obj
 0001:000a5e30       ?CoordInPanel@CRealConsole@@QEAAHU_COORD@@H@Z 00000001400a6e30 f   RealConsole.obj
 0001:000a5f00       ?isFarKeyBarShown@CRealConsole@@QEAA_NXZ 00000001400a6f00 f   RealConsole.obj
 0001:000a5f90       ?isMouseSelectionPresent@CRealConsole@@QEAA_NXZ 00000001400a6f90 f   RealConsole.obj
 0001:000a5fe0       ?GetMaxConSize@CRealConsole@@QEAA_NPEAU_COORD@@@Z 00000001400a6fe0 f   RealConsole.obj
 0001:000a6000       ?IsFarLua@CRealConsole@@QEAA_NXZ 00000001400a7000 f   RealConsole.obj
 0001:000a6080       ?PostMacro@CRealConsole@@QEAAXPEB_WH@Z 00000001400a7080 f   RealConsole.obj
 0001:000a6440       ??$wcscpy_c@$0EMA@@@YAHAEAY0EMA@_WPEB_W@Z 00000001400a7440 f i RealConsole.obj
 0001:000a64a0       ??$wcscat_c@$0EMA@@@YAHAEAY0EMA@_WPEB_W@Z 00000001400a74a0 f i RealConsole.obj
 0001:000a6560       ??$wcscat_c@$0EGA@@@YAHAEAY0EGA@_WPEB_W@Z 00000001400a7560 f i RealConsole.obj
 0001:000a6620       ??$wcscat_c@$0EBA@@@YAHAEAY0EBA@_WPEB_W@Z 00000001400a7620 f i RealConsole.obj
 0001:000a66e0       ??0CRealConsole@@QEAA@XZ   00000001400a76e0 f   RealConsole.obj
 0001:000a6840       ?LoadDumpConsole@CRealConsole@@QEAA_NPEB_W@Z 00000001400a7840 f   RealConsole.obj
 0001:000a68f0       ?LoadAlternativeConsole@CRealConsole@@AEAA_NW4LoadAltMode@@@Z 00000001400a78f0 f   RealConsole.obj
 0001:000a69a0       ?SetActiveBuffer@CRealConsole@@QEAA_NW4RealBufferType@@@Z 00000001400a79a0 f   RealConsole.obj
 0001:000a69e0       ?PostString@CRealConsole@@AEAA_NPEA_W_K@Z 00000001400a79e0 f   RealConsole.obj
 0001:000a6be0       ?PostConsoleEvent@CRealConsole@@QEAA_NPEAU_INPUT_RECORD@@_N@Z 00000001400a7be0 f   RealConsole.obj
 0001:000a6dd0       ?OnTimerCheck@CRealConsole@@QEAAXXZ 00000001400a7dd0 f   RealConsole.obj
 0001:000a6e20       ?ConHostSearch@CRealConsole@@IEAAK_N@Z 00000001400a7e20 f   RealConsole.obj
 0001:000a7100       ?PostMouseEvent@CRealConsole@@AEAAXI_KU_COORD@@_N@Z 00000001400a8100 f   RealConsole.obj
 0001:000a7860       ?DoSelectionCopy@CRealConsole@@QEAA_N_NE@Z 00000001400a8860 f   RealConsole.obj
 0001:000a7990       ?DoFindText@CRealConsole@@QEAAXH@Z 00000001400a8990 f   RealConsole.obj
 0001:000a7a40       ?DoEndFindText@CRealConsole@@QEAAXXZ 00000001400a8a40 f   RealConsole.obj
 0001:000a7a70       ?GetTitle@CRealConsole@@QEAAPEB_W_N@Z 00000001400a8a70 f   RealConsole.obj
 0001:000a7b30       ?ProcessKeyboard@CRealConsole@@QEAAXI_K_JPEB_W@Z 00000001400a8b30 f   RealConsole.obj
 0001:000a7e00       ?OnKeyboardIme@CRealConsole@@QEAAXPEAUHWND__@@I_K_J@Z 00000001400a8e00 f   RealConsole.obj
 0001:000a8050       ?OnServerStarted@CRealConsole@@QEAAXQEAUHWND__@@KK@Z 00000001400a9050 f   RealConsole.obj
 0001:000a8270       ?ReopenServerPipes@CRealConsole@@IEAA_NXZ 00000001400a9270 f   RealConsole.obj
 0001:000a8460       ?GetDefaultAppSettingsId@CRealConsole@@AEAAHXZ 00000001400a9460 f   RealConsole.obj
 0001:000a8700       ?GetActiveAppSettingsId@CRealConsole@@QEAAHPEAPEB_W@Z 00000001400a9700 f   RealConsole.obj
 0001:000a88d0       ?ProcessUpdate@CRealConsole@@AEAAHPEBKI@Z 00000001400a98d0 f   RealConsole.obj
 0001:000a9110       ?ShowConsoleOrGuiClient@CRealConsole@@QEAAXH@Z 00000001400aa110 f   RealConsole.obj
 0001:000a9170       ?OnFocus@CRealConsole@@QEAAXH@Z 00000001400aa170 f   RealConsole.obj
 0001:000a91f0       ?CreateLogFiles@CRealConsole@@AEAAXXZ 00000001400aa1f0 f   RealConsole.obj
 0001:000a9320       ?OnGuiFocused@CRealConsole@@QEAAXHH@Z 00000001400aa320 f   RealConsole.obj
 0001:000a9410       ?renameProc@CRealConsole@@CA_JPEAUHWND__@@I_K_J@Z 00000001400aa410 f   RealConsole.obj
 0001:000a95e0       ?DoRenameTab@CRealConsole@@QEAAXXZ 00000001400aa5e0 f   RealConsole.obj
 0001:000a9690       ?Paste@CRealConsole@@QEAAX_NPEB_W00@Z 00000001400aa690 f   RealConsole.obj
 0001:000a9a50       ?CheckFarStates@CRealConsole@@AEAAXXZ 00000001400aaa50 f   RealConsole.obj
 0001:000a9d10       ?OnTitleChanged@CRealConsole@@AEAAXXZ 00000001400aad10 f   RealConsole.obj
 0001:000a9f90       ?SetGuiMode@CRealConsole@@QEAAXKPEAUHWND__@@KKPEB_WKUtagRECT@@@Z 00000001400aaf90 f   RealConsole.obj
 0001:000aa800       ?CloseColorMapping@CRealConsole@@AEAAXXZ 00000001400ab800 f   RealConsole.obj
 0001:000aa890       ?CloseFarMapData@CRealConsole@@AEAAXPEAVMSectionLock@@@Z 00000001400ab890 f   RealConsole.obj
 0001:000aa960       ?CloseMapHeader@CRealConsole@@AEAAXXZ 00000001400ab960 f   RealConsole.obj
 0001:000aaa30       ?PostDragCopy@CRealConsole@@QEAAXH@Z 00000001400aba30 f   RealConsole.obj
 0001:000aab50       ?Detach@CRealConsole@@QEAAX_N0@Z 00000001400abb50 f   RealConsole.obj
 0001:000aafb0       ?CtrlWinAltSpace@CRealConsole@@QEAAXXZ 00000001400abfb0 f   RealConsole.obj
 0001:000ab010       ?InternalOpenCreate@?$MFileMapping@$$CBUCEFAR_INFO_MAPPING@@@@IEAAPEBUCEFAR_INFO_MAPPING@@HHH@Z 00000001400ac010 f i RealConsole.obj
 0001:000ab210       ?InternalOpenCreate@?$MFileMapping@UAnnotationHeader@@@@IEAAPEAUAnnotationHeader@@HHH@Z 00000001400ac210 f i RealConsole.obj
 0001:000ab410       ?PostKeyPress@CRealConsole@@QEAA_NGK_WH@Z 00000001400ac410 f   RealConsole.obj
 0001:000ab4f0       ?PostKeyUp@CRealConsole@@QEAA_NGK_WH@Z 00000001400ac4f0 f   RealConsole.obj
 0001:000ab590       ?DeleteWordKeyPress@CRealConsole@@QEAA_N_N@Z 00000001400ac590 f   RealConsole.obj
 0001:000ab750       ?PrepareDefaultColors@CRealConsole@@AEAAXAEAE000_NPEAUHKEY__@@@Z 00000001400ac750 f   RealConsole.obj
 0001:000abb40       ?StartProcessInt@CRealConsole@@AEAAHAEAPEB_WAEAPEA_W0_NPEAUHWND__@@AEAK44EEEEAEAU_STARTUPINFOW@@AEAU_PROCESS_INFORMATION@@4@Z 00000001400acb40 f   RealConsole.obj
 0001:000ac440       ?OnMouse@CRealConsole@@QEAAXI_KHH_N1@Z 00000001400ad440 f   RealConsole.obj
 0001:000ac8d0       ?StopThread@CRealConsole@@QEAAXH@Z 00000001400ad8d0 f   RealConsole.obj
 0001:000acbc0       ?OnKeyboard@CRealConsole@@QEAAXPEAUHWND__@@I_K_JPEB_WPEBUtagMSG@@@Z 00000001400adbc0 f   RealConsole.obj
 0001:000acf90       ?GetActiveProcessName@CRealConsole@@QEAAPEB_WXZ 00000001400adf90 f   RealConsole.obj
 0001:000acfc0       ?OnActivate@CRealConsole@@QEAAXHH@Z 00000001400adfc0 f   RealConsole.obj
 0001:000ad270       ?OnDeactivate@CRealConsole@@QEAAXH@Z 00000001400ae270 f   RealConsole.obj
 0001:000ad360       ?UpdateTextColorSettings@CRealConsole@@QEAAXHH@Z 00000001400ae360 f   RealConsole.obj
 0001:000ad4d0       ?isPictureView@CRealConsole@@QEAAPEAUHWND__@@H@Z 00000001400ae4d0 f   RealConsole.obj
 0001:000ad810       ??1CRealConsole@@QEAA@XZ   00000001400ae810 f   RealConsole.obj
 0001:000adcb0       ?PostPromptCmd@CRealConsole@@QEAA_N_NPEB_W@Z 00000001400aecb0 f   RealConsole.obj
 0001:000ae1b0       ?CanActivateFarWindow@CRealConsole@@QEAAKH@Z 00000001400af1b0 f   RealConsole.obj
 0001:000ae320       ?ActivateFarWindow@CRealConsole@@QEAAHH@Z 00000001400af320 f   RealConsole.obj
 0001:000ae4f0       ?PrepareOutputFile@CRealConsole@@AEAAHHPEA_W@Z 00000001400af4f0 f   RealConsole.obj
 0001:000aebf0       ?CreateColorMapping@CRealConsole@@AEAAXXZ 00000001400afbf0 f   RealConsole.obj
 0001:000aed30       ?OpenFarMapData@CRealConsole@@AEAAHXZ 00000001400afd30 f   RealConsole.obj
 0001:000aef30       ?OpenMapHeader@CRealConsole@@AEAAHH@Z 00000001400aff30 f   RealConsole.obj
 0001:000af050       ?AttachConemuC@CRealConsole@@QEAAHPEAUHWND__@@KPEBUCESERVER_REQ_STARTSTOP@@PEAUCESERVER_REQ_STARTSTOPRET@@@Z 00000001400b0050 f   RealConsole.obj
 0001:000af580       ?MonitorThreadWorker@CRealConsole@@IEAAKHAEAH@Z 00000001400b0580 f   RealConsole.obj
 0001:000b0160       ?OnServerStarted@CRealConsole@@AEAAXKPEAXK@Z 00000001400b1160 f   RealConsole.obj
 0001:000b0200       ?MonitorThread@CRealConsole@@KAKPEAX@Z 00000001400b1200 f   RealConsole.obj
 0001:000b03e0       ?StartMonitorThread@CRealConsole@@IEAAHXZ 00000001400b13e0 f   RealConsole.obj
 0001:000b04f0       ?RecreateProcessStart@CRealConsole@@AEAAHXZ 00000001400b14f0 f   RealConsole.obj
 0001:000b0650       ?PreCreate@CRealConsole@@AEAA_NPEAURConStartArgs@@@Z 00000001400b1650 f   RealConsole.obj
 0001:000b0870       ?GetProcesses@CRealConsole@@QEAAHPEAPEAUConProcess@@_N@Z 00000001400b1870 f   RealConsole.obj
 0001:000b0a90       ?DuplicateRoot@CRealConsole@@QEAA_N_N0PEB_W11@Z 00000001400b1a90 f   RealConsole.obj
 0001:000b0f70       ?CloseConsole@CRealConsole@@QEAAX_N00@Z 00000001400b1f70 f   RealConsole.obj
 0001:000b15f0       ?CloseTab@CRealConsole@@QEAAXXZ 00000001400b25f0 f   RealConsole.obj
 0001:000b1b80       ?GuiAppAttachAllowed@CRealConsole@@QEAAHPEB_WK@Z 00000001400b2b80 f   RealConsole.obj
 0001:000b1ec0       ?Construct@CRealConsole@@QEAA_NPEAVCVirtualConsole@@PEAURConStartArgs@@@Z 00000001400b2ec0 f   RealConsole.obj
 0001:000b27d0       ?StartProcess@CRealConsole@@IEAAHXZ 00000001400b37d0 f   RealConsole.obj
 0001:000b3560       ?RecreateProcess@CRealConsole@@QEAAHPEAURConStartArgs@@@Z 00000001400b4560 f   RealConsole.obj
 0001:000b37f0       ?AdminDuplicate@CRealConsole@@QEAAXXZ 00000001400b47f0 f   RealConsole.obj
 0001:000b3820       ?OnStartProcessAllowed@CRealConsole@@QEAAXXZ 00000001400b4820 f   RealConsole.obj
 0001:000b38f0       ??0CRealServer@@QEAA@XZ    00000001400b48f0 f   RealServer.obj
 0001:000b3910       ?cmdStartStop@CRealServer@@IEAAPEAUCESERVER_REQ@@PEAXPEAU2@I@Z 00000001400b4910 f   RealServer.obj
 0001:000b41a0       ?cmdGetOutputFile@CRealServer@@IEAAPEAUCESERVER_REQ@@PEAXPEAU2@I@Z 00000001400b51a0 f   RealServer.obj
 0001:000b4220       ?cmdGuiMacro@CRealServer@@IEAAPEAUCESERVER_REQ@@PEAXPEAU2@I@Z 00000001400b5220 f   RealServer.obj
 0001:000b42d0       ?cmdResources@CRealServer@@IEAAPEAUCESERVER_REQ@@PEAXPEAU2@I@Z 00000001400b52d0 f   RealServer.obj
 0001:000b44a0       ?cmdSetForeground@CRealServer@@IEAAPEAUCESERVER_REQ@@PEAXPEAU2@I@Z 00000001400b54a0 f   RealServer.obj
 0001:000b4530       ?cmdFlashWindow@CRealServer@@IEAAPEAUCESERVER_REQ@@PEAXPEAU2@I@Z 00000001400b5530 f   RealServer.obj
 0001:000b45a0       ?cmdRegPanelView@CRealServer@@IEAAPEAUCESERVER_REQ@@PEAXPEAU2@I@Z 00000001400b55a0 f   RealServer.obj
 0001:000b4620       ?cmdSetBackground@CRealServer@@IEAAPEAUCESERVER_REQ@@PEAXPEAU2@I@Z 00000001400b5620 f   RealServer.obj
 0001:000b46c0       ?cmdActivateCon@CRealServer@@IEAAPEAUCESERVER_REQ@@PEAXPEAU2@I@Z 00000001400b56c0 f   RealServer.obj
 0001:000b4720       ?cmdOnPeekReadInput@CRealServer@@IEAAPEAUCESERVER_REQ@@PEAXPEAU2@I@Z 00000001400b5720 f   RealServer.obj
 0001:000b47c0       ?cmdOnSetConsoleKeyShortcuts@CRealServer@@IEAAPEAUCESERVER_REQ@@PEAXPEAU2@I@Z 00000001400b57c0 f   RealServer.obj
 0001:000b4800       ?cmdLockDc@CRealServer@@IEAAPEAUCESERVER_REQ@@PEAXPEAU2@I@Z 00000001400b5800 f   RealServer.obj
 0001:000b4840       ?cmdGetAllTabs@CRealServer@@IEAAPEAUCESERVER_REQ@@PEAXPEAU2@I@Z 00000001400b5840 f   RealServer.obj
 0001:000b48e0       ?cmdActivateTab@CRealServer@@IEAAPEAUCESERVER_REQ@@PEAXPEAU2@I@Z 00000001400b58e0 f   RealServer.obj
 0001:000b4970       ?cmdRenameTab@CRealServer@@IEAAPEAUCESERVER_REQ@@PEAXPEAU2@I@Z 00000001400b5970 f   RealServer.obj
 0001:000b49b0       ?cmdSetProgress@CRealServer@@IEAAPEAUCESERVER_REQ@@PEAXPEAU2@I@Z 00000001400b59b0 f   RealServer.obj
 0001:000b4a00       ?cmdExportEnvVarAll@CRealServer@@IEAAPEAUCESERVER_REQ@@PEAXPEAU2@I@Z 00000001400b5a00 f   RealServer.obj
 0001:000b4ae0       ?cmdStartXTerm@CRealServer@@IEAAPEAUCESERVER_REQ@@PEAXPEAU2@I@Z 00000001400b5ae0 f   RealServer.obj
 0001:000b4b20       ?ServerThreadReady@CRealServer@@KAHPEAX_J@Z 00000001400b5b20 f   RealServer.obj
 0001:000b4b70       ?Init@CRealServer@@QEAAXPEAVCRealConsole@@@Z 00000001400b5b70 f   RealServer.obj
 0001:000b4bc0       ?Stop@CRealServer@@QEAAX_N@Z 00000001400b5bc0 f   RealServer.obj
 0001:000b4c40       ?cmdOnCreateProc@CRealServer@@IEAAPEAUCESERVER_REQ@@PEAXPEAU2@I@Z 00000001400b5c40 f   RealServer.obj
 0001:000b4de0       ?DelayedWrite@?$PipeServer@UCESERVER_REQ@@@@QEAA_NPEAXPEBXK@Z 00000001400b5de0 f i RealServer.obj
 0001:000b4ee0       ??1CRealServer@@QEAA@XZ    00000001400b5ee0 f   RealServer.obj
 0001:000b4f50       ?cmdTabsChanged@CRealServer@@IEAAPEAUCESERVER_REQ@@PEAXPEAU2@I@Z 00000001400b5f50 f   RealServer.obj
 0001:000b5270       ?ServerCommand@CRealServer@@KAHPEAXPEAUCESERVER_REQ@@AEAPEAU2@AEAK3_J@Z 00000001400b6270 f   RealServer.obj
 0001:000b56b0       ?Start@CRealServer@@QEAA_NXZ 00000001400b66b0 f   RealServer.obj
 0001:000b57a0       ?AdvanceQueue@CRunQueue@@AEAAXXZ 00000001400b67a0 f   RunQueue.obj
 0001:000b5820       ??0CRunQueue@@QEAA@XZ      00000001400b6820 f   RunQueue.obj
 0001:000b5870       ??1CRunQueue@@QEAA@XZ      00000001400b6870 f   RunQueue.obj
 0001:000b58c0       ?RequestRConStartup@CRunQueue@@QEAAXPEAVCRealConsole@@@Z 00000001400b68c0 f   RunQueue.obj
 0001:000b5980       ?ProcessRunQueue@CRunQueue@@QEAAX_N@Z 00000001400b6980 f   RunQueue.obj
 0001:000b5b70       ??0CRecreateDlg@@QEAA@XZ   00000001400b6b70 f   Recreate.obj
 0001:000b5ba0       ??1CRecreateDlg@@QEAA@XZ   00000001400b6ba0 f   Recreate.obj
 0001:000b5ba0       ?Close@CRecreateDlg@@QEAAXXZ 00000001400b6ba0 f   Recreate.obj
 0001:000b5be0       ?BrowseCallbackProc@CRecreateDlg@@SAHPEAUHWND__@@I_J1@Z 00000001400b6be0 f   Recreate.obj
 0001:000b5c10       ?FreeVars@CRecreateDlg@@IEAAXXZ 00000001400b6c10 f   Recreate.obj
 0001:000b5c80       ?AddCommandList@CRecreateDlg@@IEAAXPEB_W_J@Z 00000001400b6c80 f   Recreate.obj
 0001:000b5d10       ?InitVars@CRecreateDlg@@IEAAXXZ 00000001400b6d10 f   Recreate.obj
 0001:000b5fb0       ??$wcscat_c@$0CAJ@@@YAHAEAY0CAJ@_WPEB_W@Z 00000001400b6fb0 f i Recreate.obj
 0001:000b6070       ?RecreateDlgProc@CRecreateDlg@@SA_JPEAUHWND__@@I_K_J@Z 00000001400b7070 f   Recreate.obj
 0001:000b7800       ?RecreateDlg@CRecreateDlg@@QEAAHPEAURConStartArgs@@@Z 00000001400b8800 f   Recreate.obj
 0001:000b7940       ??1SettingsBase@@UEAA@XZ   00000001400b8940 f i Registry.obj
 0001:000b7950       ??_ESettingsBase@@UEAAPEAXI@Z 00000001400b8950 f i Registry.obj
 0001:000b7950       ??_GSettingsBase@@UEAAPEAXI@Z 00000001400b8950 f i Registry.obj
 0001:000b7980       ??0SettingsRegistry@@QEAA@XZ 00000001400b8980 f   Registry.obj
 0001:000b79d0       ?OpenKey@SettingsRegistry@@QEAA_NPEAUHKEY__@@PEB_WIH@Z 00000001400b89d0 f   Registry.obj
 0001:000b7a40       ?OpenKey@SettingsRegistry@@UEAA_NPEB_WIH@Z 00000001400b8a40 f   Registry.obj
 0001:000b7ab0       ?CloseKey@SettingsRegistry@@UEAAXXZ 00000001400b8ab0 f   Registry.obj
 0001:000b7ae0       ?Load@SettingsRegistry@@UEAA_NPEB_WPEAEK@Z 00000001400b8ae0 f   Registry.obj
 0001:000b7b90       ?Load@SettingsRegistry@@UEAA_NPEB_WPEAPEA_W@Z 00000001400b8b90 f   Registry.obj
 0001:000b7c60       ?Load@SettingsRegistry@@UEAA_NPEB_WPEA_WH@Z 00000001400b8c60 f   Registry.obj
 0001:000b7d10       ?Delete@SettingsRegistry@@UEAAXPEB_W@Z 00000001400b8d10 f   Registry.obj
 0001:000b7d20       ?Save@SettingsRegistry@@UEAAXPEB_WPEBEKK@Z 00000001400b8d20 f   Registry.obj
 0001:000b7d50       ??0SettingsXML@@QEAA@AEBUSettingsStorage@@@Z 00000001400b8d50 f   Registry.obj
 0001:000b7dd0       ?CreateDomDocument@SettingsXML@@KAPEAUIXMLDOMDocument@@PEA_W_K@Z 00000001400b8dd0 f   Registry.obj
 0001:000b80c0       ?IsXmlAllowed@SettingsXML@@SA_NXZ 00000001400b90c0 f   Registry.obj
 0001:000b80f0       ?CloseKey@SettingsXML@@UEAAXXZ 00000001400b90f0 f   Registry.obj
 0001:000b8240       ?GetAttr@SettingsXML@@IEAAPEA_WPEAUIXMLDOMNode@@PEAUIXMLDOMNamedNodeMap@@PEB_W@Z 00000001400b9240 f   Registry.obj
 0001:000b82d0       ?SetAttr@SettingsXML@@IEAA_NPEAUIXMLDOMNode@@PEAUIXMLDOMNamedNodeMap@@PEB_W2@Z 00000001400b92d0 f   Registry.obj
 0001:000b84a0       ?AppendText@SettingsXML@@IEAAXPEAUIXMLDOMNode@@PEA_W@Z 00000001400b94a0 f   Registry.obj
 0001:000b85b0       ?Load@SettingsXML@@UEAA_NPEB_WPEA_WH@Z 00000001400b95b0 f   Registry.obj
 0001:000b8630       ?Delete@SettingsXML@@UEAAXPEB_W@Z 00000001400b9630 f   Registry.obj
 0001:000b8650       ??1SettingsRegistry@@UEAA@XZ 00000001400b9650 f   Registry.obj
 0001:000b8690       ?GetAttr@SettingsXML@@IEAAPEA_WPEAUIXMLDOMNode@@PEB_W@Z 00000001400b9690 f   Registry.obj
 0001:000b8720       ?SetAttr@SettingsXML@@IEAA_NPEAUIXMLDOMNode@@PEB_W1@Z 00000001400b9720 f   Registry.obj
 0001:000b87b0       ?AppendIndent@SettingsXML@@IEAAXPEAUIXMLDOMNode@@H@Z 00000001400b97b0 f   Registry.obj
 0001:000b8840       ?AppendNewLine@SettingsXML@@IEAAXPEAUIXMLDOMNode@@@Z 00000001400b9840 f   Registry.obj
 0001:000b8890       ?FindItem@SettingsXML@@IEAAPEAUIXMLDOMNode@@PEAU2@PEB_W1_N@Z 00000001400b9890 f   Registry.obj
 0001:000b8d30       ?Load@SettingsXML@@UEAA_NPEB_WPEAPEA_W@Z 00000001400b9d30 f   Registry.obj
 0001:000b9160       ?Load@SettingsXML@@UEAA_NPEB_WPEAEK@Z 00000001400ba160 f   Registry.obj
 0001:000b9500       ?Save@SettingsXML@@UEAAXPEB_WPEBEKK@Z 00000001400ba500 f   Registry.obj
 0001:000b9bc0       ??_GSettingsRegistry@@UEAAPEAXI@Z 00000001400babc0 f i Registry.obj
 0001:000b9bc0       ??_ESettingsRegistry@@UEAAPEAXI@Z 00000001400babc0 f i Registry.obj
 0001:000b9c20       ??_ESettingsXML@@UEAAPEAXI@Z 00000001400bac20 f i Registry.obj
 0001:000b9c20       ??_GSettingsXML@@UEAAPEAXI@Z 00000001400bac20 f i Registry.obj
 0001:000b9c80       ?OpenKey@SettingsXML@@UEAA_NPEB_WIH@Z 00000001400bac80 f   Registry.obj
 0001:000ba2a0       ?SetConEmuEnvVar@@YAXPEAUHWND__@@@Z 00000001400bb2a0 f   SetEnvVar.obj
 0001:000ba350       ?SetConEmuEnvVarChild@@YAXPEAUHWND__@@0@Z 00000001400bb350 f   SetEnvVar.obj
 0001:000ba3e0       ??0CRgnDetect@@QEAA@XZ     00000001400bb3e0 f   RgnDetect.obj
 0001:000ba4c0       ??1CRgnDetect@@QEAA@XZ     00000001400bb4c0 f   RgnDetect.obj
 0001:000ba530       ?GetDetectedDialogsPtr@CRgnDetect@@QEBAPEBUtag_DetectedDialog@@XZ 00000001400bb530 f   RgnDetect.obj
 0001:000ba540       ?GetDetectedDialogs@CRgnDetect@@QEBAHHPEAU_SMALL_RECT@@PEAKKK@Z 00000001400bb540 f   RgnDetect.obj
 0001:000ba670       ?GetDialog@CRgnDetect@@QEBAKKPEAU_SMALL_RECT@@@Z 00000001400bb670 f   RgnDetect.obj
 0001:000ba6d0       ?GetFlags@CRgnDetect@@QEBAKXZ 00000001400bb6d0 f   RgnDetect.obj
 0001:000ba6e0       ?FindFrameRight_ByBottom@CRgnDetect@@IEAA_NPEA_WPEAUtag_CharAttr@@HHAEAH22@Z 00000001400bb6e0 f   RgnDetect.obj
 0001:000ba7c0       ?FindFrameLeft_ByBottom@CRgnDetect@@IEAA_NPEA_WPEAUtag_CharAttr@@HHAEAH22@Z 00000001400bb7c0 f   RgnDetect.obj
 0001:000ba8b0       ?FindFrameTop_ByLeft@CRgnDetect@@IEAA_NPEA_WPEAUtag_CharAttr@@HHAEAH22@Z 00000001400bb8b0 f   RgnDetect.obj
 0001:000ba990       ?FindFrameTop_ByRight@CRgnDetect@@IEAA_NPEA_WPEAUtag_CharAttr@@HHAEAH22@Z 00000001400bb990 f   RgnDetect.obj
 0001:000baab0       ?FindFrameBottom_ByRight@CRgnDetect@@IEAA_NPEA_WPEAUtag_CharAttr@@HHAEAH22@Z 00000001400bbab0 f   RgnDetect.obj
 0001:000babd0       ?FindFrameBottom_ByLeft@CRgnDetect@@IEAA_NPEA_WPEAUtag_CharAttr@@HHAEAH22@Z 00000001400bbbd0 f   RgnDetect.obj
 0001:000bacb0       ?FindDialog_Inner@CRgnDetect@@IEAA_NPEA_WPEAUtag_CharAttr@@HHAEAH2@Z 00000001400bbcb0 f   RgnDetect.obj
 0001:000bae40       ?ExpandDialogFrame@CRgnDetect@@IEAA_NPEA_WPEAUtag_CharAttr@@HHAEAH2HH22@Z 00000001400bbe40 f   RgnDetect.obj
 0001:000bb110       ?MarkDialog@CRgnDetect@@IEAAHPEA_WPEAUtag_CharAttr@@HHHHHH_N2K@Z 00000001400bc110 f   RgnDetect.obj
 0001:000bbb10       ??0CRgnRects@@QEAA@XZ      00000001400bcb10 f   RgnDetect.obj
 0001:000bbb40       ??1CRgnRects@@QEAA@XZ      00000001400bcb40 f   RgnDetect.obj
 0001:000bbb60       ?Reset@CRgnRects@@QEAAXXZ  00000001400bcb60 f   RgnDetect.obj
 0001:000bbb80       ?Init@CRgnRects@@QEAAXPEAUtagRECT@@@Z 00000001400bcb80 f   RgnDetect.obj
 0001:000bbc70       ?Diff@CRgnRects@@QEAAHPEAUtagRECT@@@Z 00000001400bcc70 f   RgnDetect.obj
 0001:000bbe10       ?DiffSmall@CRgnRects@@QEAAHPEAU_SMALL_RECT@@@Z 00000001400bce10 f   RgnDetect.obj
 0001:000bbe60       ?LoadFrom@CRgnRects@@QEAA_NPEAV1@@Z 00000001400bce60 f   RgnDetect.obj
 0001:000bbf30       ?SetNeedTransparency@CRgnDetect@@QEAAX_N@Z 00000001400bcf30 f   RgnDetect.obj
 0001:000bbf40       ?FindFrameRight_ByTop@CRgnDetect@@IEAA_NPEA_WPEAUtag_CharAttr@@HHAEAH22@Z 00000001400bcf40 f   RgnDetect.obj
 0001:000bc090       ?FindFrameLeft_ByTop@CRgnDetect@@IEAA_NPEA_WPEAUtag_CharAttr@@HHAEAH22@Z 00000001400bd090 f   RgnDetect.obj
 0001:000bc220       ?FindDialog_Left@CRgnDetect@@IEAA_NPEA_WPEAUtag_CharAttr@@HHAEAH222AEA_N@Z 00000001400bd220 f   RgnDetect.obj
 0001:000bc440       ?FindDialog_Right@CRgnDetect@@IEAA_NPEA_WPEAUtag_CharAttr@@HHAEAH222AEA_N@Z 00000001400bd440 f   RgnDetect.obj
 0001:000bc5b0       ?FindDialog_Any@CRgnDetect@@IEAA_NPEA_WPEAUtag_CharAttr@@HHAEAH222AEA_N@Z 00000001400bd5b0 f   RgnDetect.obj
 0001:000bc870       ?DetectDialog@CRgnDetect@@IEAA_NPEA_WPEAUtag_CharAttr@@HHHHPEAH2@Z 00000001400bd870 f   RgnDetect.obj
 0001:000bd5b0       ?PrepareTransparent@CRgnDetect@@QEAAXPEBUCEFAR_INFO_MAPPING@@PEBKPEBU_CONSOLE_SCREEN_BUFFER_INFO@@PEA_WPEAUtag_CharAttr@@HH@Z 00000001400be5b0 f   RgnDetect.obj
 0001:000bdf70       ?LoadScreen@@YAHPEAUHDC__@@HHHHPEAPEAEPEAK_N@Z 00000001400bef70 f   ScreenDump.obj
 0001:000be200       ?DumpImage@@YAHPEAUHDC__@@PEAUHBITMAP__@@HHHHPEB_W_N@Z 00000001400bf200 f   ScreenDump.obj
 0001:000be540       ?DumpImage@@YAHPEAUHDC__@@PEAUHBITMAP__@@HHPEB_W@Z 00000001400bf540 f   ScreenDump.obj
 0001:000be570       ?GetAllStatusCols@CStatus@@SA_KPEAPEAUStatusColInfo@@@Z 00000001400bf570 f   Status.obj
 0001:000be590       ?LoadActiveProcess@CStatus@@AEAA_NPEAVCRealConsole@@PEA_WH@Z 00000001400bf590 f   Status.obj
 0001:000be640       ?IsCursorOverResizeMark@CStatus@@QEAA_NUtagPOINT@@@Z 00000001400bf640 f   Status.obj
 0001:000be6a0       ?IsStatusResizing@CStatus@@QEAA_NXZ 00000001400bf6a0 f   Status.obj
 0001:000be6c0       ?GetSettingName@CStatus@@QEAAPEB_WW4CEStatusItems@@@Z 00000001400bf6c0 f   Status.obj
 0001:000be6e0       ?IsKeyboardChanged@CStatus@@AEAA_NXZ 00000001400bf6e0 f   Status.obj
 0001:000be7f0       ?IsWindowChanged@CStatus@@AEAA_NXZ 00000001400bf7f0 f   Status.obj
 0001:000be930       ?ShowVConMenu@CStatus@@AEAAXUtagPOINT@@@Z 00000001400bf930 f   Status.obj
 0001:000be970       ??_ECStatus@@UEAAPEAXI@Z   00000001400bf970 f i Status.obj
 0001:000be970       ??_GCStatus@@UEAAPEAXI@Z   00000001400bf970 f i Status.obj
 0001:000be9e0       ?InvalidateStatusBar@CStatus@@QEAAXPEAUtagRECT@@@Z 00000001400bf9e0 f   Status.obj
 0001:000beaa0       ?PaintStatus@CStatus@@QEAAXPEAUHDC__@@PEAUtagRECT@@@Z 00000001400bfaa0 f   Status.obj
 0001:000c00a0       ?UpdateStatusBar@CStatus@@QEAAX_N0@Z 00000001400c10a0 f   Status.obj
 0001:000c0140       ?SetClickedItemDesc@CStatus@@AEAAXW4CEStatusItems@@@Z 00000001400c1140 f   Status.obj
 0001:000c01c0       ?ShowStatusSetupMenu@CStatus@@AEAAXXZ 00000001400c11c0 f   Status.obj
 0001:000c0760       ?OnDataChanged@CStatus@@AEAA_NPEAW4CEStatusItems@@_K_N@Z 00000001400c1760 f   Status.obj
 0001:000c0860       ?OnWindowReposition@CStatus@@QEAAXPEBUtagRECT@@@Z 00000001400c1860 f   Status.obj
 0001:000c0cd0       ?OnCursorChanged@CStatus@@QEAAXPEBU_COORD@@PEBU_CONSOLE_CURSOR_INFO@@HH@Z 00000001400c1cd0 f   Status.obj
 0001:000c1190       ?OnConsoleBufferChanged@CStatus@@QEAAXPEAVCRealConsole@@@Z 00000001400c2190 f   Status.obj
 0001:000c13a0       ?OnServerChanged@CStatus@@QEAAXKK@Z 00000001400c23a0 f   Status.obj
 0001:000c1620       ?OnKeyboardChanged@CStatus@@QEAAXXZ 00000001400c2620 f   Status.obj
 0001:000c1680       ?OnTransparency@CStatus@@QEAAXXZ 00000001400c2680 f   Status.obj
 0001:000c1810       ?ProcessTransparentMenuId@CStatus@@AEAA_NG_N@Z 00000001400c2810 f   Status.obj
 0001:000c1940       ?ShowTransparencyMenu@CStatus@@AEAAXUtagPOINT@@@Z 00000001400c2940 f   Status.obj
 0001:000c1d80       ?UpdateStatusFont@CStatus@@QEAAXXZ 00000001400c2d80 f   Status.obj
 0001:000c1df0       ??0CStatus@@QEAA@XZ        00000001400c2df0 f   Status.obj
 0001:000c2130       ?ProcessStatusMessage@CStatus@@QEAA_NPEAUHWND__@@I_K_JUtagPOINT@@AEA_J@Z 00000001400c3130 f   Status.obj
 0001:000c2850       ?OnConsoleChanged@CStatus@@QEAAXPEBU_CONSOLE_SCREEN_BUFFER_INFO@@PEBU_CONSOLE_CURSOR_INFO@@_N@Z 00000001400c3850 f   Status.obj
 0001:000c2ba0       ?OnActiveVConChanged@CStatus@@QEAAXHPEAVCRealConsole@@@Z 00000001400c3ba0 f   Status.obj
 0001:000c2e90       ?ProcessMenuHighlight@CStatus@@QEAAXPEAUHMENU__@@GG@Z 00000001400c3e90 f   Status.obj
 0001:000c2fd0       ?OnTimer@CStatus@@QEAAXXZ  00000001400c3fd0 f   Status.obj
 0001:000c3170       ?CreateTabIcon@TabBarClass@@QEAAHPEB_W_N@Z 00000001400c4170 f   TabBar.obj
 0001:000c3190       ?GetCurSel@TabBarClass@@AEAAHXZ 00000001400c4190 f   TabBar.obj
 0001:000c31d0       ?NeedPostUpdate@TabBarClass@@QEAAHXZ 00000001400c41d0 f   TabBar.obj
 0001:000c31f0       ?RequestPostUpdate@TabBarClass@@IEAAXXZ 00000001400c41f0 f   TabBar.obj
 0001:000c3260       ?OnTimer@TabBarClass@@QEAA_J_K@Z 00000001400c4260 f   TabBar.obj
 0001:000c32d0       ?ToolProc@TabBarClass@@KA_JPEAUHWND__@@I_K_J@Z 00000001400c42d0 f   TabBar.obj
 0001:000c3610       ?IsTabsActive@TabBarClass@@QEAA_NXZ 00000001400c4610 f   TabBar.obj
 0001:000c3620       ?IsTabsShown@TabBarClass@@QEAA_NXZ 00000001400c4620 f   TabBar.obj
 0001:000c3650       ?UpdatePosition@TabBarClass@@QEAAXXZ 00000001400c4650 f   TabBar.obj
 0001:000c37a0       ?UpdateToolbarPos@TabBarClass@@AEAAXXZ 00000001400c47a0 f   TabBar.obj
 0001:000c38e0       ?GetTabText@TabBarClass@@AEAAPEB_WH@Z 00000001400c48e0 f   TabBar.obj
 0001:000c3960       ?OnMouse@TabBarClass@@QEAAXHHH@Z 00000001400c4960 f   TabBar.obj
 0001:000c3bc0       ?Invalidate@TabBarClass@@QEAAXXZ 00000001400c4bc0 f   TabBar.obj
 0001:000c3c00       ?OnWindowStateChanged@TabBarClass@@QEAAXXZ 00000001400c4c00 f   TabBar.obj
 0001:000c3c80       ?OnConsoleActivated@TabBarClass@@QEAAXH@Z 00000001400c4c80 f   TabBar.obj
 0001:000c3da0       ?OnBufferHeight@TabBarClass@@QEAAXH@Z 00000001400c4da0 f   TabBar.obj
 0001:000c3dd0       ?OnAlternative@TabBarClass@@QEAAXH@Z 00000001400c4dd0 f   TabBar.obj
 0001:000c3e00       ?CreateToolbar@TabBarClass@@QEAAPEAUHWND__@@XZ 00000001400c4e00 f   TabBar.obj
 0001:000c42c0       ?GetTabbarHeight@TabBarClass@@QEAAHXZ 00000001400c52c0 f   TabBar.obj
 0001:000c4380       ?IsInSwitch@TabBarClass@@QEAAHXZ 00000001400c5380 f   TabBar.obj
 0001:000c4390       ?SetRedraw@TabBarClass@@QEAAXH@Z 00000001400c5390 f   TabBar.obj
 0001:000c43a0       ?ShowTabError@TabBarClass@@AEAAXPEB_WH@Z 00000001400c53a0 f   TabBar.obj
 0001:000c4500       ?OnChooseTabPopup@TabBarClass@@QEAAXXZ 00000001400c5500 f   TabBar.obj
 0001:000c4580       ?UpdateTabFont@TabBarClass@@QEAAXXZ 00000001400c5580 f   TabBar.obj
 0001:000c4630       ?GetActiveTabRect@TabBarClass@@QEAAXPEAUtagRECT@@@Z 00000001400c5630 f   TabBar.obj
 0001:000c4710       ?Toolbar_GetBtnRect@TabBarClass@@QEAA_NHPEAUtagRECT@@@Z 00000001400c5710 f   TabBar.obj
 0001:000c4790       ?erase@?$MArray@Utag_FAR_WND_ID@TabBarClass@@@@QEAAX_J@Z 00000001400c5790 f i TabBar.obj
 0001:000c4800       ?Set@?$MMap@PEAUHWND__@@PEAVCVirtualConsole@@@@QEAA_NAEBQEAUHWND__@@AEBQEAVCVirtualConsole@@@Z 00000001400c5800 f i VConChild.obj
 0001:000c4800       ?Set@?$MMap@PEAVCVConGroup@@PEAVCVirtualConsole@@@@QEAA_NAEBQEAVCVConGroup@@AEBQEAVCVirtualConsole@@@Z 00000001400c5800 f i TabBar.obj
 0001:000c4960       ?SelectTab@TabBarClass@@AEAAXH@Z 00000001400c5960 f   TabBar.obj
 0001:000c49e0       ?GetVConFromTab@TabBarClass@@AEAAHHPEAPEAVCVirtualConsole@@PEAK@Z 00000001400c59e0 f   TabBar.obj
 0001:000c4aa0       ?TabHitTest@TabBarClass@@KA_J_NPEAH@Z 00000001400c5aa0 f   TabBar.obj
 0001:000c4c30       ?ReBarProc@TabBarClass@@KA_JPEAUHWND__@@I_K_J@Z 00000001400c5c30 f   TabBar.obj
 0001:000c4fd0       ?TabProc@TabBarClass@@KA_JPEAUHWND__@@I_K_J@Z 00000001400c5fd0 f   TabBar.obj
 0001:000c50f0       ?Deactivate@TabBarClass@@QEAAXH@Z 00000001400c60f0 f   TabBar.obj
 0001:000c5170       ?GetMargins@TabBarClass@@QEAA?AUtagRECT@@XZ 00000001400c6170 f   TabBar.obj
 0001:000c5220       ?Reposition@TabBarClass@@QEAAXXZ 00000001400c6220 f   TabBar.obj
 0001:000c54b0       ?OnCommand@TabBarClass@@QEAAX_K_J@Z 00000001400c64b0 f   TabBar.obj
 0001:000c5730       ?OnCaptionHidden@TabBarClass@@QEAAXXZ 00000001400c6730 f   TabBar.obj
 0001:000c5800       ?OnShowButtonsChanged@TabBarClass@@QEAAXXZ 00000001400c6800 f   TabBar.obj
 0001:000c5950       ?CanActivateTab@TabBarClass@@AEAAHH@Z 00000001400c6950 f   TabBar.obj
 0001:000c5a10       ??0TabBarClass@@QEAA@XZ    00000001400c6a10 f   TabBar.obj
 0001:000c5b70       ??1TabBarClass@@UEAA@XZ    00000001400c6b70 f   TabBar.obj
 0001:000c5c10       ?AddTab@TabBarClass@@AEAAXPEB_WH_NH@Z 00000001400c6c10 f   TabBar.obj
 0001:000c5d70       ?CreateRebar@TabBarClass@@QEAAXXZ 00000001400c6d70 f   TabBar.obj
 0001:000c6530       ?PrepareTab@TabBarClass@@AEAAHPEAUConEmuTab@@PEAVCVirtualConsole@@@Z 00000001400c7530 f   TabBar.obj
 0001:000c6d70       ?GetNextTab@TabBarClass@@AEAAHHH@Z 00000001400c7d70 f   TabBar.obj
 0001:000c7160       ?CheckStack@TabBarClass@@IEAAXXZ 00000001400c8160 f   TabBar.obj
 0001:000c7370       ??_GTabBarClass@@UEAAPEAXI@Z 00000001400c8370 f i TabBar.obj
 0001:000c7370       ??_ETabBarClass@@UEAAPEAXI@Z 00000001400c8370 f i TabBar.obj
 0001:000c73a0       ?Activate@TabBarClass@@QEAAXH@Z 00000001400c83a0 f   TabBar.obj
 0001:000c7420       ?Update@TabBarClass@@QEAAXH@Z 00000001400c8420 f   TabBar.obj
 0001:000c7e30       ?SwitchRollback@TabBarClass@@QEAAXXZ 00000001400c8e30 f   TabBar.obj
 0001:000c7e60       ?Retrieve@TabBarClass@@QEAAXXZ 00000001400c8e60 f   TabBar.obj
 0001:000c7ea0       ?FarSendChangeTab@TabBarClass@@AEAAPEAVCVirtualConsole@@H@Z 00000001400c8ea0 f   TabBar.obj
 0001:000c8000       ?OnNotify@TabBarClass@@QEAA_JPEAUtagNMHDR@@@Z 00000001400c9000 f   TabBar.obj
 0001:000c8430       ?Switch@TabBarClass@@QEAAXHH@Z 00000001400c9430 f   TabBar.obj
 0001:000c84a0       ?SwitchCommit@TabBarClass@@QEAAXXZ 00000001400c94a0 f   TabBar.obj
 0001:000c84f0       ?ActiveTabByName@TabBarClass@@QEAAHHPEB_WPEAPEAVCVirtualConsole@@@Z 00000001400c94f0 f   TabBar.obj
 0001:000c8660       ?SwitchNext@TabBarClass@@QEAAXH@Z 00000001400c9660 f   TabBar.obj
 0001:000c86d0       ?SwitchPrev@TabBarClass@@QEAAXH@Z 00000001400c96d0 f   TabBar.obj
 0001:000c8740       ?OnKeyboard@TabBarClass@@QEAAHI_K_J@Z 00000001400c9740 f   TabBar.obj
 0001:000c8850       ??0CTaskBar@@QEAA@XZ       00000001400c9850 f   TaskBar.obj
 0001:000c8880       ?Taskbar_Init@CTaskBar@@QEAAXXZ 00000001400c9880 f   TaskBar.obj
 0001:000c8970       ?Taskbar_Release@CTaskBar@@QEAAXXZ 00000001400c9970 f   TaskBar.obj
 0001:000c89e0       ?Taskbar_SetActiveTab@CTaskBar@@QEAAJPEAUHWND__@@@Z 00000001400c99e0 f   TaskBar.obj
 0001:000c8a50       ?Taskbar_GhostSnapshootRequired@CTaskBar@@QEAA_NXZ 00000001400c9a50 f   TaskBar.obj
 0001:000c8a60       ?Taskbar_RegisterTab@CTaskBar@@QEAAJPEAUHWND__@@H@Z 00000001400c9a60 f   TaskBar.obj
 0001:000c8b00       ?Taskbar_UnregisterTab@CTaskBar@@QEAAJPEAUHWND__@@@Z 00000001400c9b00 f   TaskBar.obj
 0001:000c8b30       ?Taskbar_AddTabXP@CTaskBar@@QEAAJPEAUHWND__@@@Z 00000001400c9b30 f   TaskBar.obj
 0001:000c8b50       ?Taskbar_DeleteTabXP@CTaskBar@@QEAAJPEAUHWND__@@@Z 00000001400c9b50 f   TaskBar.obj
 0001:000c8b70       ?Taskbar_SetProgressValue@CTaskBar@@QEAAJH@Z 00000001400c9b70 f   TaskBar.obj
 0001:000c8bb0       ?Taskbar_SetProgressState@CTaskBar@@QEAAJI@Z 00000001400c9bb0 f   TaskBar.obj
 0001:000c8be0       ?Taskbar_SetShield@CTaskBar@@QEAAX_N@Z 00000001400c9be0 f   TaskBar.obj
 0001:000c8c60       ?Taskbar_UpdateOverlay@CTaskBar@@QEAAXXZ 00000001400c9c60 f   TaskBar.obj
 0001:000c8cb0       ??1CTaskBar@@UEAA@XZ       00000001400c9cb0 f   TaskBar.obj
 0001:000c8ce0       ??_ECTaskBar@@UEAAPEAXI@Z  00000001400c9ce0 f i TaskBar.obj
 0001:000c8ce0       ??_GCTaskBar@@UEAAPEAXI@Z  00000001400c9ce0 f i TaskBar.obj
 0001:000c8d30       ??0CTaskBarGhost@@QEAA@PEAVCVirtualConsole@@@Z 00000001400c9d30 f   TaskBarGhost.obj
 0001:000c8dc0       ??1CTaskBarGhost@@UEAA@XZ  00000001400c9dc0 f   TaskBarGhost.obj
 0001:000c8e30       ?NeedSnapshootCache@CTaskBarGhost@@QEAA_NXZ 00000001400c9e30 f   TaskBarGhost.obj
 0001:000c8f00       ?CheckTitle@CTaskBarGhost@@QEAAPEB_WH@Z 00000001400c9f00 f   TaskBarGhost.obj
 0001:000c8fd0       ?ActivateTaskbar@CTaskBarGhost@@QEAAXXZ 00000001400c9fd0 f   TaskBarGhost.obj
 0001:000c8ff0       ?OnActivate@CTaskBarGhost@@IEAA_J_K_J@Z 00000001400c9ff0 f   TaskBarGhost.obj
 0001:000c9150       ?OnSysCommand@CTaskBarGhost@@IEAA_J_K_J@Z 00000001400ca150 f   TaskBarGhost.obj
 0001:000c9250       ?OnClose@CTaskBarGhost@@IEAA_JXZ 00000001400ca250 f   TaskBarGhost.obj
 0001:000c9290       ?GetPreviewPosSize@CTaskBarGhost@@IEAAXPEAUtagPOINT@@000@Z 00000001400ca290 f   TaskBarGhost.obj
 0001:000c93f0       ?OnDestroy@CTaskBarGhost@@IEAA_JXZ 00000001400ca3f0 f   TaskBarGhost.obj
 0001:000c9440       ??_ECTaskBarGhost@@UEAAPEAXI@Z 00000001400ca440 f i TaskBarGhost.obj
 0001:000c9440       ??_GCTaskBarGhost@@UEAAPEAXI@Z 00000001400ca440 f i TaskBarGhost.obj
 0001:000c9470       ?UpdateGhostSize@CTaskBarGhost@@IEAAXXZ 00000001400ca470 f   TaskBarGhost.obj
 0001:000c95b0       ?CreateTabSnapshoot@CTaskBarGhost@@QEAAHXZ 00000001400ca5b0 f   TaskBarGhost.obj
 0001:000c9a20       ?CreateThumbnail@CTaskBarGhost@@IEAAPEAUHBITMAP__@@HH@Z 00000001400caa20 f   TaskBarGhost.obj
 0001:000c9df0       ?OnDwmSendIconicThumbnail@CTaskBarGhost@@IEAA_JFF@Z 00000001400cadf0 f   TaskBarGhost.obj
 0001:000c9e40       ?OnDwmSendIconicLivePreviewBitmap@CTaskBarGhost@@IEAA_JXZ 00000001400cae40 f   TaskBarGhost.obj
 0001:000ca020       ?UpdateTabSnapshoot@CTaskBarGhost@@QEAAHHH@Z 00000001400cb020 f   TaskBarGhost.obj
 0001:000ca0e0       ?OnCreate@CTaskBarGhost@@IEAA_JXZ 00000001400cb0e0 f   TaskBarGhost.obj
 0001:000ca220       ?OnTimer@CTaskBarGhost@@IEAA_J_K@Z 00000001400cb220 f   TaskBarGhost.obj
 0001:000ca290       ?GhostProc@CTaskBarGhost@@IEAA_JI_K_J@Z 00000001400cb290 f   TaskBarGhost.obj
 0001:000ca480       ?GhostStatic@CTaskBarGhost@@KA_JPEAUHWND__@@I_K_J@Z 00000001400cb480 f   TaskBarGhost.obj
 0001:000ca5c0       ?Create@CTaskBarGhost@@SAPEAV1@PEAVCVirtualConsole@@@Z 00000001400cb5c0 f   TaskBarGhost.obj
 0001:000ca770       ?RemoveTrayIcon@TrayIcon@@QEAAX_N@Z 00000001400cb770 f   TrayIcon.obj
 0001:000ca7d0       ?UpdateTitle@TrayIcon@@QEAAXXZ 00000001400cb7d0 f   TrayIcon.obj
 0001:000ca890       ?LoadIconW@TrayIcon@@QEAAXPEAUHWND__@@H@Z 00000001400cb890 f   TrayIcon.obj
 0001:000ca8d0       ?AddTrayIcon@TrayIcon@@QEAAXXZ 00000001400cb8d0 f   TrayIcon.obj
 0001:000ca930       ?ShowTrayIcon@TrayIcon@@QEAAXPEB_WW4TrayIconMsgSource@@@Z 00000001400cb930 f   TrayIcon.obj
 0001:000caa20       ?HideWindowToTray@TrayIcon@@QEAAXPEB_W@Z 00000001400cba20 f   TrayIcon.obj
 0001:000cab30       ?RestoreWindowFromTray@TrayIcon@@QEAAX_N0@Z 00000001400cbb30 f   TrayIcon.obj
 0001:000caca0       ?OnTryIcon@TrayIcon@@QEAA_JPEAUHWND__@@I_K_J@Z 00000001400cbca0 f   TrayIcon.obj
 0001:000caf80       ?OnTaskbarCreated@TrayIcon@@QEAAXXZ 00000001400cbf80 f   TrayIcon.obj
 0001:000cafa0       ?SettingsChanged@TrayIcon@@QEAAXXZ 00000001400cbfa0 f   TrayIcon.obj
 0001:000cb020       ??0CConEmuUpdate@@QEAA@XZ  00000001400cc020 f   Update.obj
 0001:000cb120       ?ShowLastError@CConEmuUpdate@@QEAAXXZ 00000001400cc120 f   Update.obj
 0001:000cb1c0       ?ShowConfirmation@CConEmuUpdate@@QEAA_NXZ 00000001400cc1c0 f   Update.obj
 0001:000cb300       ?IsUpdatePackage@CConEmuUpdate@@SA_NPEB_W@Z 00000001400cc300 f   Update.obj
 0001:000cb440       ?InUpdate@CConEmuUpdate@@QEAA?AW4UpdateStep@1@XZ 00000001400cc440 f   Update.obj
 0001:000cb490       ?CloseInternet@CConEmuUpdate@@IEAAX_N@Z 00000001400cc490 f   Update.obj
 0001:000cb520       ?ReportErrorInt@CConEmuUpdate@@IEAAXPEA_W@Z 00000001400cc520 f   Update.obj
 0001:000cb5b0       ?ReportError@CConEmuUpdate@@IEAAXPEB_WK@Z 00000001400cc5b0 f   Update.obj
 0001:000cb630       ?ReportError@CConEmuUpdate@@IEAAXPEB_W0K@Z 00000001400cc630 f   Update.obj
 0001:000cb6e0       ?ReportError@CConEmuUpdate@@IEAAXPEB_W00K@Z 00000001400cc6e0 f   Update.obj
 0001:000cb7b0       ?DeleteBadTempFiles@CConEmuUpdate@@IEAAXXZ 00000001400cc7b0 f   Update.obj
 0001:000cb840       ?Check7zipInstalled@CConEmuUpdate@@IEAA_NXZ 00000001400cc840 f   Update.obj
 0001:000cb970       ?QueryConfirmationInt@CConEmuUpdate@@IEAA_NPEB_W@Z 00000001400cc970 f   Update.obj
 0001:000cbaa0       ?GetUpdateProgress@CConEmuUpdate@@QEAAFXZ 00000001400ccaa0 f   Update.obj
 0001:000cbbc0       ?Init@CWinInet@@QEAA_NPEAVCConEmuUpdate@@@Z 00000001400ccbc0 f i Update.obj
 0001:000cc880       ?StopChecking@CConEmuUpdate@@QEAAXXZ 00000001400cd880 f   Update.obj
 0001:000cc990       ?CreateTempFile@CConEmuUpdate@@IEAAPEA_WPEB_W0AEAPEAX@Z 00000001400cd990 f   Update.obj
 0001:000cce60       ?ReadSource@CConEmuUpdate@@IEAAHPEB_WHPEAXPEAEKPEAK@Z 00000001400cde60 f   Update.obj
 0001:000ccef0       ?WriteTarget@CConEmuUpdate@@IEAAHPEB_WPEAXPEBEK@Z 00000001400cdef0 f   Update.obj
 0001:000ccf90       ?QueryConfirmation@CConEmuUpdate@@IEAA_NW4UpdateStep@1@PEB_W@Z 00000001400cdf90 f   Update.obj
 0001:000cd1f0       ??$wcscat_c@$0GE@@@YAHAEAY0GE@_WPEB_W@Z 00000001400ce1f0 f i Update.obj
 0001:000cd2b0       ?CreateBatchFile@CConEmuUpdate@@IEAAPEA_WPEB_W@Z 00000001400ce2b0 f   Update.obj
 0001:000ce670       ?DownloadFile@CConEmuUpdate@@IEAAHPEB_W0PEAXAEAKH@Z 00000001400cf670 f   Update.obj
 0001:000cf220       ?NeedRunElevation@CConEmuUpdate@@IEAA_NXZ 00000001400d0220 f   Update.obj
 0001:000cf540       ?WaitAllInstances@CConEmuUpdate@@IEAAXXZ 00000001400d0540 f   Update.obj
 0001:000cf650       ??1CConEmuUpdate@@QEAA@XZ  00000001400d0650 f   Update.obj
 0001:000cf920       ?StartLocalUpdate@CConEmuUpdate@@IEAA_NPEB_W@Z 00000001400d0920 f   Update.obj
 0001:000cff50       ?CheckProcInt@CConEmuUpdate@@IEAAKXZ 00000001400d0f50 f   Update.obj
 0001:000d0bb0       ?CheckThreadProc@CConEmuUpdate@@KAKPEAX@Z 00000001400d1bb0 f   Update.obj
 0001:000d0c20       ?LocalUpdate@CConEmuUpdate@@SA_NPEB_W@Z 00000001400d1c20 f   Update.obj
 0001:000d0c80       ?StartCheckProcedure@CConEmuUpdate@@QEAAXH@Z 00000001400d1c80 f   Update.obj
 0001:000d0fc0       ??0ConEmuUpdateSettings@@QEAA@XZ 00000001400d1fc0 f   UpdateSet.obj
 0001:000d0fe0       ?ResetToDefaults@ConEmuUpdateSettings@@QEAAXXZ 00000001400d1fe0 f   UpdateSet.obj
 0001:000d1420       ?FreePointers@ConEmuUpdateSettings@@QEAAXXZ 00000001400d2420 f   UpdateSet.obj
 0001:000d14d0       ?LoadFrom@ConEmuUpdateSettings@@QEAAXPEAU1@@Z 00000001400d24d0 f   UpdateSet.obj
 0001:000d15d0       ?UpdateExeCmdLine@ConEmuUpdateSettings@@QEAAPEB_WXZ 00000001400d25d0 f   UpdateSet.obj
 0001:000d1600       ?UpdateArcCmdLine@ConEmuUpdateSettings@@QEAAPEB_WXZ 00000001400d2600 f   UpdateSet.obj
 0001:000d1630       ?CheckHourlyUpdate@ConEmuUpdateSettings@@QEAAXXZ 00000001400d2630 f   UpdateSet.obj
 0001:000d1680       ?UpdateVerLocation@ConEmuUpdateSettings@@QEAAPEB_WXZ 00000001400d2680 f   UpdateSet.obj
 0001:000d16a0       ??1ConEmuUpdateSettings@@QEAA@XZ 00000001400d26a0 f   UpdateSet.obj
 0001:000d16e0       ??$wcscat_c@$0BAG@@@YAHAEAY0BAG@_WPEB_W@Z 00000001400d26e0 f i UpdateSet.obj
 0001:000d17a0       ?UpdateDownloadSetup@ConEmuUpdateSettings@@QEAAEXZ 00000001400d27a0 f   UpdateSet.obj
 0001:000d19b0       ?UpdatesAllowed@ConEmuUpdateSettings@@QEAA_NAEAY0IA@_W@Z 00000001400d29b0 f   UpdateSet.obj
 0001:000d1ca0       ??0CConEmuChild@@QEAA@XZ   00000001400d2ca0 f   VConChild.obj
 0001:000d1e60       ?isAlreadyDestroyed@CConEmuChild@@QEAA_NXZ 00000001400d2e60 f   VConChild.obj
 0001:000d1e70       ?PostOnVConClosed@CConEmuChild@@IEAAXXZ 00000001400d2e70 f   VConChild.obj
 0001:000d1ee0       ?ProcessVConClosed@CConEmuChild@@SAXPEAVCVirtualConsole@@H@Z 00000001400d2ee0 f   VConChild.obj
 0001:000d1f70       ?CreateView@CConEmuChild@@QEAAPEAUHWND__@@XZ 00000001400d2f70 f   VConChild.obj
 0001:000d21a0       ?GetView@CConEmuChild@@QEAAPEAUHWND__@@XZ 00000001400d31a0 f   VConChild.obj
 0001:000d21b0       ?GetBack@CConEmuChild@@QEAAPEAUHWND__@@XZ 00000001400d31b0 f   VConChild.obj
 0001:000d21c0       ?ShowView@CConEmuChild@@QEAAHH@Z 00000001400d31c0 f   VConChild.obj
 0001:000d2390       ?PostRestoreChildFocus@CConEmuChild@@QEAAXXZ 00000001400d3390 f   VConChild.obj
 0001:000d23d0       ?OnPaintGaps@CConEmuChild@@QEAA_JXZ 00000001400d33d0 f   VConChild.obj
 0001:000d2500       ?OnSize@CConEmuChild@@IEAA_J_K_J@Z 00000001400d3500 f   VConChild.obj
 0001:000d2570       ?OnMove@CConEmuChild@@IEAA_J_K_J@Z 00000001400d3570 f   VConChild.obj
 0001:000d25e0       ?Redraw@CConEmuChild@@QEAAXXZ 00000001400d35e0 f   VConChild.obj
 0001:000d2680       ?SetRedraw@CConEmuChild@@QEAAXH@Z 00000001400d3680 f   VConChild.obj
 0001:000d26a0       ?Invalidate@CConEmuChild@@QEAAXXZ 00000001400d36a0 f   VConChild.obj
 0001:000d27b0       ?CheckMouseOverScroll@CConEmuChild@@QEAA_N_N@Z 00000001400d37b0 f   VConChild.obj
 0001:000d29a0       ?InScroll@CConEmuChild@@QEAA_NXZ 00000001400d39a0 f   VConChild.obj
 0001:000d29f0       ?MySetScrollInfo@CConEmuChild@@IEAAXHH@Z 00000001400d39f0 f   VConChild.obj
 0001:000d2b00       ?UpdateScrollRgn@CConEmuChild@@IEAAX_N@Z 00000001400d3b00 f   VConChild.obj
 0001:000d2c70       ?ShowScroll@CConEmuChild@@IEAAXH@Z 00000001400d3c70 f   VConChild.obj
 0001:000d3000       ?HideScroll@CConEmuChild@@IEAAXH@Z 00000001400d4000 f   VConChild.obj
 0001:000d32a0       ?IsDcLocked@CConEmuChild@@QEAAHPEAUtagRECT@@@Z 00000001400d42a0 f   VConChild.obj
 0001:000d3310       ?LockDcRect@CConEmuChild@@QEAAX_NPEAUtagRECT@@@Z 00000001400d4310 f   VConChild.obj
 0001:000d3490       ?SetAutoCopyTimer@CConEmuChild@@QEAAX_N@Z 00000001400d4490 f   VConChild.obj
 0001:000d34e0       ?PostDetach@CConEmuChild@@QEAAX_N@Z 00000001400d44e0 f   VConChild.obj
 0001:000d3500       ?DoDestroyDcWindow@CConEmuChild@@QEAAXXZ 00000001400d4500 f   VConChild.obj
 0001:000d3630       ?OnPaint@CConEmuChild@@QEAA_JXZ 00000001400d4630 f   VConChild.obj
 0001:000d3910       ?CheckPostRedraw@CConEmuChild@@QEAAXXZ 00000001400d4910 f   VConChild.obj
 0001:000d3950       ?SetVConSizePos@CConEmuChild@@QEAAXUtagRECT@@_N@Z 00000001400d4950 f   VConChild.obj
 0001:000d3aa0       ?TrackMouse@CConEmuChild@@QEAAHXZ 00000001400d4aa0 f   VConChild.obj
 0001:000d3b80       ?SetScroll@CConEmuChild@@QEAAXHHHH@Z 00000001400d4b80 f   VConChild.obj
 0001:000d3ca0       ??1CConEmuChild@@MEAA@XZ   00000001400d4ca0 f   VConChild.obj
 0001:000d3d00       ?ChildWndProc@CConEmuChild@@SA_JPEAUHWND__@@I_K_J@Z 00000001400d4d00 f   VConChild.obj
 0001:000d4550       ?BackWndProc@CConEmuChild@@SA_JPEAUHWND__@@I_K_J@Z 00000001400d5550 f   VConChild.obj
 0001:000d4bc0       ?OnAlwaysShowScrollbar@CConEmuChild@@QEAAX_N@Z 00000001400d5bc0 f   VConChild.obj
 0001:000d4cc0       ??_GCConEmuChild@@MEAAPEAXI@Z 00000001400d5cc0 f i VConChild.obj
 0001:000d4cc0       ??_ECConEmuChild@@MEAAPEAXI@Z 00000001400d5cc0 f i VConChild.obj
 0001:000d4d40       ?swprintf@@YAHPEA_WPEB_WZZ 00000001400d5d40 f i VConGroup.obj
 0001:000d4d70       ?Initialize@CVConGroup@@SAXXZ 00000001400d5d70 f   VConGroup.obj
 0001:000d4d80       ?Deinitialize@CVConGroup@@SAXXZ 00000001400d5d80 f   VConGroup.obj
 0001:000d4d90       ??0CVConGroup@@AEAA@PEAV0@@Z 00000001400d5d90 f   VConGroup.obj
 0001:000d4ef0       ?DeleteFromMainThread@CVConRelease@@QEAAXXZ 00000001400d5ef0 f   VConRelease.obj
 0001:000d4ef0       ?FinalRelease@CBackgroundInfo@@UEAAXXZ 00000001400d5ef0 f   Background.obj
 0001:000d4ef0       ?FinalRelease@CVConGroup@@MEAAXXZ 00000001400d5ef0 f   VConGroup.obj
 0001:000d4f10       ?OnVConDestroyed@CVConGroup@@SAXPEAVCVirtualConsole@@@Z 00000001400d5f10 f   VConGroup.obj
 0001:000d4f60       ?GetRootOfVCon@CVConGroup@@KAPEAV1@PEAVCVirtualConsole@@@Z 00000001400d5f60 f   VConGroup.obj
 0001:000d4fd0       ?MoveToParent@CVConGroup@@IEAAXPEAV1@@Z 00000001400d5fd0 f   VConGroup.obj
 0001:000d5090       ?GetAllTextSize@CVConGroup@@IEAAXAEAUtagSIZE@@_N@Z 00000001400d6090 f   VConGroup.obj
 0001:000d5200       ?LogString@CVConGroup@@SAXPEBDH@Z 00000001400d6200 f   VConGroup.obj
 0001:000d5250       ?LogString@CVConGroup@@SAXPEB_WH@Z 00000001400d6250 f   VConGroup.obj
 0001:000d52a0       ?LogInput@CVConGroup@@SAXI_K_JPEB_W@Z 00000001400d62a0 f   VConGroup.obj
 0001:000d5310       ?StopSignalAll@CVConGroup@@SAXXZ 00000001400d6310 f   VConGroup.obj
 0001:000d5360       ?DestroyAllVCon@CVConGroup@@SAXXZ 00000001400d6360 f   VConGroup.obj
 0001:000d53d0       ?OnDestroyConEmu@CVConGroup@@SAXXZ 00000001400d63d0 f   VConGroup.obj
 0001:000d5450       ?OnAlwaysShowScrollbar@CVConGroup@@SAX_N@Z 00000001400d6450 f   VConGroup.obj
 0001:000d54b0       ?CalcSplitRect@CVConGroup@@IEAAXUtagRECT@@AEAU2@11@Z 00000001400d64b0 f   VConGroup.obj
 0001:000d5900       ?CalcSplitRootRect@CVConGroup@@IEAAXUtagRECT@@AEAU2@PEAV1@@Z 00000001400d6900 f   VConGroup.obj
 0001:000d5a30       ?ShowAllVCon@CVConGroup@@IEAAXH@Z 00000001400d6a30 f   VConGroup.obj
 0001:000d5ad0       ?isValid@CVConGroup@@SA_NPEAVCRealConsole@@@Z 00000001400d6ad0 f   VConGroup.obj
 0001:000d5b50       ?isValid@CVConGroup@@SA_NPEAVCVirtualConsole@@@Z 00000001400d6b50 f   VConGroup.obj
 0001:000d5b80       ?isVConExists@CVConGroup@@SA_NH@Z 00000001400d6b80 f   VConGroup.obj
 0001:000d5ba0       ?isVConHWND@CVConGroup@@SA_NPEAUHWND__@@PEAVCVConGuard@@@Z 00000001400d6ba0 f   VConGroup.obj
 0001:000d5c60       ?isEditor@CVConGroup@@SA_NXZ 00000001400d6c60 f   VConGroup.obj
 0001:000d5c90       ?isViewer@CVConGroup@@SA_NXZ 00000001400d6c90 f   VConGroup.obj
 0001:000d5cc0       ?isFar@CVConGroup@@SA_N_N@Z 00000001400d6cc0 f   VConGroup.obj
 0001:000d5d00       ?isFarExist@CVConGroup@@SAHIPEA_WPEAVCVConGuard@@@Z 00000001400d6d00 f   VConGroup.obj
 0001:000d6090       ?GetActiveVCon@CVConGroup@@SAHPEAVCVConGuard@@PEAH@Z 00000001400d7090 f   VConGroup.obj
 0001:000d6110       ?GetVConIndex@CVConGroup@@SAHPEAVCVirtualConsole@@@Z 00000001400d7110 f   VConGroup.obj
 0001:000d6140       ?GetProgressInfo@CVConGroup@@SA_NPEAFPEAH11@Z 00000001400d7140 f   VConGroup.obj
 0001:000d62e0       ?UpdateWindowChild@CVConGroup@@SAXPEAVCVirtualConsole@@@Z 00000001400d72e0 f   VConGroup.obj
 0001:000d6360       ?Update@CVConGroup@@SAX_N@Z 00000001400d7360 f   VConGroup.obj
 0001:000d63d0       ?isActive@CVConGroup@@SA_NPEAVCVirtualConsole@@_N@Z 00000001400d73d0 f   VConGroup.obj
 0001:000d6430       ?isVisible@CVConGroup@@SA_NPEAVCVirtualConsole@@@Z 00000001400d7430 f   VConGroup.obj
 0001:000d64c0       ?isConSelectMode@CVConGroup@@SA_NXZ 00000001400d74c0 f   VConGroup.obj
 0001:000d64f0       ?isInCreateRoot@CVConGroup@@SA_NXZ 00000001400d74f0 f   VConGroup.obj
 0001:000d6590       ?isDetached@CVConGroup@@SA_NXZ 00000001400d7590 f   VConGroup.obj
 0001:000d6630       ?isFilePanel@CVConGroup@@SA_N_N@Z 00000001400d7630 f   VConGroup.obj
 0001:000d6670       ?isNtvdm@CVConGroup@@SA_NH@Z 00000001400d7670 f   VConGroup.obj
 0001:000d67a0       ?isOurConsoleWindow@CVConGroup@@SA_NPEAUHWND__@@@Z 00000001400d77a0 f   VConGroup.obj
 0001:000d6860       ?isOurWindow@CVConGroup@@SA_NPEAUHWND__@@@Z 00000001400d7860 f   VConGroup.obj
 0001:000d69a0       ?isOurGuiChildWindow@CVConGroup@@SA_NPEAUHWND__@@@Z 00000001400d79a0 f   VConGroup.obj
 0001:000d6aa0       ?isChildWindowVisible@CVConGroup@@SA_NXZ 00000001400d7aa0 f   VConGroup.obj
 0001:000d6b80       ?OnRConTimerCheck@CVConGroup@@SAXXZ 00000001400d7b80 f   VConGroup.obj
 0001:000d6c10       ?GetVCon@CVConGroup@@SA_NHPEAVCVConGuard@@@Z 00000001400d7c10 f   VConGroup.obj
 0001:000d6c60       ?GetVConFromPoint@CVConGroup@@SA_NUtagPOINT@@PEAVCVConGuard@@@Z 00000001400d7c60 f   VConGroup.obj
 0001:000d6d80       ?OnFlashWindow@CVConGroup@@SA_NKKPEAUHWND__@@@Z 00000001400d7d80 f   VConGroup.obj
 0001:000d6f40       ?ExportEnvVarAll@CVConGroup@@SAXPEAUCESERVER_REQ@@PEAVCRealConsole@@@Z 00000001400d7f40 f   VConGroup.obj
 0001:000d70c0       ?OnUpdateGuiInfoMapping@CVConGroup@@SAXPEAUConEmuGuiMapping@@@Z 00000001400d80c0 f   VConGroup.obj
 0001:000d7160       ?OnPanelViewSettingsChanged@CVConGroup@@SAXXZ 00000001400d8160 f   VConGroup.obj
 0001:000d71a0       ?OnTaskbarSettingsChanged@CVConGroup@@SAXXZ 00000001400d81a0 f   VConGroup.obj
 0001:000d7220       ?OnTaskbarCreated@CVConGroup@@SAXXZ 00000001400d8220 f   VConGroup.obj
 0001:000d72c0       ?isConsolePID@CVConGroup@@SA_NK@Z 00000001400d82c0 f   VConGroup.obj
 0001:000d7350       ?DoCloseAllVCon@CVConGroup@@SA_N_N@Z 00000001400d8350 f   VConGroup.obj
 0001:000d7520       ?OnUpdateScrollInfo@CVConGroup@@SAXXZ 00000001400d8520 f   VConGroup.obj
 0001:000d7620       ?OnUpdateFarSettings@CVConGroup@@SAXXZ 00000001400d8620 f   VConGroup.obj
 0001:000d76b0       ?OnUpdateTextColorSettings@CVConGroup@@SAXHH@Z 00000001400d86b0 f   VConGroup.obj
 0001:000d7760       ?OnUpdateProcessDisplay@CVConGroup@@SAXPEAUHWND__@@@Z 00000001400d8760 f   VConGroup.obj
 0001:000d7970       ?DoSrvCreated@CVConGroup@@SAPEAUHWND__@@KQEAU2@KAEAK11AEAHAEAPEAU2@@Z 00000001400d8970 f   VConGroup.obj
 0001:000d7ab0       ?FindNextPane@CVConGroup@@IEAAPEAV1@AEBUtagRECT@@HH@Z 00000001400d8ab0 f   VConGroup.obj
 0001:000d7d10       ?MoveActiveTab@CVConGroup@@SAXPEAVCVirtualConsole@@_N@Z 00000001400d8d10 f   VConGroup.obj
 0001:000d7db0       ?ActiveConNum@CVConGroup@@SAHXZ 00000001400d8db0 f   VConGroup.obj
 0001:000d7de0       ?GetConCount@CVConGroup@@SAH_N@Z 00000001400d8de0 f   VConGroup.obj
 0001:000d7e50       ?AttachRequested@CVConGroup@@SAHPEAUHWND__@@PEBUCESERVER_REQ_STARTSTOP@@PEAUCESERVER_REQ_STARTSTOPRET@@@Z 00000001400d8e50 f   VConGroup.obj
 0001:000d8200       ?AttachRequestedGui@CVConGroup@@SAPEAVCRealConsole@@PEB_WK@Z 00000001400d9200 f   VConGroup.obj
 0001:000d8290       ?CheckProcesses@CVConGroup@@SAKXZ 00000001400d9290 f   VConGroup.obj
 0001:000d8300       ?StoreActiveVCon@CVConGroup@@IEAAXPEAVCVirtualConsole@@@Z 00000001400d9300 f   VConGroup.obj
 0001:000d8350       ?InCreateGroup@CVConGroup@@SA_NXZ 00000001400d9350 f   VConGroup.obj
 0001:000d8360       ?OnCreateGroupBegin@CVConGroup@@SAXXZ 00000001400d9360 f   VConGroup.obj
 0001:000d83a0       ?OnCreateGroupEnd@CVConGroup@@SAXXZ 00000001400d93a0 f   VConGroup.obj
 0001:000d83d0       ?GetExclusionRgn@CVConGroup@@SAPEAUHRGN__@@_N@Z 00000001400d93d0 f   VConGroup.obj
 0001:000d84e0       ?CalcRect@CVConGroup@@SA?AUtagRECT@@W4ConEmuRect@@U2@0PEAVCVirtualConsole@@W4ConEmuMargins@@@Z 00000001400d94e0 f   VConGroup.obj
 0001:000d8cd0       ?AllTextRect@CVConGroup@@SA?AUtagRECT@@_N@Z 00000001400d9cd0 f   VConGroup.obj
 0001:000d8df0       ?SetRedraw@CVConGroup@@SAX_N@Z 00000001400d9df0 f   VConGroup.obj
 0001:000d8ea0       ?Redraw@CVConGroup@@SAXXZ  00000001400d9ea0 f   VConGroup.obj
 0001:000d8f30       ?InvalidateGaps@CVConGroup@@SAXXZ 00000001400d9f30 f   VConGroup.obj
 0001:000d8f50       ?PaintGaps@CVConGroup@@SAXPEAUHDC__@@@Z 00000001400d9f50 f   VConGroup.obj
 0001:000d90b0       ?GetFarPID@CVConGroup@@SAKH@Z 00000001400da0b0 f   VConGroup.obj
 0001:000d9100       ?OnVConCreated@CVConGroup@@SAXPEAVCVirtualConsole@@PEBURConStartArgs@@@Z 00000001400da100 f   VConGroup.obj
 0001:000d9160       ?OnGuiFocused@CVConGroup@@SAXHH@Z 00000001400da160 f   VConGroup.obj
 0001:000d9210       ?NotifyChildrenWindows@CVConGroup@@SAXXZ 00000001400da210 f   VConGroup.obj
 0001:000d92c0       ?CreateVConGroup@CVConGroup@@CAPEAV1@XZ 00000001400da2c0 f   VConGroup.obj
 0001:000d9300       ?SplitVConGroup@CVConGroup@@AEAAPEAV1@W4SplitType@RConStartArgs@@I@Z 00000001400da300 f   VConGroup.obj
 0001:000d94b0       ?RemoveGroup@CVConGroup@@IEAAXXZ 00000001400da4b0 f   VConGroup.obj
 0001:000d9580       ?RepositionVCon@CVConGroup@@IEAAXUtagRECT@@_N@Z 00000001400da580 f   VConGroup.obj
 0001:000d9920       ?ReSizeSplitter@CVConGroup@@IEAA_NH@Z 00000001400da920 f   VConGroup.obj
 0001:000d9d40       ?MoveAllVCon@CVConGroup@@SAXPEAVCVirtualConsole@@UtagRECT@@@Z 00000001400dad40 f   VConGroup.obj
 0001:000d9ee0       ?InvalidateAll@CVConGroup@@SAXXZ 00000001400daee0 f   VConGroup.obj
 0001:000d9f70       ?isActiveGroupVCon@CVConGroup@@SA_NPEAVCVirtualConsole@@@Z 00000001400daf70 f   VConGroup.obj
 0001:000d9fd0       ?isPictureView@CVConGroup@@SA_NXZ 00000001400dafd0 f   VConGroup.obj
 0001:000da1a0       ?OnConActivated@CVConGroup@@SAXPEAVCVirtualConsole@@@Z 00000001400db1a0 f   VConGroup.obj
 0001:000da1f0       ?SetConsoleSizes@CVConGroup@@IEAAXAEBU_COORD@@AEBUtagRECT@@_N@Z 00000001400db1f0 f   VConGroup.obj
 0001:000da5a0       ?SetAllConsoleWindowsSize@CVConGroup@@SAXUtagRECT@@W4ConEmuRect@@U_COORD@@_N@Z 00000001400db5a0 f   VConGroup.obj
 0001:000da750       ?SyncAllConsoles2Window@CVConGroup@@SAXUtagRECT@@W4ConEmuRect@@_N@Z 00000001400db750 f   VConGroup.obj
 0001:000da840       ?SyncConsoleToWindow@CVConGroup@@SAXPEAUtagRECT@@_N@Z 00000001400db840 f   VConGroup.obj
 0001:000da980       ?PreReSize@CVConGroup@@SA_NIUtagRECT@@W4ConEmuRect@@_N@Z 00000001400db980 f   VConGroup.obj
 0001:000dab80       ?OnConsoleResize@CVConGroup@@SAX_N@Z 00000001400dbb80 f   VConGroup.obj
 0001:000dae60       ?ReSizePanes@CVConGroup@@SAXUtagRECT@@@Z 00000001400dbe60 f   VConGroup.obj
 0001:000daf20       ?GetTasks@CVConGroup@@SAPEA_WPEAV1@@Z 00000001400dbf20 f   VConGroup.obj
 0001:000db250       ??$wcscat_c@$0BGI@@@YAHAEAY0BGI@_WPEB_W@Z 00000001400dc250 f i VConGroup.obj
 0001:000db310       ??_GCVConGroup@@MEAAPEAXI@Z 00000001400dc310 f i VConGroup.obj
 0001:000db310       ??_ECVConGroup@@MEAAPEAXI@Z 00000001400dc310 f i VConGroup.obj
 0001:000db370       ?ReSizeSplitter@CVConGroup@@SA_NPEAVCVirtualConsole@@HH@Z 00000001400dc370 f   VConGroup.obj
 0001:000db4d0       ?CloseQuery@CVConGroup@@CA_NPEAV?$MArray@PEAVCVConGuard@@@@PEA_N_N2@Z 00000001400dc4d0 f   VConGroup.obj
 0001:000db850       ?OnCloseQuery@CVConGroup@@SA_NPEA_N@Z 00000001400dc850 f   VConGroup.obj
 0001:000db8c0       ?CloseAllButActive@CVConGroup@@SAXPEAVCVirtualConsole@@@Z 00000001400dc8c0 f   VConGroup.obj
 0001:000dbac0       ?GetGroupPanes@CVConGroup@@AEAAHPEAV?$MArray@PEAVCVConGuard@@@@@Z 00000001400dcac0 f   VConGroup.obj
 0001:000dbb70       ?FreePanesArray@CVConGroup@@CAXAEAV?$MArray@PEAVCVConGuard@@@@@Z 00000001400dcb70 f   VConGroup.obj
 0001:000dbc70       ?ShowActiveGroup@CVConGroup@@KAXPEAVCVirtualConsole@@@Z 00000001400dcc70 f   VConGroup.obj
 0001:000dbd60       ?ConActivate@CVConGroup@@SA_NH@Z 00000001400dcd60 f   VConGroup.obj
 0001:000dc060       ?isGroup@CVConGroup@@SA_NPEAVCVirtualConsole@@PEAPEAV1@PEAVCVConGuard@@@Z 00000001400dd060 f   VConGroup.obj
 0001:000dc130       ?CloseGroup@CVConGroup@@SAXPEAVCVirtualConsole@@_N@Z 00000001400dd130 f   VConGroup.obj
 0001:000dc280       ?Activate@CVConGroup@@SA_NPEAVCVirtualConsole@@@Z 00000001400dd280 f   VConGroup.obj
 0001:000dc2f0       ?ConActivateNext@CVConGroup@@SA_N_N@Z 00000001400dd2f0 f   VConGroup.obj
 0001:000dc3d0       ?PaneActivateNext@CVConGroup@@SA_N_N@Z 00000001400dd3d0 f   VConGroup.obj
 0001:000dc5a0       ?ActivateNextPane@CVConGroup@@SA_NPEAVCVirtualConsole@@HH@Z 00000001400dd5a0 f   VConGroup.obj
 0001:000dc6a0       ?OnVConClosed@CVConGroup@@SAXPEAVCVirtualConsole@@@Z 00000001400dd6a0 f   VConGroup.obj
 0001:000dc960       ?CreateVCon@CVConGroup@@CAPEAVCVirtualConsole@@PEAURConStartArgs@@AEAPEAV2@@Z 00000001400dd960 f   VConGroup.obj
 0001:000dcb90       ?CreateCon@CVConGroup@@SAPEAVCVirtualConsole@@PEAURConStartArgs@@_N1@Z 00000001400ddb90 f   VConGroup.obj
 0001:000dd010       ??0CVConGuard@@QEAA@XZ     00000001400de010 f   VConRelease.obj
 0001:000dd040       ?Attach@CVConGuard@@QEAA_NPEAVCVirtualConsole@@@Z 00000001400de040 f   VConRelease.obj
 0001:000dd0f0       ??1CVConGuard@@QEAA@XZ     00000001400de0f0 f   VConRelease.obj
 0001:000dd140       ??4CVConGuard@@QEAAAEAV0@PEAVCVirtualConsole@@@Z 00000001400de140 f   VConRelease.obj
 0001:000dd160       ??CCVConGuard@@QEBAPEAVCVirtualConsole@@XZ 00000001400de160 f   VConRelease.obj
 0001:000dd160       ?VCon@CVConGuard@@QEAAPEAVCVirtualConsole@@XZ 00000001400de160 f   VConRelease.obj
 0001:000dd170       ?FinalRelease@CVConRelease@@MEAAXXZ 00000001400de170 f   VConRelease.obj
 0001:000dd1c0       ??0CVConGuard@@QEAA@PEAVCVirtualConsole@@@Z 00000001400de1c0 f   VConRelease.obj
 0001:000dd200       ?CursorStyle@AppSettings@Settings@@QEBA?AW4CECursorStyle@@_N@Z 00000001400de200 f i VirtualConsole.obj
 0001:000dd260       ?CursorColor@AppSettings@Settings@@QEBA_N_N@Z 00000001400de260 f i VirtualConsole.obj
 0001:000dd2c0       ?CursorMinSize@AppSettings@Settings@@QEBAE_N@Z 00000001400de2c0 f i VirtualConsole.obj
 0001:000dd320       ??1CVConRelease@@UEAA@XZ   00000001400de320 f i VirtualConsole.obj
 0001:000dd320       ??1CRefRelease@@MEAA@XZ    00000001400de320 f i Background.obj
 0001:000dd330       ??1CEDC@@QEAA@XZ           00000001400de330 f i VirtualConsole.obj
 0001:000dd360       ??_ECVConRelease@@UEAAPEAXI@Z 00000001400de360 f i VirtualConsole.obj
 0001:000dd360       ??_GCRefRelease@@MEAAPEAXI@Z 00000001400de360 f i Background.obj
 0001:000dd360       ??_ECRefRelease@@MEAAPEAXI@Z 00000001400de360 f i Background.obj
 0001:000dd360       ??_GCVConRelease@@UEAAPEAXI@Z 00000001400de360 f i VirtualConsole.obj
 0001:000dd390       ?InitGhost@CVirtualConsole@@QEAAXXZ 00000001400de390 f   VirtualConsole.obj
 0001:000dd3f0       ?OnDestroy@CVirtualConsole@@MEAAXXZ 00000001400de3f0 f   VirtualConsole.obj
 0001:000dd430       ?RCon@CVirtualConsole@@QEAAPEAVCRealConsole@@XZ 00000001400de430 f   VirtualConsole.obj
 0001:000dd440       ?GuiWnd@CVirtualConsole@@QEAAPEAUHWND__@@XZ 00000001400de440 f   VirtualConsole.obj
 0001:000dd460       ?setFocus@CVirtualConsole@@QEAAXXZ 00000001400de460 f   VirtualConsole.obj
 0001:000dd4c0       ?GhostWnd@CVirtualConsole@@QEAAPEAUHWND__@@XZ 00000001400de4c0 f   VirtualConsole.obj
 0001:000dd4e0       ?isVisible@CVirtualConsole@@QEAA_NXZ 00000001400de4e0 f   VirtualConsole.obj
 0001:000dd4f0       ?PointersZero@CVirtualConsole@@AEAAXXZ 00000001400de4f0 f   VirtualConsole.obj
 0001:000dd610       ?Dump@CVirtualConsole@@QEAA_NPEB_W@Z 00000001400de610 f   VirtualConsole.obj
 0001:000dd870       ?LoadDumpConsole@CVirtualConsole@@QEAA_NXZ 00000001400de870 f   VirtualConsole.obj
 0001:000dd970       ?isCharScroll@CVirtualConsole@@SA_N_W@Z 00000001400de970 f   VirtualConsole.obj
 0001:000dd9c0       ?isCharNonSpacing@CVirtualConsole@@SA_N_W@Z 00000001400de9c0 f   VirtualConsole.obj
 0001:000ddb00       ?isCharSpace@CVirtualConsole@@SA_N_W@Z 00000001400deb00 f   VirtualConsole.obj
 0001:000ddb20       ?isCharRTL@CVirtualConsole@@SA_N_W@Z 00000001400deb20 f   VirtualConsole.obj
 0001:000ddd60       ?PaintBackgroundImage@CVirtualConsole@@QEAAXAEBUtagRECT@@K@Z 00000001400ded60 f   VirtualConsole.obj
 0001:000de220       ?SelectFont@CVirtualConsole@@QEAAXUCEFONT@@@Z 00000001400df220 f   VirtualConsole.obj
 0001:000de400       ?CharWidth@CVirtualConsole@@IEAAG_W@Z 00000001400df400 f   VirtualConsole.obj
 0001:000de5d0       ?CheckChangedTextAttr@CVirtualConsole@@IEAA_NXZ 00000001400df5d0 f   VirtualConsole.obj
 0001:000de7f0       ?UpdateThumbnail@CVirtualConsole@@QEAAX_N@Z 00000001400df7f0 f   VirtualConsole.obj
 0001:000de850       ?GetColors@CVirtualConsole@@QEAAPEAKXZ 00000001400df850 f   VirtualConsole.obj
 0001:000de8e0       ?ClearPartBrushes@CVirtualConsole@@SAXXZ 00000001400df8e0 f   VirtualConsole.obj
 0001:000de930       ?PartBrush@CVirtualConsole@@KAPEAUHBRUSH__@@_WKK@Z 00000001400df930 f   VirtualConsole.obj
 0001:000dee70       ?UpdateCursorDraw@CVirtualConsole@@IEAAXPEAUHDC__@@UtagRECT@@U_COORD@@I@Z 00000001400dfe70 f   VirtualConsole.obj
 0001:000df580       ?UpdateCursor@CVirtualConsole@@QEAAXAEA_N@Z 00000001400e0580 f   VirtualConsole.obj
 0001:000df870       ?CreateBackBrush@CVirtualConsole@@AEAAPEAUHBRUSH__@@_NAEA_NPEAK@Z 00000001400e0870 f   VirtualConsole.obj
 0001:000df900       ?GetDcClientRect@CVirtualConsole@@QEAA?AUtagRECT@@XZ 00000001400e0900 f   VirtualConsole.obj
 0001:000df960       ?OnFontChanged@CVirtualConsole@@QEAAXXZ 00000001400e0960 f   VirtualConsole.obj
 0001:000df970       ?OnConsoleSizeReset@CVirtualConsole@@QEAAXGG@Z 00000001400e0970 f   VirtualConsole.obj
 0001:000df9a0       ?ConsoleToClient@CVirtualConsole@@QEAA?AUtagPOINT@@JJ@Z 00000001400e09a0 f   VirtualConsole.obj
 0001:000dfa80       ?ClientToConsole@CVirtualConsole@@QEAA?AU_COORD@@JJ_N@Z 00000001400e0a80 f   VirtualConsole.obj
 0001:000dfbb0       ?DistributeSpaces@CVirtualConsole@@AEAAXPEA_WPEAUtag_CharAttr@@PEAKHHH@Z 00000001400e0bb0 f   VirtualConsole.obj
 0001:000dfce0       ?GetExclusionRgn@CVirtualConsole@@QEAAPEAUHRGN__@@_N@Z 00000001400e0ce0 f   VirtualConsole.obj
 0001:000dfd50       ?FindOpaqueCell@CVirtualConsole@@QEAA?AU_COORD@@XZ 00000001400e0d50 f   VirtualConsole.obj
 0001:000dfe70       ?OnPanelViewSettingsChanged@CVirtualConsole@@QEAAXXZ 00000001400e0e70 f   VirtualConsole.obj
 0001:000dff50       ?IsPanelViews@CVirtualConsole@@QEAA_NXZ 00000001400e0f50 f   VirtualConsole.obj
 0001:000dffa0       ?CheckDialogsChanged@CVirtualConsole@@AEAA_NXZ 00000001400e0fa0 f   VirtualConsole.obj
 0001:000e0070       ?UpdatePanelRgn@CVirtualConsole@@AEAA_N_N00@Z 00000001400e1070 f   VirtualConsole.obj
 0001:000e0520       ?UpdatePanelView@CVirtualConsole@@AEAA_N_N0@Z 00000001400e1520 f   VirtualConsole.obj
 0001:000e0790       ?GetBackgroundObject@CVirtualConsole@@QEAAPEAVCBackgroundInfo@@XZ 00000001400e1790 f   VirtualConsole.obj
 0001:000e07c0       ?NeedBackgroundUpdate@CVirtualConsole@@QEAAXXZ 00000001400e17c0 f   VirtualConsole.obj
 0001:000e07e0       ?HasBackgroundImage@CVirtualConsole@@QEAA_NPEAJ0@Z 00000001400e17e0 f   VirtualConsole.obj
 0001:000e0850       ?OnTitleChanged@CVirtualConsole@@QEAAXXZ 00000001400e1850 f   VirtualConsole.obj
 0001:000e0870       ?SavePaneSnapshoot@CVirtualConsole@@QEAAXXZ 00000001400e1870 f   VirtualConsole.obj
 0001:000e08d0       ?OnTaskbarSettingsChanged@CVirtualConsole@@QEAAXXZ 00000001400e18d0 f   VirtualConsole.obj
 0001:000e0930       ?OnTaskbarFocus@CVirtualConsole@@QEAAXXZ 00000001400e1930 f   VirtualConsole.obj
 0001:000e0950       ?GetIntDC@CVirtualConsole@@IEAAPEAUHDC__@@XZ 00000001400e1950 f   VirtualConsole.obj
 0001:000e0960       ??0CVirtualConsole@@IEAA@XZ 00000001400e1960 f   VirtualConsole.obj
 0001:000e0af0       ??_ECVirtualConsole@@OBA@EAAPEAXI@Z 00000001400e1af0 f i VirtualConsole.obj
 0001:000e0b00       ?PointersFree@CVirtualConsole@@AEAAXXZ 00000001400e1b00 f   VirtualConsole.obj
 0001:000e0d20       ?PointersAlloc@CVirtualConsole@@AEAA_NXZ 00000001400e1d20 f   VirtualConsole.obj
 0001:000e0f90       ?InitDC@CVirtualConsole@@QEAA_N_N0PEAVMSectionLock@@1@Z 00000001400e1f90 f   VirtualConsole.obj
 0001:000e12f0       ?DumpConsole@CVirtualConsole@@QEAAXXZ 00000001400e22f0 f   VirtualConsole.obj
 0001:000e13b0       ?CharABC@CVirtualConsole@@IEAAX_WPEAU_ABC@@@Z 00000001400e23b0 f   VirtualConsole.obj
 0001:000e15a0       ?CheckTransparentRgn@CVirtualConsole@@IEAA_N_N@Z 00000001400e25a0 f   VirtualConsole.obj
 0001:000e1a60       ?UpdateText@CVirtualConsole@@IEAAXXZ 00000001400e2a60 f   VirtualConsole.obj
 0001:000e35b0       ?PolishPanelViews@CVirtualConsole@@AEAAXXZ 00000001400e45b0 f   VirtualConsole.obj
 0001:000e3c60       ?Constructor@CVirtualConsole@@IEAA_NPEAURConStartArgs@@@Z 00000001400e4c60 f   VirtualConsole.obj
 0001:000e42b0       ??1CVirtualConsole@@MEAA@XZ 00000001400e52b0 f   VirtualConsole.obj
 0001:000e44f0       ?CheckTransparent@CVirtualConsole@@QEAA_NXZ 00000001400e54f0 f   VirtualConsole.obj
 0001:000e45d0       ?LoadConsoleData@CVirtualConsole@@QEAA_NXZ 00000001400e55d0 f   VirtualConsole.obj
 0001:000e4910       ?UpdatePrepare@CVirtualConsole@@IEAA_NPEAPEAUHDC__@@PEAVMSectionLock@@1@Z 00000001400e5910 f   VirtualConsole.obj
 0001:000e4cd0       ?UpdateInfo@CVirtualConsole@@QEAAXXZ 00000001400e5cd0 f   VirtualConsole.obj
 0001:000e5010       ?InitName@?$MFileMapping@UCESERVER_CONSAVE_MAP@@@@QEAAPEB_WPEB_WKK@Z 00000001400e6010 f i RealBuffer.obj
 0001:000e5010       ?InitName@?$MFileMapping@UCESERVER_CONSOLE_MAPPING_HDR@@@@QEAAPEB_WPEB_WKK@Z 00000001400e6010 f i ConEmuCheck.obj
 0001:000e5010       ?InitName@?$MFileMapping@UConEmuGuiMapping@@@@QEAAPEB_WPEB_WKK@Z 00000001400e6010 f i ConEmu.obj
 0001:000e5010       ?InitName@?$MFileMapping@Utag_DetectedDialog@@@@QEAAPEB_WPEB_WKK@Z 00000001400e6010 f i VirtualConsole.obj
 0001:000e5010       ?InitName@?$MFileMapping@$$CBUCEFAR_INFO_MAPPING@@@@QEAAPEB_WPEB_WKK@Z 00000001400e6010 f i RealConsole.obj
 0001:000e5010       ?InitName@?$MFileMapping@UPanelViewSetMapping@@@@QEAAPEB_WPEB_WKK@Z 00000001400e6010 f i OptionsClass.obj
 0001:000e5010       ?InitName@?$MFileMapping@UAnnotationHeader@@@@QEAAPEB_WPEB_WKK@Z 00000001400e6010 f i RealConsole.obj
 0001:000e50c0       ??1?$MFileMapping@UCESERVER_CONSOLE_MAPPING_HDR@@@@QEAA@XZ 00000001400e60c0 f i ConEmuCheck.obj
 0001:000e50c0       ??1?$MFileMapping@UConEmuGuiMapping@@@@QEAA@XZ 00000001400e60c0 f i ConEmu.obj
 0001:000e50c0       ??1?$MFileMapping@UCESERVER_CONSAVE_MAPHDR@@@@QEAA@XZ 00000001400e60c0 f i RealBuffer.obj
 0001:000e50c0       ??1?$MFileMapping@$$CBUCEFAR_INFO_MAPPING@@@@QEAA@XZ 00000001400e60c0 f i RealConsole.obj
 0001:000e50c0       ??1?$MFileMapping@Utag_DetectedDialog@@@@QEAA@XZ 00000001400e60c0 f i VirtualConsole.obj
 0001:000e50c0       ??1?$MFileMapping@UPanelViewSetMapping@@@@QEAA@XZ 00000001400e60c0 f i OptionsClass.obj
 0001:000e50c0       ??1?$MFileMapping@UCESERVER_CONSAVE_MAP@@@@QEAA@XZ 00000001400e60c0 f i RealBuffer.obj
 0001:000e50c0       ??1?$MFileMapping@UAnnotationHeader@@@@QEAA@XZ 00000001400e60c0 f i RealConsole.obj
 0001:000e5120       ?InternalOpenCreate@?$MFileMapping@Utag_DetectedDialog@@@@IEAAPEAUtag_DetectedDialog@@HHH@Z 00000001400e6120 f i VirtualConsole.obj
 0001:000e5320       ??_ECVirtualConsole@@MEAAPEAXI@Z 00000001400e6320 f i VirtualConsole.obj
 0001:000e5320       ??_GCVirtualConsole@@MEAAPEAXI@Z 00000001400e6320 f i VirtualConsole.obj
 0001:000e5350       ?Update@CVirtualConsole@@QEAA_N_NPEAPEAUHDC__@@@Z 00000001400e6350 f   VirtualConsole.obj
 0001:000e5770       ?StretchPaint@CVirtualConsole@@QEAA_NPEAUHDC__@@HHHH@Z 00000001400e6770 f   VirtualConsole.obj
 0001:000e5860       ?PrintClient@CVirtualConsole@@QEAA_NPEAUHDC__@@_NQEAUtagRECT@@@Z 00000001400e6860 f   VirtualConsole.obj
 0001:000e5a50       ?OnConsoleSizeChanged@CVirtualConsole@@QEAAXXZ 00000001400e6a50 f   VirtualConsole.obj
 0001:000e5a90       ?RegisterPanelView@CVirtualConsole@@QEAA_NPEAUPanelViewInit@@@Z 00000001400e6a90 f   VirtualConsole.obj
 0001:000e5bf0       ?SetBackgroundImageData@CVirtualConsole@@QEAAHPEAUCESERVER_REQ_SETBACKGROUND@@@Z 00000001400e6bf0 f   VirtualConsole.obj
 0001:000e5c70       ?PaintVCon@CVirtualConsole@@QEAAXPEAUHDC__@@@Z 00000001400e6c70 f   VirtualConsole.obj
 0001:000e6bf0       ?ChangeScreenBufferSize@@YAXAEAU_CONSOLE_SCREEN_BUFFER_INFO@@FFFF@Z 00000001400e7bf0 f   WinConsole.obj
 0001:000e6c70       ?apiSetForegroundWindow@@YAHPEAUHWND__@@@Z 00000001400e7c70 f   WinObjects.obj
 0001:000e6c80       ?apiShowWindow@@YAHPEAUHWND__@@H@Z 00000001400e7c80 f   WinObjects.obj
 0001:000e6c90       ?isWindow@@YAHPEAUHWND__@@@Z 00000001400e7c90 f   WinObjects.obj
 0001:000e6d00       ?FileExists@@YA_NPEB_WPEAK@Z 00000001400e7d00 f   WinObjects.obj
 0001:000e6e90       ?DirectoryExists@@YA_NPEB_W@Z 00000001400e7e90 f   WinObjects.obj
 0001:000e6f80       ?MyCreateDirectory@@YA_NPEA_W@Z 00000001400e7f80 f   WinObjects.obj
 0001:000e7070       ?IsPathNeedQuot@@YA_NPEB_W@Z 00000001400e8070 f   WinObjects.obj
 0001:000e7090       ?IsUserAdmin@@YA_NXZ       00000001400e8090 f   WinObjects.obj
 0001:000e71b0       ?IsWine@@YA_NXZ            00000001400e81b0 f   WinObjects.obj
 0001:000e7250       ?IsDbcs@@YA_NXZ            00000001400e8250 f   WinObjects.obj
 0001:000e7270       ?IsWindows64@@YA_NXZ       00000001400e8270 f   WinObjects.obj
 0001:000e72a0       ?IsHwFullScreenAvailable@@YA_NXZ 00000001400e82a0 f   WinObjects.obj
 0001:000e7310       ?GetProcessBits@@YAHKPEAX@Z 00000001400e8310 f   WinObjects.obj
 0001:000e7400       ?GetProcessInfo@@YA_NKPEAUtagPROCESSENTRY32W@@@Z 00000001400e8400 f   WinObjects.obj
 0001:000e74d0       ?PointToName@@YAPEB_WPEB_W@Z 00000001400e84d0 f   WinObjects.obj
 0001:000e7510       ?PointToExt@@YAPEB_WPEB_W@Z 00000001400e8510 f   WinObjects.obj
 0001:000e7560       ?Unquote@@YAPEB_WPEA_W_N@Z 00000001400e8560 f   WinObjects.obj
 0001:000e75f0       ?ExpandEnvStr@@YAPEA_WPEB_W@Z 00000001400e85f0 f   WinObjects.obj
 0001:000e76c0       ?GetFullPathNameEx@@YAPEA_WPEB_W@Z 00000001400e86c0 f   WinObjects.obj
 0001:000e7760       ??0MEvent@@QEAA@XZ         00000001400e8760 f   WinObjects.obj
 0001:000e7780       ?Close@MEvent@@QEAAXXZ     00000001400e8780 f   WinObjects.obj
 0001:000e77c0       ?InitName@MEvent@@QEAAXPEB_WK@Z 00000001400e87c0 f   WinObjects.obj
 0001:000e7830       ?Open@MEvent@@QEAAPEAXXZ   00000001400e8830 f   WinObjects.obj
 0001:000e7890       ?Wait@MEvent@@QEAAKKH@Z    00000001400e8890 f   WinObjects.obj
 0001:000e78f0       ??0MSetter@@QEAA@PEA_N@Z   00000001400e88f0 f   WinObjects.obj
 0001:000e7910       ??0MSection@@QEAA@XZ       00000001400e8910 f   WinObjects.obj
 0001:000e79a0       ??1MSection@@QEAA@XZ       00000001400e89a0 f   WinObjects.obj
 0001:000e7a00       ?AddRef@MSection@@IEAAXK@Z 00000001400e8a00 f   WinObjects.obj
 0001:000e7aa0       ?ReleaseRef@MSection@@IEAAHK@Z 00000001400e8aa0 f   WinObjects.obj
 0001:000e7b50       ?WaitUnlocked@MSection@@IEAAXKK@Z 00000001400e8b50 f   WinObjects.obj
 0001:000e7c00       ?MyEnterCriticalSection@MSection@@IEAA_NK@Z 00000001400e8c00 f   WinObjects.obj
 0001:000e7dc0       ?Lock@MSection@@IEAAHHK@Z  00000001400e8dc0 f   WinObjects.obj
 0001:000e7ed0       ?Unlock@MSection@@IEAAXH@Z 00000001400e8ed0 f   WinObjects.obj
 0001:000e7f30       ??0MSectionLock@@QEAA@XZ   00000001400e8f30 f   WinObjects.obj
 0001:000e7f40       ?Lock@MSectionLock@@QEAAHPEAVMSection@@HK@Z 00000001400e8f40 f   WinObjects.obj
 0001:000e7fa0       ?Unlock@MSectionLock@@QEAAXXZ 00000001400e8fa0 f   WinObjects.obj
 0001:000e7fd0       ?isLocked@MSectionLock@@QEAAHH@Z 00000001400e8fd0 f   WinObjects.obj
 0001:000e7ff0       ??0MSectionLockSimple@@QEAA@XZ 00000001400e8ff0 f   WinObjects.obj
 0001:000e8000       ?Unlock@MSectionLockSimple@@QEAAXXZ 00000001400e9000 f   WinObjects.obj
 0001:000e8000       ??1MSectionLockSimple@@QEAA@XZ 00000001400e9000 f   WinObjects.obj
 0001:000e8030       ?InitFileName@MFileLog@@IEAAJPEB_WK@Z 00000001400e9030 f   WinObjects.obj
 0001:000e80d0       ?CloseLogFile@MFileLog@@QEAAXXZ 00000001400e90d0 f   WinObjects.obj
 0001:000e8130       ?GetLogFileName@MFileLog@@QEAAPEB_WXZ 00000001400e9130 f   WinObjects.obj
 0001:000e8150       ??0CToolTip@@QEAA@XZ       00000001400e9150 f   WinObjects.obj
 0001:000e81e0       ??1CToolTip@@UEAA@XZ       00000001400e91e0 f   WinObjects.obj
 0001:000e8260       ?HideTip@CToolTip@@QEAAXXZ 00000001400e9260 f   WinObjects.obj
 0001:000e82a0       ??0CTimer@@QEAA@XZ         00000001400e92a0 f   WinObjects.obj
 0001:000e82c0       ?IsStarted@CTimer@@QEAA_NXZ 00000001400e92c0 f   WinObjects.obj
 0001:000e82d0       ?Start@CTimer@@QEAAXI@Z    00000001400e92d0 f   WinObjects.obj
 0001:000e8310       ?Stop@CTimer@@QEAAXXZ      00000001400e9310 f   WinObjects.obj
 0001:000e8310       ??1CTimer@@QEAA@XZ         00000001400e9310 f   WinObjects.obj
 0001:000e8330       ?Init@CTimer@@QEAAXPEAUHWND__@@_KI@Z 00000001400e9330 f   WinObjects.obj
 0001:000e8390       ?GetEnvVar@@YAPEA_WPEB_WK@Z 00000001400e9390 f   WinObjects.obj
 0001:000e8480       ?SetEnvVarExpanded@@YAXPEB_W0@Z 00000001400e9480 f   WinObjects.obj
 0001:000e8560       ?FileExistsSearch@@YA_NPEA_W_K@Z 00000001400e9560 f   WinObjects.obj
 0001:000e8720       ?ExpandMacroValues@@YAPEA_WPEB_WPEAPEB_W_K@Z 00000001400e9720 f   WinObjects.obj
 0001:000e88f0       ??1MEvent@@QEAA@XZ         00000001400e98f0 f   WinObjects.obj
 0001:000e8930       ??1MSetter@@QEAA@XZ        00000001400e9930 f   WinObjects.obj
 0001:000e8970       ??1MSectionLock@@QEAA@XZ   00000001400e9970 f   WinObjects.obj
 0001:000e89b0       ?RelockExclusive@MSectionLock@@QEAAHK@Z 00000001400e99b0 f   WinObjects.obj
 0001:000e8a30       ?Lock@MSectionLockSimple@@QEAAHPEAU_RTL_CRITICAL_SECTION@@K@Z 00000001400e9a30 f   WinObjects.obj
 0001:000e8b00       ??0MFileLog@@QEAA@PEB_W0K@Z 00000001400e9b00 f   WinObjects.obj
 0001:000e8b70       ??1MFileLog@@QEAA@XZ       00000001400e9b70 f   WinObjects.obj
 0001:000e8bf0       ?LogString@MFileLog@@QEAAXPEB_W_N01@Z 00000001400e9bf0 f   WinObjects.obj
 0001:000e8e60       ?MonitorEnumProc@MFileLog@@KAHPEAUHMONITOR__@@PEAUHDC__@@PEAUtagRECT@@_J@Z 00000001400e9e60 f   WinObjects.obj
 0001:000e8fd0       ??_ECToolTip@@UEAAPEAXI@Z  00000001400e9fd0 f i WinObjects.obj
 0001:000e8fd0       ??_GCToolTip@@UEAAPEAXI@Z  00000001400e9fd0 f i WinObjects.obj
 0001:000e9000       ?ShowTip@CToolTip@@QEAAXPEAUHWND__@@0PEB_WHUtagPOINT@@PEAUHINSTANCE__@@@Z 00000001400ea000 f   WinObjects.obj
 0001:000e9330       ?UpdateComspec@@YAXPEAUConEmuComspec@@_N@Z 00000001400ea330 f   WinObjects.obj
 0001:000e95e0       ?GetComspecFromEnvVar@@YAPEB_WPEA_WKW4ComSpecBits@@@Z 00000001400ea5e0 f   WinObjects.obj
 0001:000e97b0       ?GetComspec@@YAPEA_WPEBUConEmuComspec@@@Z 00000001400ea7b0 f   WinObjects.obj
 0001:000e98c0       ?CopyToClipboard@@YA_NPEB_W@Z 00000001400ea8c0 f   WinObjects.obj
 0001:000e9980       ?getWindowInfo@@YAXPEAUHWND__@@AEAY0EAA@_W@Z 00000001400ea980 f   WinObjects.obj
 0001:000e9b70       ?RemoveOldComSpecC@@YAXXZ  00000001400eab70 f   WinObjects.obj
 0001:000e9d40       ?CreateLogFile@MFileLog@@QEAAJPEB_WKK@Z 00000001400ead40 f   WinObjects.obj
 0001:000ea140       ?LogString@MFileLog@@QEAAXPEBD_N01I@Z 00000001400eb140 f   WinObjects.obj
 0001:000ea290       ?LogStartEnv@MFileLog@@QEAAXPEAUCEStartupEnv@@@Z 00000001400eb290 f   WinObjects.obj
 0001:000ead30       ?FindComspec@@YAXPEAUConEmuComspec@@_N@Z 00000001400ebd30 f   WinObjects.obj
 0001:000eb82c       Module32FirstW             00000001400ec82c f   kernel32:KERNEL32.dll
 0001:000eb832       CreateToolhelp32Snapshot   00000001400ec832 f   kernel32:KERNEL32.dll
 0001:000eb838       Process32NextW             00000001400ec838 f   kernel32:KERNEL32.dll
 0001:000eb83e       Process32FirstW            00000001400ec83e f   kernel32:KERNEL32.dll
 0001:000eb844       Module32NextW              00000001400ec844 f   kernel32:KERNEL32.dll
 0001:000eb84a       VerQueryValueW             00000001400ec84a f   version:VERSION.dll
 0001:000eb850       GetFileVersionInfoW        00000001400ec850 f   version:VERSION.dll
 0001:000eb856       GetFileVersionInfoSizeW    00000001400ec856 f   version:VERSION.dll
 0001:000eb85c       NetApiBufferFree           00000001400ec85c f   Netapi32:NETAPI32.dll
 0001:000eb862       NetUserEnum                00000001400ec862 f   Netapi32:NETAPI32.dll
 0001:000eb868       wcschr                     00000001400ec868 f   LIBCMT:wcschr.obj
 0001:000eb8a0       memset                     00000001400ec8a0 f   LIBCMT:memset.obj
 0001:000eb98c       ??0_LocaleUpdate@@QEAA@PEAUlocaleinfo_struct@@@Z 00000001400ec98c f i LIBCMT:wcstol.obj
 0001:000ebc80       wcstol                     00000001400ecc80 f   LIBCMT:wcstol.obj
 0001:000ebcb0       wcstoul                    00000001400eccb0 f   LIBCMT:wcstol.obj
 0001:000ebce4       _isleadbyte_l              00000001400ecce4 f i LIBCMT:_wctype.obj
 0001:000ebd2c       isleadbyte                 00000001400ecd2c f i LIBCMT:_wctype.obj
 0001:000ebd74       iswdigit                   00000001400ecd74 f i LIBCMT:_wctype.obj
 0001:000ebd80       ?_GetEstablisherFrame@@YAPEA_KPEA_KPEAU_xDISPATCHER_CONTEXT@@PEBU_s_FuncInfo@@0@Z 00000001400ecd80 f   LIBCMT:trnsctrl.obj
 0001:000ebe6c       _GetImageBase              00000001400ece6c f   LIBCMT:trnsctrl.obj
 0001:000ebe84       _GetThrowImageBase         00000001400ece84 f   LIBCMT:trnsctrl.obj
 0001:000ebe9c       _SetImageBase              00000001400ece9c f   LIBCMT:trnsctrl.obj
 0001:000ebeb8       _SetThrowImageBase         00000001400eceb8 f   LIBCMT:trnsctrl.obj
 0001:000ebed4       ?__FrameUnwindToEmptyState@@YAXPEA_KPEAU_xDISPATCHER_CONTEXT@@PEBU_s_FuncInfo@@@Z 00000001400eced4 f   LIBCMT:trnsctrl.obj
 0001:000ebf80       __CxxFrameHandler3         00000001400ecf80 f   LIBCMT:trnsctrl.obj
 0001:000ec008       ?__SehTransFilter@@YAHPEAU_EXCEPTION_POINTERS@@PEAUEHExceptionRecord@@PEA_KPEAU_CONTEXT@@PEAU_xDISPATCHER_CONTEXT@@PEBU_s_FuncInfo@@PEAH@Z 00000001400ed008 f   LIBCMT:trnsctrl.obj
 0001:000ec0ac       _CallSETranslator          00000001400ed0ac f   LIBCMT:trnsctrl.obj
 0001:000ec100       ?_GetRangeOfTrysToCheck@@YAPEBU_s_TryBlockMapEntry@@PEA_KPEBU_s_FuncInfo@@HHPEAI2PEAU_xDISPATCHER_CONTEXT@@@Z 00000001400ed100 f   LIBCMT:trnsctrl.obj
 0001:000ec228       _CreateFrameInfo           00000001400ed228 f   LIBCMT:trnsctrl.obj
 0001:000ec26c       _IsExceptionObjectToBeDestroyed 00000001400ed26c f   LIBCMT:trnsctrl.obj
 0001:000ec2a0       _FindAndUnlinkFrame        00000001400ed2a0 f   LIBCMT:trnsctrl.obj
 0001:000ec300       _UnwindNestedFrames        00000001400ed300 f   LIBCMT:trnsctrl.obj
 0001:000ec3e8       wcspbrk                    00000001400ed3e8 f   LIBCMT:wcspbrk.obj
 0001:000ec420       _purecall                  00000001400ed420 f   LIBCMT:purevirt.obj
 0001:000ec470       memcpy                     00000001400ed470 f   LIBCMT:memcpy.obj
 0001:000ec470       memmove                    00000001400ed470     LIBCMT:memcpy.obj
 0001:000ec7a4       _initp_misc_winxfltr       00000001400ed7a4 f   LIBCMT:winxfltr.obj
 0001:000ec7a4       _fpclear                   00000001400ed7a4 f   LIBCMT:_fpinit_.obj
 0001:000ec7a8       _cfltcvt_init              00000001400ed7a8 f   LIBCMT:_fpinit_.obj
 0001:000ec830       _fpmath                    00000001400ed830 f   LIBCMT:_fpinit_.obj
 0001:000ec838       __onexitinit               00000001400ed838 f   LIBCMT:onexit.obj
 0001:000ec87c       _onexit                    00000001400ed87c f   LIBCMT:onexit.obj
 0001:000ec984       atexit                     00000001400ed984 f   LIBCMT:onexit.obj
 0001:000ec99c       wcsncmp                    00000001400ed99c f   LIBCMT:wcsncmp.obj
 0001:000ec9cc       wcsrchr                    00000001400ed9cc f   LIBCMT:wcsrchr.obj
 0001:000ec9f8       wcsstr                     00000001400ed9f8 f   LIBCMT:wcsstr.obj
 0001:000eca70       memcmp                     00000001400eda70 f   LIBCMT:memcmp.obj
 0001:000ecb38       _wtoi                      00000001400edb38 f   LIBCMT:wtox.obj
 0001:000ecb38       _wtol                      00000001400edb38 f   LIBCMT:wtox.obj
 0001:000ecb44       strchr                     00000001400edb44 f   LIBCMT:strchr.obj
 0001:000ecde4       strtol                     00000001400edde4 f   LIBCMT:strtol.obj
 0001:000ece14       strtoul                    00000001400ede14 f   LIBCMT:strtol.obj
 0001:000ece48       memmove_s                  00000001400ede48 f   LIBCMT:memmove_s.obj
 0001:000eceac       __C_specific_handler       00000001400edeac f   LIBCMT:chandler.obj
 0001:000ed0c0       _ltow                      00000001400ee0c0 f   LIBCMT:xtow.obj
 0001:000ed0ec       memchr                     00000001400ee0ec f   LIBCMT:memchr.obj
 0001:000ed108       wcsncpy                    00000001400ee108 f   LIBCMT:wcsncpy.obj
 0001:000ed150       _wcsnicmp_l                00000001400ee150 f   LIBCMT:wcsnicmp.obj
 0001:000ed27c       _wcsnicmp                  00000001400ee27c f   LIBCMT:wcsnicmp.obj
 0001:000ed324       _vswprintf_l               00000001400ee324 f   LIBCMT:vswprint.obj
 0001:000ed3d0       _vswprintf                 00000001400ee3d0 f   LIBCMT:vswprint.obj
 0001:000ed3dc       strrchr                    00000001400ee3dc f   LIBCMT:strrchr.obj
 0001:000ed5e0       WinMainCRTStartup          00000001400ee5e0 f   LIBCMT:wincrt0.obj
 0001:000ed86c       __updatetmbcinfo           00000001400ee86c f   LIBCMT:mbctype.obj
 0001:000ed9b8       _setmbcp_nolock            00000001400ee9b8 f   LIBCMT:mbctype.obj
 0001:000edc30       _setmbcp                   00000001400eec30 f   LIBCMT:mbctype.obj
 0001:000ede28       __initmbctable             00000001400eee28 f   LIBCMT:mbctype.obj
 0001:000ede50       __freetlocinfo             00000001400eee50 f   LIBCMT:setlocal.obj
 0001:000edfcc       __addlocaleref             00000001400eefcc f   LIBCMT:setlocal.obj
 0001:000ee064       __removelocaleref          00000001400ef064 f   LIBCMT:setlocal.obj
 0001:000ee164       __updatetlocinfo           00000001400ef164 f   LIBCMT:setlocal.obj
 0001:000ee1dc       _encode_pointer            00000001400ef1dc f   LIBCMT:tidtable.obj
 0001:000ee1e4       _encoded_null              00000001400ef1e4 f   LIBCMT:tidtable.obj
 0001:000ee1f0       _decode_pointer            00000001400ef1f0 f   LIBCMT:tidtable.obj
 0001:000ee1f8       _mtterm                    00000001400ef1f8 f   LIBCMT:tidtable.obj
 0001:000ee220       _initptd                   00000001400ef220 f   LIBCMT:tidtable.obj
 0001:000ee2d4       _getptd_noexit             00000001400ef2d4 f   LIBCMT:tidtable.obj
 0001:000ee358       _getptd                    00000001400ef358 f   LIBCMT:tidtable.obj
 0001:000ee37c       _freefls                   00000001400ef37c f   LIBCMT:tidtable.obj
 0001:000ee4b4       _mtinit                    00000001400ef4b4 f   LIBCMT:tidtable.obj
 0001:000ee538       _wchartodigit              00000001400ef538 f   LIBCMT:wchtodig.obj
 0001:000ee6d0       _iswctype_l                00000001400ef6d0 f   LIBCMT:iswctype.obj
 0001:000ee78c       iswctype                   00000001400ef78c f   LIBCMT:iswctype.obj
 0001:000ee81c       _initp_misc_invarg         00000001400ef81c f   LIBCMT:invarg.obj
 0001:000ee824       _invoke_watson             00000001400ef824 f   LIBCMT:invarg.obj
 0001:000ee94c       _invalid_parameter         00000001400ef94c f   LIBCMT:invarg.obj
 0001:000ee9d4       _get_errno_from_oserr      00000001400ef9d4 f   LIBCMT:dosmap.obj
 0001:000eea1c       _errno                     00000001400efa1c f   LIBCMT:dosmap.obj
 0001:000eea3c       __doserrno                 00000001400efa3c f   LIBCMT:dosmap.obj
 0001:000eea5c       _dosmaperr                 00000001400efa5c f   LIBCMT:dosmap.obj
 0001:000eeaa4       ?__StateFromIp@@YAHPEBU_s_FuncInfo@@PEAU_xDISPATCHER_CONTEXT@@_J@Z 00000001400efaa4 f   LIBCMT:ehstate.obj
 0001:000eeb30       ?__StateFromControlPc@@YAHPEBU_s_FuncInfo@@PEAU_xDISPATCHER_CONTEXT@@@Z 00000001400efb30 f   LIBCMT:ehstate.obj
 0001:000eeb38       ?__GetCurrentState@@YAHPEA_KPEAU_xDISPATCHER_CONTEXT@@PEBU_s_FuncInfo@@@Z 00000001400efb38 f   LIBCMT:ehstate.obj
 0001:000eeb60       ?__SetState@@YAXPEA_KPEAU_xDISPATCHER_CONTEXT@@PEBU_s_FuncInfo@@H@Z 00000001400efb60 f   LIBCMT:ehstate.obj
 0001:000eeb6c       ?__SetUnwindTryBlock@@YAXPEA_KPEAU_xDISPATCHER_CONTEXT@@PEBU_s_FuncInfo@@H@Z 00000001400efb6c f   LIBCMT:ehstate.obj
 0001:000eeba8       ?__GetUnwindTryBlock@@YAHPEA_KPEAU_xDISPATCHER_CONTEXT@@PEBU_s_FuncInfo@@@Z 00000001400efba8 f   LIBCMT:ehstate.obj
 0001:000eebd4       ??1bad_exception@std@@UEAA@XZ 00000001400efbd4 f i LIBCMT:frame.obj
 0001:000eebe4       ??_Gbad_exception@std@@UEAAPEAXI@Z 00000001400efbe4 f i LIBCMT:frame.obj
 0001:000eebe4       ??_Ebad_exception@std@@UEAAPEAXI@Z 00000001400efbe4 f i LIBCMT:frame.obj
 0001:000eec20       __TypeMatch                00000001400efc20 f   LIBCMT:frame.obj
 0001:000eed44       __FrameUnwindFilter        00000001400efd44 f   LIBCMT:frame.obj
 0001:000eed90       __FrameUnwindToState       00000001400efd90 f   LIBCMT:frame.obj
 0001:000eef24       __DestructExceptionObject  00000001400eff24 f   LIBCMT:frame.obj
 0001:000eef68       __AdjustPointer            00000001400eff68 f   LIBCMT:frame.obj
 0001:000ef060       __CxxCallCatchBlock        00000001400f0060 f   LIBCMT:frame.obj
 0001:000ef2a0       __BuildCatchObjectHelper   00000001400f02a0 f   LIBCMT:frame.obj
 0001:000ef4c8       __BuildCatchObject         00000001400f04c8 f   LIBCMT:frame.obj
 0001:000efddc       ??0bad_exception@std@@QEAA@AEBV01@@Z 00000001400f0ddc f i LIBCMT:frame.obj
 0001:000efe00       __InternalCxxFrameHandler  00000001400f0e00 f   LIBCMT:frame.obj
 0001:000f0028       ?terminate@@YAXXZ          00000001400f1028 f   LIBCMT:hooks.obj
 0001:000f004c       ?_inconsistency@@YAXXZ     00000001400f104c f   LIBCMT:hooks.obj
 0001:000f0070       _initp_eh_hooks            00000001400f1070 f   LIBCMT:hooks.obj
 0001:000f008c       abort                      00000001400f108c f   LIBCMT:abort.obj
 0001:000f0130       _set_abort_behavior        00000001400f1130 f   LIBCMT:abort.obj
 0001:000f014c       _NMSG_WRITE                00000001400f114c f   LIBCMT:crt0msg.obj
 0001:000f0374       _FF_MSGBANNER              00000001400f1374 f   LIBCMT:crt0msg.obj
 0001:000f03b8       _initp_misc_purevirt       00000001400f13b8 f   LIBCMT:inithelp.obj
 0001:000f03c0       _forcdecpt_l               00000001400f13c0 f   LIBCMT:cvt.obj
 0001:000f0440       _cropzeros_l               00000001400f1440 f   LIBCMT:cvt.obj
 0001:000f04e0       _positive                  00000001400f14e0 f   LIBCMT:cvt.obj
 0001:000f04f8       _fassign_l                 00000001400f14f8 f   LIBCMT:cvt.obj
 0001:000f053c       _fassign                   00000001400f153c f   LIBCMT:cvt.obj
 0001:000f0544       _forcdecpt                 00000001400f1544 f   LIBCMT:cvt.obj
 0001:000f054c       _cropzeros                 00000001400f154c f   LIBCMT:cvt.obj
 0001:000f07ac       _cftoe_l                   00000001400f17ac f   LIBCMT:cvt.obj
 0001:000f08b8       _cftoa_l                   00000001400f18b8 f   LIBCMT:cvt.obj
 0001:000f0ea8       _cftof_l                   00000001400f1ea8 f   LIBCMT:cvt.obj
 0001:000f0f90       _cftog_l                   00000001400f1f90 f   LIBCMT:cvt.obj
 0001:000f10d4       _cfltcvt_l                 00000001400f20d4 f   LIBCMT:cvt.obj
 0001:000f116c       _cfltcvt                   00000001400f216c f   LIBCMT:cvt.obj
 0001:000f1190       _initp_misc_cfltcvt_tab    00000001400f2190 f   LIBCMT:cmiscdat.obj
 0001:000f11c8       _malloc_crt                00000001400f21c8 f   LIBCMT:crtheap.obj
 0001:000f1234       _calloc_crt                00000001400f2234 f   LIBCMT:crtheap.obj
 0001:000f12b8       _realloc_crt               00000001400f22b8 f   LIBCMT:crtheap.obj
 0001:000f1340       _msize                     00000001400f2340 f   LIBCMT:msize.obj
 0001:000f1388       _amsg_exit                 00000001400f2388 f   LIBCMT:crt0dat.obj
 0001:000f13b8       __crtCorExitProcess        00000001400f23b8 f   LIBCMT:crt0dat.obj
 0001:000f13f4       __crtExitProcess           00000001400f23f4 f   LIBCMT:crt0dat.obj
 0001:000f140c       _lockexit                  00000001400f240c f   LIBCMT:crt0dat.obj
 0001:000f1418       _unlockexit                00000001400f2418 f   LIBCMT:crt0dat.obj
 0001:000f1458       _initterm_e                00000001400f2458 f   LIBCMT:crt0dat.obj
 0001:000f1494       _cinit                     00000001400f2494 f   LIBCMT:crt0dat.obj
 0001:000f16d0       exit                       00000001400f26d0 f   LIBCMT:crt0dat.obj
 0001:000f16dc       _exit                      00000001400f26dc f   LIBCMT:crt0dat.obj
 0001:000f16e8       _cexit                     00000001400f26e8 f   LIBCMT:crt0dat.obj
 0001:000f16f8       _c_exit                    00000001400f26f8 f   LIBCMT:crt0dat.obj
 0001:000f1708       _init_pointers             00000001400f2708 f   LIBCMT:crt0dat.obj
 0001:000f1770       _isctype_l                 00000001400f2770 f   LIBCMT:isctype.obj
 0001:000f1890       _local_unwind              00000001400f2890 f   LIBCMT:jmpuwind.obj
 0001:000f18c0       _NLG_Notify                00000001400f28c0 f   LIBCMT:jmpuwind.obj
 0001:000f18e0       __NLG_Dispatch2            00000001400f28e0 f   LIBCMT:jmpuwind.obj
 0001:000f18f0       __NLG_Return2              00000001400f28f0 f   LIBCMT:jmpuwind.obj
 0001:000f1900       _ValidateImageBase         00000001400f2900 f   LIBCMT:pesect.obj
 0001:000f1930       _FindPESection             00000001400f2930 f   LIBCMT:pesect.obj
 0001:000f1980       _IsNonwritableInCurrentImage 00000001400f2980 f   LIBCMT:pesect.obj
 0001:000f19c4       _towlower_l                00000001400f29c4 f   LIBCMT:towlower.obj
 0001:000f1ac0       _flsbuf                    00000001400f2ac0 f   LIBCMT:_flsbuf.obj
 0001:000f1d60       _woutput_l                 00000001400f2d60 f   LIBCMT:woutput.obj
 0001:000f2870       ?__CxxUnhandledExceptionFilter@@YAJPEAU_EXCEPTION_POINTERS@@@Z 00000001400f3870 f   LIBCMT:unhandld.obj
 0001:000f28b4       __CxxSetUnhandledExceptionFilter 00000001400f38b4 f   LIBCMT:unhandld.obj
 0001:000f28cc       _XcptFilter                00000001400f38cc f   LIBCMT:winxfltr.obj
 0001:000f2a9c       _wincmdln                  00000001400f3a9c f   LIBCMT:wincmdln.obj
 0001:000f2b18       _setenvp                   00000001400f3b18 f   LIBCMT:stdenvp.obj
 0001:000f2e18       _setargv                   00000001400f3e18 f   LIBCMT:stdargv.obj
 0001:000f2f10       __crtGetEnvironmentStringsA 00000001400f3f10 f   LIBCMT:a_env.obj
 0001:000f30c4       _ioinit                    00000001400f40c4 f   LIBCMT:ioinit.obj
 0001:000f33b4       _RTC_Initialize            00000001400f43b4 f   LIBCMT:_initsect_.obj
 0001:000f33ec       _RTC_Terminate             00000001400f43ec f   LIBCMT:_initsect_.obj
 0001:000f3424       _heap_init                 00000001400f4424 f   LIBCMT:heapinit.obj
 0001:000f3470       __security_init_cookie     00000001400f4470 f   LIBCMT:gs_support.obj
 0001:000f3524       __GSHandlerCheckCommon     00000001400f4524 f   LIBCMT:gshandler.obj
 0001:000f3588       __GSHandlerCheck           00000001400f4588 f   LIBCMT:gshandler.obj
 0001:000f3ae8       __crtLCMapStringA          00000001400f4ae8 f   LIBCMT:a_map.obj
 0001:000f3dec       __crtGetStringTypeA        00000001400f4dec f   LIBCMT:a_str.obj
 0001:000f3e90       __security_check_cookie    00000001400f4e90 f   LIBCMT:amdsecgs.obj
 0001:000f3eb0       _mtinitlocks               00000001400f4eb0 f   LIBCMT:mlock.obj
 0001:000f3f3c       _mtdeletelocks             00000001400f4f3c f   LIBCMT:mlock.obj
 0001:000f3fc0       _unlock                    00000001400f4fc0 f   LIBCMT:mlock.obj
 0001:000f3fd8       _mtinitlocknum             00000001400f4fd8 f   LIBCMT:mlock.obj
 0001:000f40c0       _lock                      00000001400f50c0 f   LIBCMT:mlock.obj
 0001:000f4104       free                       00000001400f5104 f   LIBCMT:free.obj
 0001:000f4144       __free_lc_time             00000001400f5144 f   LIBCMT:inittime.obj
 0001:000f4330       __free_lconv_num           00000001400f5330 f   LIBCMT:initnum.obj
 0001:000f4378       __free_lconv_mon           00000001400f5378 f   LIBCMT:initmon.obj
 0001:000f4410       strcat_s                   00000001400f5410 f   LIBCMT:strcat_s.obj
 0001:000f449c       strncpy_s                  00000001400f549c f   LIBCMT:strncpy_s.obj
 0001:000f4574       strcpy_s                   00000001400f5574 f   LIBCMT:strcpy_s.obj
 0001:000f4600       strcmp                     00000001400f5600 f   LIBCMT:strcmp.obj
 0001:000f46c0       strlen                     00000001400f56c0 f   LIBCMT:strlen.obj
 0001:000f4780       strncmp                    00000001400f5780 f   LIBCMT:strncmp.obj
 0001:000f4838       __crtGetStringTypeW        00000001400f5838 f   LIBCMT:w_str.obj
 0001:000f489c       __crt_debugger_hook        00000001400f589c f   LIBCMT:dbghook.obj
 0001:000f48a4       ??0exception@std@@QEAA@AEBQEBD@Z 00000001400f58a4 f   LIBCMT:stdexcpt.obj
 0001:000f4918       ??0exception@std@@QEAA@AEBV01@@Z 00000001400f5918 f   LIBCMT:stdexcpt.obj
 0001:000f4998       ??1exception@std@@UEAA@XZ  00000001400f5998 f   LIBCMT:stdexcpt.obj
 0001:000f49bc       ?what@exception@std@@UEBAPEBDXZ 00000001400f59bc f   LIBCMT:stdexcpt.obj
 0001:000f49d0       ??_Gexception@std@@UEAAPEAXI@Z 00000001400f59d0 f i LIBCMT:stdexcpt.obj
 0001:000f49d0       ??_Eexception@std@@UEAAPEAXI@Z 00000001400f59d0 f i LIBCMT:stdexcpt.obj
 0001:000f4a00       ??_Gtype_info@@UEAAPEAXI@Z 00000001400f5a00 f i LIBCMT:typinfo.obj
 0001:000f4a00       ??_Etype_info@@UEAAPEAXI@Z 00000001400f5a00 f i LIBCMT:typinfo.obj
 0001:000f4a3c       ??8type_info@@QEBA_NAEBV0@@Z 00000001400f5a3c f   LIBCMT:typinfo.obj
 0001:000f4a60       _GetNextInstrOffset        00000001400f5a60 f   LIBCMT:handlers.obj
 0001:000f4a68       ?_ValidateExecute@@YAHP6A_JXZ@Z 00000001400f5a68 f   LIBCMT:validate.obj
 0001:000f4a68       ?_ValidateRead@@YAHPEBXI@Z 00000001400f5a68 f   LIBCMT:validate.obj
 0001:000f4a68       ?_ValidateWrite@@YAHPEAXI@Z 00000001400f5a68 f   LIBCMT:validate.obj
 0001:000f4a74       _CxxThrowException         00000001400f5a74 f   LIBCMT:throw.obj
 0001:000f4b08       _initp_misc_winsig         00000001400f5b08 f   LIBCMT:winsig.obj
 0001:000f4b28       __get_sigabrt              00000001400f5b28 f   LIBCMT:winsig.obj
 0001:000f4b34       raise                      00000001400f5b34 f   LIBCMT:winsig.obj
 0001:000f4da8       __crtMessageBoxA           00000001400f5da8 f   LIBCMT:crtmbox.obj
 0001:000f4f9c       _set_error_mode            00000001400f5f9c f   LIBCMT:errmode.obj
 0001:000f4fec       isdigit                    00000001400f5fec f i LIBCMT:_ctype.obj
 0001:000f506c       _tolower_l                 00000001400f606c f   LIBCMT:tolower.obj
 0001:000f51dc       tolower                    00000001400f61dc f   LIBCMT:tolower.obj
 0001:000f5204       _atodbl_l                  00000001400f6204 f   LIBCMT:atodbl.obj
 0001:000f5308       _atoflt_l                  00000001400f6308 f   LIBCMT:atodbl.obj
 0001:000f540c       _fptostr                   00000001400f640c f   LIBCMT:_fptostr.obj
 0001:000f54e8       __dtold                    00000001400f64e8 f   LIBCMT:_cfout_.obj
 0001:000f55c0       _fltout2                   00000001400f65c0 f   LIBCMT:_cfout_.obj
 0001:000f5680       _fptrap                    00000001400f6680 f   LIBCMT:crt0fp.obj
 0001:000f568c       malloc                     00000001400f668c f   LIBCMT:malloc.obj
 0001:000f5744       _calloc_impl               00000001400f6744 f   LIBCMT:calloc_impl.obj
 0001:000f57f4       realloc                    00000001400f67f4 f   LIBCMT:realloc.obj
 0001:000f58c8       _initp_misc_rand_s         00000001400f68c8 f   LIBCMT:rand_s.obj
 0001:000f58d0       _initp_misc_initcrit       00000001400f68d0 f   LIBCMT:initcrit.obj
 0001:000f58d8       __crtInitCritSecAndSpinCount 00000001400f68d8 f   LIBCMT:initcrit.obj
 0001:000f5910       _initp_heap_handler        00000001400f6910 f   LIBCMT:handler.obj
 0001:000f5918       _callnewh                  00000001400f6918 f   LIBCMT:handler.obj
 0001:000f594c       __crtLCMapStringW          00000001400f694c f   LIBCMT:w_map.obj
 0001:000f59f0       _lseeki64_nolock           00000001400f69f0 f   LIBCMT:lseeki64.obj
 0001:000f5a88       _lseeki64                  00000001400f6a88 f   LIBCMT:lseeki64.obj
 0001:000f5bc0       _write_nolock              00000001400f6bc0 f   LIBCMT:write.obj
 0001:000f6320       _write                     00000001400f7320 f   LIBCMT:write.obj
 0001:000f6454       _getbuf                    00000001400f7454 f   LIBCMT:_getbuf.obj
 0001:000f64a8       _isatty                    00000001400f74a8 f   LIBCMT:isatty.obj
 0001:000f6518       __iob_func                 00000001400f7518 f   LIBCMT:_file.obj
 0001:000f6520       __initstdio                00000001400f7520 f   LIBCMT:_file.obj
 0001:000f6604       __endstdio                 00000001400f7604 f   LIBCMT:_file.obj
 0001:000f662c       _lock_file                 00000001400f762c f   LIBCMT:_file.obj
 0001:000f668c       _lock_file2                00000001400f768c f   LIBCMT:_file.obj
 0001:000f66bc       _unlock_file               00000001400f76bc f   LIBCMT:_file.obj
 0001:000f6714       _unlock_file2              00000001400f7714 f   LIBCMT:_file.obj
 0001:000f673c       _fileno                    00000001400f773c f   LIBCMT:fileno.obj
 0001:000f6774       _fputwc_nolock             00000001400f7774 f   LIBCMT:fputwc.obj
 0001:000f695c       _get_printf_count_output   00000001400f795c f   LIBCMT:printf.obj
 0001:000f6974       _mbtowc_l                  00000001400f7974 f   LIBCMT:mbtowc.obj
 0001:000f6ae8       mbtowc                     00000001400f7ae8 f   LIBCMT:mbtowc.obj
 0001:000f6b6c       _ismbblead                 00000001400f7b6c f   LIBCMT:ismbbyte.obj
 0001:000f6b80       __ansicp                   00000001400f7b80 f   LIBCMT:convrtcp.obj
 0001:000f6bd4       __convertcp                00000001400f7bd4 f   LIBCMT:convrtcp.obj
 0001:000f6e5c       __report_gsfailure         00000001400f7e5c f   LIBCMT:gs_report.obj
 0001:000f6fa8       atol                       00000001400f7fa8 f   LIBCMT:atox.obj
 0001:000f6fb4       __ascii_strnicmp           00000001400f7fb4 f   LIBCMT:strnicmp.obj
 0001:000f6ffc       _strnicmp_l                00000001400f7ffc f   LIBCMT:strnicmp.obj
 0001:000f7110       _strnicmp                  00000001400f8110 f   LIBCMT:strnicmp.obj
 0001:000f7110       strnicmp                   00000001400f8110 f   LIBCMT:strnicmp.obj
 0001:000f716c       ?_Type_info_dtor@type_info@@CAXPEAV1@@Z 00000001400f816c f   LIBCMT:typname.obj
 0001:000f71e0       _ld12tod                   00000001400f81e0 f   LIBCMT:_intrncvt_.obj
 0001:000f77e4       _ld12tof                   00000001400f87e4 f   LIBCMT:_intrncvt_.obj
 0001:000f7de8       __strgtold12_l             00000001400f8de8 f   LIBCMT:_strgtold_.obj
 0001:000f86e4       $I10_OUTPUT                00000001400f96e4 f   LIBCMT:_x10fout_.obj
 0001:000f924c       _free_osfhnd               00000001400fa24c f   LIBCMT:osfinfo.obj
 0001:000f92f8       _get_osfhandle             00000001400fa2f8 f   LIBCMT:osfinfo.obj
 0001:000f937c       __lock_fhandle             00000001400fa37c f   LIBCMT:osfinfo.obj
 0001:000f9424       _unlock_fhandle            00000001400fa424 f   LIBCMT:osfinfo.obj
 0001:000f944c       _putwch_nolock             00000001400fa44c f   LIBCMT:putwch.obj
 0001:000f9560       _fcloseall                 00000001400fa560 f   LIBCMT:closeall.obj
 0001:000f9610       _flush                     00000001400fa610 f   LIBCMT:fflush.obj
 0001:000f968c       _fflush_nolock             00000001400fa68c f   LIBCMT:fflush.obj
 0001:000f97c8       _flushall                  00000001400fa7c8 f   LIBCMT:fflush.obj
 0001:000f97d4       _flswbuf                   00000001400fa7d4 f   LIBCMT:_flswbuf.obj
 0001:000f9964       _wctomb_s_l                00000001400fa964 f   LIBCMT:wctomb.obj
 0001:000f9b74       wctomb_s                   00000001400fab74 f   LIBCMT:wctomb.obj
 0001:000f9b88       __mtold12                  00000001400fab88 f   LIBCMT:_mantold_.obj
 0001:000f9da8       __initconout               00000001400fada8 f   LIBCMT:initcon.obj
 0001:000f9de4       __termcon                  00000001400fade4 f   LIBCMT:initcon.obj
 0001:000f9e20       _fclose_nolock             00000001400fae20 f   LIBCMT:fclose.obj
 0001:000f9eac       fclose                     00000001400faeac f   LIBCMT:fclose.obj
 0001:000f9f24       _commit                    00000001400faf24 f   LIBCMT:commit.obj
 0001:000fa038       _close_nolock              00000001400fb038 f   LIBCMT:close.obj
 0001:000fa0f4       _close                     00000001400fb0f4 f   LIBCMT:close.obj
 0001:000fa20c       _freebuf                   00000001400fb20c f   LIBCMT:_freebuf.obj
 0001:000fa244       RtlLookupFunctionEntry     00000001400fb244 f   kernel32:KERNEL32.dll
 0001:000fa24a       RtlUnwindEx                00000001400fb24a f   kernel32:KERNEL32.dll
 0001:000fa250       RtlVirtualUnwind           00000001400fb250 f   kernel32:KERNEL32.dll
 0001:000fa256       RtlPcToFileHeader          00000001400fb256 f   kernel32:KERNEL32.dll
 0001:000fa270       _alloca_probe              00000001400fb270     LIBCMT:chkstk.obj
 0001:000fa270       __chkstk                   00000001400fb270 f   LIBCMT:chkstk.obj
 0001:000fa2d0       _CallSettingFrame          00000001400fb2d0 f   LIBCMT:handlers.obj
 0002:00000000       __imp_RegCloseKey          00000001400fe000     advapi32:ADVAPI32.dll
 0002:00000008       __imp_RegOpenKeyExW        00000001400fe008     advapi32:ADVAPI32.dll
 0002:00000010       __imp_CreateProcessWithLogonW 00000001400fe010     advapi32:ADVAPI32.dll
 0002:00000018       __imp_CreateProcessAsUserW 00000001400fe018     advapi32:ADVAPI32.dll
 0002:00000020       __imp_CreateRestrictedToken 00000001400fe020     advapi32:ADVAPI32.dll
 0002:00000028       __imp_OpenProcessToken     00000001400fe028     advapi32:ADVAPI32.dll
 0002:00000030       __imp_RegSetValueExW       00000001400fe030     advapi32:ADVAPI32.dll
 0002:00000038       __imp_RegEnumValueW        00000001400fe038     advapi32:ADVAPI32.dll
 0002:00000040       __imp_RegDeleteValueW      00000001400fe040     advapi32:ADVAPI32.dll
 0002:00000048       __imp_RegCreateKeyExW      00000001400fe048     advapi32:ADVAPI32.dll
 0002:00000050       __imp_RegDeleteKeyW        00000001400fe050     advapi32:ADVAPI32.dll
 0002:00000058       __imp_RegEnumKeyExW        00000001400fe058     advapi32:ADVAPI32.dll
 0002:00000060       __imp_LogonUserW           00000001400fe060     advapi32:ADVAPI32.dll
 0002:00000068       __imp_RevertToSelf         00000001400fe068     advapi32:ADVAPI32.dll
 0002:00000070       __imp_ImpersonateLoggedOnUser 00000001400fe070     advapi32:ADVAPI32.dll
 0002:00000078       __imp_GetUserNameW         00000001400fe078     advapi32:ADVAPI32.dll
 0002:00000080       __imp_FreeSid              00000001400fe080     advapi32:ADVAPI32.dll
 0002:00000088       __imp_CheckTokenMembership 00000001400fe088     advapi32:ADVAPI32.dll
 0002:00000090       __imp_AllocateAndInitializeSid 00000001400fe090     advapi32:ADVAPI32.dll
 0002:00000098       __imp_RegQueryValueExW     00000001400fe098     advapi32:ADVAPI32.dll
 0002:000000a0       \177ADVAPI32_NULL_THUNK_DATA 00000001400fe0a0     advapi32:ADVAPI32.dll
 0002:000000a8       __imp_ImageList_Merge      00000001400fe0a8     comctl32:COMCTL32.dll
 0002:000000b0       __imp_ImageList_AddMasked  00000001400fe0b0     comctl32:COMCTL32.dll
 0002:000000b8       __imp_ImageList_Create     00000001400fe0b8     comctl32:COMCTL32.dll
 0002:000000c0       __imp_CreateMappedBitmap   00000001400fe0c0     comctl32:COMCTL32.dll
 0002:000000c8       __imp_ImageList_ReplaceIcon 00000001400fe0c8     comctl32:COMCTL32.dll
 0002:000000d0       __imp_InitCommonControlsEx 00000001400fe0d0     comctl32:COMCTL32.dll
 0002:000000d8       __imp_ImageList_GetIcon    00000001400fe0d8     comctl32:COMCTL32.dll
 0002:000000e0       __imp_ImageList_Destroy    00000001400fe0e0     comctl32:COMCTL32.dll
 0002:000000e8       \177COMCTL32_NULL_THUNK_DATA 00000001400fe0e8     comctl32:COMCTL32.dll
 0002:000000f0       __imp_GetSaveFileNameW     00000001400fe0f0     Comdlg32:COMDLG32.dll
 0002:000000f8       __imp_GetOpenFileNameW     00000001400fe0f8     Comdlg32:COMDLG32.dll
 0002:00000100       __imp_ChooseColorW         00000001400fe100     Comdlg32:COMDLG32.dll
 0002:00000108       \177COMDLG32_NULL_THUNK_DATA 00000001400fe108     Comdlg32:COMDLG32.dll
 0002:00000110       __imp_GetRegionData        00000001400fe110     gdi32:GDI32.dll
 0002:00000118       __imp_SetBkMode            00000001400fe118     gdi32:GDI32.dll
 0002:00000120       __imp_SetTextColor         00000001400fe120     gdi32:GDI32.dll
 0002:00000128       __imp_OffsetRgn            00000001400fe128     gdi32:GDI32.dll
 0002:00000130       __imp_CreatePolygonRgn     00000001400fe130     gdi32:GDI32.dll
 0002:00000138       __imp_BitBlt               00000001400fe138     gdi32:GDI32.dll
 0002:00000140       __imp_GetRgnBox            00000001400fe140     gdi32:GDI32.dll
 0002:00000148       __imp_GetObjectW           00000001400fe148     gdi32:GDI32.dll
 0002:00000150       __imp_CreateSolidBrush     00000001400fe150     gdi32:GDI32.dll
 0002:00000158       __imp_GetDeviceCaps        00000001400fe158     gdi32:GDI32.dll
 0002:00000160       __imp_SetBkColor           00000001400fe160     gdi32:GDI32.dll
 0002:00000168       __imp_ExtTextOutW          00000001400fe168     gdi32:GDI32.dll
 0002:00000170       __imp_ExtTextOutA          00000001400fe170     gdi32:GDI32.dll
 0002:00000178       __imp_GetTextExtentPoint32W 00000001400fe178     gdi32:GDI32.dll
 0002:00000180       __imp_CreateFontW          00000001400fe180     gdi32:GDI32.dll
 0002:00000188       __imp_CreateRectRgnIndirect 00000001400fe188     gdi32:GDI32.dll
 0002:00000190       __imp_GetOutlineTextMetricsW 00000001400fe190     gdi32:GDI32.dll
 0002:00000198       __imp_CreateRectRgn        00000001400fe198     gdi32:GDI32.dll
 0002:000001a0       __imp_GetTextMetricsW      00000001400fe1a0     gdi32:GDI32.dll
 0002:000001a8       __imp_RemoveFontResourceExW 00000001400fe1a8     gdi32:GDI32.dll
 0002:000001b0       __imp_EnumFontFamiliesExW  00000001400fe1b0     gdi32:GDI32.dll
 0002:000001b8       __imp_EnumFontFamiliesW    00000001400fe1b8     gdi32:GDI32.dll
 0002:000001c0       __imp_CreateFontIndirectW  00000001400fe1c0     gdi32:GDI32.dll
 0002:000001c8       __imp_GetFontUnicodeRanges 00000001400fe1c8     gdi32:GDI32.dll
 0002:000001d0       __imp_AddFontResourceExW   00000001400fe1d0     gdi32:GDI32.dll
 0002:000001d8       __imp_LineTo               00000001400fe1d8     gdi32:GDI32.dll
 0002:000001e0       __imp_MoveToEx             00000001400fe1e0     gdi32:GDI32.dll
 0002:000001e8       __imp_CreatePen            00000001400fe1e8     gdi32:GDI32.dll
 0002:000001f0       __imp_StretchBlt           00000001400fe1f0     gdi32:GDI32.dll
 0002:000001f8       __imp_SetStretchBltMode    00000001400fe1f8     gdi32:GDI32.dll
 0002:00000200       __imp_GetCharABCWidthsW    00000001400fe200     gdi32:GDI32.dll
 0002:00000208       __imp_CreatePolyPolygonRgn 00000001400fe208     gdi32:GDI32.dll
 0002:00000210       __imp_TextOutW             00000001400fe210     gdi32:GDI32.dll
 0002:00000218       __imp_Rectangle            00000001400fe218     gdi32:GDI32.dll
 0002:00000220       __imp_GdiSetBatchLimit     00000001400fe220     gdi32:GDI32.dll
 0002:00000228       __imp_CombineRgn           00000001400fe228     gdi32:GDI32.dll
 0002:00000230       __imp_SetEnhMetaFileBits   00000001400fe230     gdi32:GDI32.dll
 0002:00000238       __imp_PlayEnhMetaFile      00000001400fe238     gdi32:GDI32.dll
 0002:00000240       __imp_DeleteEnhMetaFile    00000001400fe240     gdi32:GDI32.dll
 0002:00000248       __imp_CreateDIBSection     00000001400fe248     gdi32:GDI32.dll
 0002:00000250       __imp_GdiFlush             00000001400fe250     gdi32:GDI32.dll
 0002:00000258       __imp_GdiAlphaBlend        00000001400fe258     gdi32:GDI32.dll
 0002:00000260       __imp_CreateCompatibleDC   00000001400fe260     gdi32:GDI32.dll
 0002:00000268       __imp_CreateCompatibleBitmap 00000001400fe268     gdi32:GDI32.dll
 0002:00000270       __imp_GetStockObject       00000001400fe270     gdi32:GDI32.dll
 0002:00000278       __imp_SelectObject         00000001400fe278     gdi32:GDI32.dll
 0002:00000280       __imp_GetTextFaceW         00000001400fe280     gdi32:GDI32.dll
 0002:00000288       __imp_DeleteDC             00000001400fe288     gdi32:GDI32.dll
 0002:00000290       __imp_DeleteObject         00000001400fe290     gdi32:GDI32.dll
 0002:00000298       \177GDI32_NULL_THUNK_DATA  00000001400fe298     gdi32:GDI32.dll
 0002:000002a0       __imp_SetNamedPipeHandleState 00000001400fe2a0     kernel32:KERNEL32.dll
 0002:000002a8       __imp_WaitNamedPipeW       00000001400fe2a8     kernel32:KERNEL32.dll
 0002:000002b0       __imp_TransactNamedPipe    00000001400fe2b0     kernel32:KERNEL32.dll
 0002:000002b8       __imp_WriteFile            00000001400fe2b8     kernel32:KERNEL32.dll
 0002:000002c0       __imp_GetFileSizeEx        00000001400fe2c0     kernel32:KERNEL32.dll
 0002:000002c8       __imp_TerminateThread      00000001400fe2c8     kernel32:KERNEL32.dll
 0002:000002d0       __imp_SetFileAttributesW   00000001400fe2d0     kernel32:KERNEL32.dll
 0002:000002d8       __imp_FileTimeToSystemTime 00000001400fe2d8     kernel32:KERNEL32.dll
 0002:000002e0       __imp_FileTimeToLocalFileTime 00000001400fe2e0     kernel32:KERNEL32.dll
 0002:000002e8       __imp_GlobalFree           00000001400fe2e8     kernel32:KERNEL32.dll
 0002:000002f0       __imp_OutputDebugStringA   00000001400fe2f0     kernel32:KERNEL32.dll
 0002:000002f8       __imp_OutputDebugStringW   00000001400fe2f8     kernel32:KERNEL32.dll
 0002:00000300       __imp_SetFilePointer       00000001400fe300     kernel32:KERNEL32.dll
 0002:00000308       __imp_GetFileInformationByHandle 00000001400fe308     kernel32:KERNEL32.dll
 0002:00000310       __imp_DisconnectNamedPipe  00000001400fe310     kernel32:KERNEL32.dll
 0002:00000318       __imp_GetOverlappedResult  00000001400fe318     kernel32:KERNEL32.dll
 0002:00000320       __imp_WaitForMultipleObjects 00000001400fe320     kernel32:KERNEL32.dll
 0002:00000328       __imp_ReleaseSemaphore     00000001400fe328     kernel32:KERNEL32.dll
 0002:00000330       __imp_ConnectNamedPipe     00000001400fe330     kernel32:KERNEL32.dll
 0002:00000338       __imp_CreateNamedPipeW     00000001400fe338     kernel32:KERNEL32.dll
 0002:00000340       __imp_CreateSemaphoreW     00000001400fe340     kernel32:KERNEL32.dll
 0002:00000348       __imp_FlushFileBuffers     00000001400fe348     kernel32:KERNEL32.dll
 0002:00000350       __imp_HeapFree             00000001400fe350     kernel32:KERNEL32.dll
 0002:00000358       __imp_GetProcessHeap       00000001400fe358     kernel32:KERNEL32.dll
 0002:00000360       __imp_HeapAlloc            00000001400fe360     kernel32:KERNEL32.dll
 0002:00000368       __imp_HeapReAlloc          00000001400fe368     kernel32:KERNEL32.dll
 0002:00000370       __imp_SystemTimeToFileTime 00000001400fe370     kernel32:KERNEL32.dll
 0002:00000378       __imp_GetLocalTime         00000001400fe378     kernel32:KERNEL32.dll
 0002:00000380       __imp_HeapCreate           00000001400fe380     kernel32:KERNEL32.dll
 0002:00000388       __imp_HeapDestroy          00000001400fe388     kernel32:KERNEL32.dll
 0002:00000390       __imp_LocalAlloc           00000001400fe390     kernel32:KERNEL32.dll
 0002:00000398       __imp_QueryPerformanceCounter 00000001400fe398     kernel32:KERNEL32.dll
 0002:000003a0       __imp_QueryPerformanceFrequency 00000001400fe3a0     kernel32:KERNEL32.dll
 0002:000003a8       __imp_FindNextFileW        00000001400fe3a8     kernel32:KERNEL32.dll
 0002:000003b0       __imp_GetDriveTypeW        00000001400fe3b0     kernel32:KERNEL32.dll
 0002:000003b8       __imp_SetPriorityClass     00000001400fe3b8     kernel32:KERNEL32.dll
 0002:000003c0       __imp_GetTempFileNameW     00000001400fe3c0     kernel32:KERNEL32.dll
 0002:000003c8       __imp_GetTempPathW         00000001400fe3c8     kernel32:KERNEL32.dll
 0002:000003d0       __imp_DeleteFileW          00000001400fe3d0     kernel32:KERNEL32.dll
 0002:000003d8       __imp_GetPrivateProfileStringW 00000001400fe3d8     kernel32:KERNEL32.dll
 0002:000003e0       __imp_MulDiv               00000001400fe3e0     kernel32:KERNEL32.dll
 0002:000003e8       __imp_GetConsoleOutputCP   00000001400fe3e8     kernel32:KERNEL32.dll
 0002:000003f0       __imp_OpenEventW           00000001400fe3f0     kernel32:KERNEL32.dll
 0002:000003f8       __imp_TryEnterCriticalSection 00000001400fe3f8     kernel32:KERNEL32.dll
 0002:00000400       __imp_OpenThread           00000001400fe400     kernel32:KERNEL32.dll
 0002:00000408       __imp_SetUnhandledExceptionFilter 00000001400fe408     kernel32:KERNEL32.dll
 0002:00000410       __imp_GetModuleFileNameA   00000001400fe410     kernel32:KERNEL32.dll
 0002:00000418       __imp_CreateFileA          00000001400fe418     kernel32:KERNEL32.dll
 0002:00000420       __imp_WriteConsoleW        00000001400fe420     kernel32:KERNEL32.dll
 0002:00000428       __imp_WriteConsoleA        00000001400fe428     kernel32:KERNEL32.dll
 0002:00000430       __imp_SetStdHandle         00000001400fe430     kernel32:KERNEL32.dll
 0002:00000438       __imp_GetConsoleCP         00000001400fe438     kernel32:KERNEL32.dll
 0002:00000440       __imp_InitializeCriticalSectionAndSpinCount 00000001400fe440     kernel32:KERNEL32.dll
 0002:00000448       __imp_LoadLibraryA         00000001400fe448     kernel32:KERNEL32.dll
 0002:00000450       __imp_GetLocaleInfoA       00000001400fe450     kernel32:KERNEL32.dll
 0002:00000458       __imp_GetStringTypeW       00000001400fe458     kernel32:KERNEL32.dll
 0002:00000460       __imp_GetStringTypeA       00000001400fe460     kernel32:KERNEL32.dll
 0002:00000468       __imp_LCMapStringW         00000001400fe468     kernel32:KERNEL32.dll
 0002:00000470       __imp_LCMapStringA         00000001400fe470     kernel32:KERNEL32.dll
 0002:00000478       __imp_GetSystemTimeAsFileTime 00000001400fe478     kernel32:KERNEL32.dll
 0002:00000480       __imp_HeapSetInformation   00000001400fe480     kernel32:KERNEL32.dll
 0002:00000488       __imp_GetFileType          00000001400fe488     kernel32:KERNEL32.dll
 0002:00000490       __imp_SetHandleCount       00000001400fe490     kernel32:KERNEL32.dll
 0002:00000498       __imp_GetEnvironmentStringsW 00000001400fe498     kernel32:KERNEL32.dll
 0002:000004a0       __imp_FreeEnvironmentStringsW 00000001400fe4a0     kernel32:KERNEL32.dll
 0002:000004a8       __imp_GetEnvironmentStrings 00000001400fe4a8     kernel32:KERNEL32.dll
 0002:000004b0       __imp_FreeEnvironmentStringsA 00000001400fe4b0     kernel32:KERNEL32.dll
 0002:000004b8       __imp_ExitProcess          00000001400fe4b8     kernel32:KERNEL32.dll
 0002:000004c0       __imp_HeapSize             00000001400fe4c0     kernel32:KERNEL32.dll
 0002:000004c8       __imp_RtlPcToFileHeader    00000001400fe4c8     kernel32:KERNEL32.dll
 0002:000004d0       __imp_RaiseException       00000001400fe4d0     kernel32:KERNEL32.dll
 0002:000004d8       __imp_RtlCaptureContext    00000001400fe4d8     kernel32:KERNEL32.dll
 0002:000004e0       __imp_RtlVirtualUnwind     00000001400fe4e0     kernel32:KERNEL32.dll
 0002:000004e8       __imp_UnhandledExceptionFilter 00000001400fe4e8     kernel32:KERNEL32.dll
 0002:000004f0       __imp_FlsAlloc             00000001400fe4f0     kernel32:KERNEL32.dll
 0002:000004f8       __imp_FlsFree              00000001400fe4f8     kernel32:KERNEL32.dll
 0002:00000500       __imp_FlsSetValue          00000001400fe500     kernel32:KERNEL32.dll
 0002:00000508       __imp_FlsGetValue          00000001400fe508     kernel32:KERNEL32.dll
 0002:00000510       __imp_DecodePointer        00000001400fe510     kernel32:KERNEL32.dll
 0002:00000518       __imp_EncodePointer        00000001400fe518     kernel32:KERNEL32.dll
 0002:00000520       __imp_IsValidCodePage      00000001400fe520     kernel32:KERNEL32.dll
 0002:00000528       __imp_GetCPInfo            00000001400fe528     kernel32:KERNEL32.dll
 0002:00000530       __imp_GetStartupInfoA      00000001400fe530     kernel32:KERNEL32.dll
 0002:00000538       __imp_GetCommandLineA      00000001400fe538     kernel32:KERNEL32.dll
 0002:00000540       __imp_RtlUnwindEx          00000001400fe540     kernel32:KERNEL32.dll
 0002:00000548       __imp_RtlLookupFunctionEntry 00000001400fe548     kernel32:KERNEL32.dll
 0002:00000550       __imp_GetFileAttributesW   00000001400fe550     kernel32:KERNEL32.dll
 0002:00000558       __imp_GetCurrentThread     00000001400fe558     kernel32:KERNEL32.dll
 0002:00000560       __imp_SetThreadPriority    00000001400fe560     kernel32:KERNEL32.dll
 0002:00000568       __imp_CreateDirectoryW     00000001400fe568     kernel32:KERNEL32.dll
 0002:00000570       __imp_GetVersionExW        00000001400fe570     kernel32:KERNEL32.dll
 0002:00000578       __imp_GetConsoleWindow     00000001400fe578     kernel32:KERNEL32.dll
 0002:00000580       __imp_GetACP               00000001400fe580     kernel32:KERNEL32.dll
 0002:00000588       __imp_GetOEMCP             00000001400fe588     kernel32:KERNEL32.dll
 0002:00000590       __imp_GetStdHandle         00000001400fe590     kernel32:KERNEL32.dll
 0002:00000598       __imp_GetConsoleMode       00000001400fe598     kernel32:KERNEL32.dll
 0002:000005a0       __imp_DebugBreak           00000001400fe5a0     kernel32:KERNEL32.dll
 0002:000005a8       __imp_GetCommandLineW      00000001400fe5a8     kernel32:KERNEL32.dll
 0002:000005b0       __imp_FormatMessageW       00000001400fe5b0     kernel32:KERNEL32.dll
 0002:000005b8       __imp_LocalFree            00000001400fe5b8     kernel32:KERNEL32.dll
 0002:000005c0       __imp_GetStartupInfoW      00000001400fe5c0     kernel32:KERNEL32.dll
 0002:000005c8       __imp_Sleep                00000001400fe5c8     kernel32:KERNEL32.dll
 0002:000005d0       __imp_lstrcpyA             00000001400fe5d0     kernel32:KERNEL32.dll
 0002:000005d8       __imp_lstrlenA             00000001400fe5d8     kernel32:KERNEL32.dll
 0002:000005e0       __imp_lstrcatA             00000001400fe5e0     kernel32:KERNEL32.dll
 0002:000005e8       __imp_WideCharToMultiByte  00000001400fe5e8     kernel32:KERNEL32.dll
 0002:000005f0       __imp_ResetEvent           00000001400fe5f0     kernel32:KERNEL32.dll
 0002:000005f8       __imp_SetProcessAffinityMask 00000001400fe5f8     kernel32:KERNEL32.dll
 0002:00000600       __imp_InitializeCriticalSection 00000001400fe600     kernel32:KERNEL32.dll
 0002:00000608       __imp_GetModuleFileNameW   00000001400fe608     kernel32:KERNEL32.dll
 0002:00000610       __imp_SetCurrentDirectoryW 00000001400fe610     kernel32:KERNEL32.dll
 0002:00000618       __imp_CopyFileW            00000001400fe618     kernel32:KERNEL32.dll
 0002:00000620       __imp_GetEnvironmentVariableW 00000001400fe620     kernel32:KERNEL32.dll
 0002:00000628       __imp_GetCurrentProcess    00000001400fe628     kernel32:KERNEL32.dll
 0002:00000630       __imp_TerminateProcess     00000001400fe630     kernel32:KERNEL32.dll
 0002:00000638       __imp_CreateFileMappingW   00000001400fe638     kernel32:KERNEL32.dll
 0002:00000640       __imp_OpenFileMappingW     00000001400fe640     kernel32:KERNEL32.dll
 0002:00000648       __imp_MapViewOfFile        00000001400fe648     kernel32:KERNEL32.dll
 0002:00000650       __imp_CreateEventW         00000001400fe650     kernel32:KERNEL32.dll
 0002:00000658       __imp_SetEvent             00000001400fe658     kernel32:KERNEL32.dll
 0002:00000660       __imp_DeleteCriticalSection 00000001400fe660     kernel32:KERNEL32.dll
 0002:00000668       __imp_EnterCriticalSection 00000001400fe668     kernel32:KERNEL32.dll
 0002:00000670       __imp_LeaveCriticalSection 00000001400fe670     kernel32:KERNEL32.dll
 0002:00000678       __imp_ExpandEnvironmentStringsW 00000001400fe678     kernel32:KERNEL32.dll
 0002:00000680       __imp_GetFullPathNameW     00000001400fe680     kernel32:KERNEL32.dll
 0002:00000688       __imp_SetEnvironmentVariableW 00000001400fe688     kernel32:KERNEL32.dll
 0002:00000690       __imp_lstrcmpA             00000001400fe690     kernel32:KERNEL32.dll
 0002:00000698       __imp_lstrcpynA            00000001400fe698     kernel32:KERNEL32.dll
 0002:000006a0       __imp_GetFileSize          00000001400fe6a0     kernel32:KERNEL32.dll
 0002:000006a8       __imp_ReadFile             00000001400fe6a8     kernel32:KERNEL32.dll
 0002:000006b0       __imp_MultiByteToWideChar  00000001400fe6b0     kernel32:KERNEL32.dll
 0002:000006b8       __imp_GetCurrentDirectoryW 00000001400fe6b8     kernel32:KERNEL32.dll
 0002:000006c0       __imp_Module32NextW        00000001400fe6c0     kernel32:KERNEL32.dll
 0002:000006c8       __imp_Process32FirstW      00000001400fe6c8     kernel32:KERNEL32.dll
 0002:000006d0       __imp_Process32NextW       00000001400fe6d0     kernel32:KERNEL32.dll
 0002:000006d8       __imp_CompareStringW       00000001400fe6d8     kernel32:KERNEL32.dll
 0002:000006e0       __imp_UnmapViewOfFile      00000001400fe6e0     kernel32:KERNEL32.dll
 0002:000006e8       __imp_SetLastError         00000001400fe6e8     kernel32:KERNEL32.dll
 0002:000006f0       __imp_IsDebuggerPresent    00000001400fe6f0     kernel32:KERNEL32.dll
 0002:000006f8       __imp_lstrcpyW             00000001400fe6f8     kernel32:KERNEL32.dll
 0002:00000700       __imp_SearchPathW          00000001400fe700     kernel32:KERNEL32.dll
 0002:00000708       __imp_GlobalSize           00000001400fe708     kernel32:KERNEL32.dll
 0002:00000710       __imp_GlobalLock           00000001400fe710     kernel32:KERNEL32.dll
 0002:00000718       __imp_GlobalAlloc          00000001400fe718     kernel32:KERNEL32.dll
 0002:00000720       __imp_GlobalUnlock         00000001400fe720     kernel32:KERNEL32.dll
 0002:00000728       __imp_FindFirstFileW       00000001400fe728     kernel32:KERNEL32.dll
 0002:00000730       __imp_FindClose            00000001400fe730     kernel32:KERNEL32.dll
 0002:00000738       __imp_GetTickCount         00000001400fe738     kernel32:KERNEL32.dll
 0002:00000740       __imp_IsBadReadPtr         00000001400fe740     kernel32:KERNEL32.dll
 0002:00000748       __imp_CreateThread         00000001400fe748     kernel32:KERNEL32.dll
 0002:00000750       __imp_CreateFileW          00000001400fe750     kernel32:KERNEL32.dll
 0002:00000758       __imp_CreateProcessW       00000001400fe758     kernel32:KERNEL32.dll
 0002:00000760       __imp_GetCurrentThreadId   00000001400fe760     kernel32:KERNEL32.dll
 0002:00000768       __imp_WaitForSingleObject  00000001400fe768     kernel32:KERNEL32.dll
 0002:00000770       __imp_GetExitCodeProcess   00000001400fe770     kernel32:KERNEL32.dll
 0002:00000778       __imp_GetCurrentProcessId  00000001400fe778     kernel32:KERNEL32.dll
 0002:00000780       __imp_CreateToolhelp32Snapshot 00000001400fe780     kernel32:KERNEL32.dll
 0002:00000788       __imp_Module32FirstW       00000001400fe788     kernel32:KERNEL32.dll
 0002:00000790       __imp_lstrcmpW             00000001400fe790     kernel32:KERNEL32.dll
 0002:00000798       __imp_lstrcatW             00000001400fe798     kernel32:KERNEL32.dll
 0002:000007a0       __imp_OpenProcess          00000001400fe7a0     kernel32:KERNEL32.dll
 0002:000007a8       __imp_GetLastError         00000001400fe7a8     kernel32:KERNEL32.dll
 0002:000007b0       __imp_CloseHandle          00000001400fe7b0     kernel32:KERNEL32.dll
 0002:000007b8       __imp_FreeLibrary          00000001400fe7b8     kernel32:KERNEL32.dll
 0002:000007c0       __imp_LoadLibraryW         00000001400fe7c0     kernel32:KERNEL32.dll
 0002:000007c8       __imp_lstrcmpiW            00000001400fe7c8     kernel32:KERNEL32.dll
 0002:000007d0       __imp_lstrlenW             00000001400fe7d0     kernel32:KERNEL32.dll
 0002:000007d8       __imp_lstrcpynW            00000001400fe7d8     kernel32:KERNEL32.dll
 0002:000007e0       __imp_GetModuleHandleW     00000001400fe7e0     kernel32:KERNEL32.dll
 0002:000007e8       __imp_GetProcAddress       00000001400fe7e8     kernel32:KERNEL32.dll
 0002:000007f0       __imp_GetWindowsDirectoryW 00000001400fe7f0     kernel32:KERNEL32.dll
 0002:000007f8       __imp_ReadProcessMemory    00000001400fe7f8     kernel32:KERNEL32.dll
 0002:00000800       \177KERNEL32_NULL_THUNK_DATA 00000001400fe800     kernel32:KERNEL32.dll
 0002:00000808       __imp_NetApiBufferFree     00000001400fe808     Netapi32:NETAPI32.dll
 0002:00000810       __imp_NetUserEnum          00000001400fe810     Netapi32:NETAPI32.dll
 0002:00000818       \177NETAPI32_NULL_THUNK_DATA 00000001400fe818     Netapi32:NETAPI32.dll
 0002:00000820       __imp_SysAllocStringLen    00000001400fe820     Oleaut32:OLEAUT32.dll
 0002:00000828       __imp_VariantClear         00000001400fe828     Oleaut32:OLEAUT32.dll
 0002:00000830       __imp_SysAllocString       00000001400fe830     Oleaut32:OLEAUT32.dll
 0002:00000838       __imp_SysFreeString        00000001400fe838     Oleaut32:OLEAUT32.dll
 0002:00000840       __imp_VariantInit          00000001400fe840     Oleaut32:OLEAUT32.dll
 0002:00000848       \177OLEAUT32_NULL_THUNK_DATA 00000001400fe848     Oleaut32:OLEAUT32.dll
 0002:00000850       __imp_ILGetSize            00000001400fe850     shell32:SHELL32.dll
 0002:00000858       __imp_ShellExecuteW        00000001400fe858     shell32:SHELL32.dll
 0002:00000860       __imp_SHAppBarMessage      00000001400fe860     shell32:SHELL32.dll
 0002:00000868       __imp_ExtractIconExW       00000001400fe868     shell32:SHELL32.dll
 0002:00000870       __imp_SHGetPathFromIDListW 00000001400fe870     shell32:SHELL32.dll
 0002:00000878       __imp_SHBrowseForFolderW   00000001400fe878     shell32:SHELL32.dll
 0002:00000880       __imp_Shell_NotifyIconW    00000001400fe880     shell32:SHELL32.dll
 0002:00000888       __imp_SHGetSpecialFolderPathW 00000001400fe888     shell32:SHELL32.dll
 0002:00000890       __imp_SHGetFileInfoW       00000001400fe890     shell32:SHELL32.dll
 0002:00000898       __imp_ShellExecuteExW      00000001400fe898     shell32:SHELL32.dll
 0002:000008a0       __imp_SHGetDesktopFolder   00000001400fe8a0     shell32:SHELL32.dll
 0002:000008a8       __imp_SHFileOperationW     00000001400fe8a8     shell32:SHELL32.dll
 0002:000008b0       __imp_DragQueryFileW       00000001400fe8b0     shell32:SHELL32.dll
 0002:000008b8       __imp_SHGetFolderPathW     00000001400fe8b8     shell32:SHELL32.dll
 0002:000008c0       \177SHELL32_NULL_THUNK_DATA 00000001400fe8c0     shell32:SHELL32.dll
 0002:000008c8       __imp_StrStrIW             00000001400fe8c8     shlwapi:SHLWAPI.dll
 0002:000008d0       __imp_StrCmpNIW            00000001400fe8d0     shlwapi:SHLWAPI.dll
 0002:000008d8       __imp_StrCmpIW             00000001400fe8d8     shlwapi:SHLWAPI.dll
 0002:000008e0       __imp_PathUnExpandEnvStringsW 00000001400fe8e0     shlwapi:SHLWAPI.dll
 0002:000008e8       __imp_StrStrW              00000001400fe8e8     shlwapi:SHLWAPI.dll
 0002:000008f0       \177SHLWAPI_NULL_THUNK_DATA 00000001400fe8f0     shlwapi:SHLWAPI.dll
 0002:000008f8       __imp_ShowWindowAsync      00000001400fe8f8     user32:USER32.dll
 0002:00000900       __imp_InvalidateRgn        00000001400fe900     user32:USER32.dll
 0002:00000908       __imp_EnableScrollBar      00000001400fe908     user32:USER32.dll
 0002:00000910       __imp_ShowScrollBar        00000001400fe910     user32:USER32.dll
 0002:00000918       __imp_GetCaretBlinkTime    00000001400fe918     user32:USER32.dll
 0002:00000920       __imp_SetMenuItemInfoW     00000001400fe920     user32:USER32.dll
 0002:00000928       __imp_GetMenuItemID        00000001400fe928     user32:USER32.dll
 0002:00000930       __imp_GetMenuItemRect      00000001400fe930     user32:USER32.dll
 0002:00000938       __imp_TrackPopupMenuEx     00000001400fe938     user32:USER32.dll
 0002:00000940       __imp_LoadBitmapW          00000001400fe940     user32:USER32.dll
 0002:00000948       __imp_GetCursorInfo        00000001400fe948     user32:USER32.dll
 0002:00000950       __imp_OffsetRect           00000001400fe950     user32:USER32.dll
 0002:00000958       __imp_GetWindowDC          00000001400fe958     user32:USER32.dll
 0002:00000960       __imp_SendDlgItemMessageW  00000001400fe960     user32:USER32.dll
 0002:00000968       __imp_PostThreadMessageW   00000001400fe968     user32:USER32.dll
 0002:00000970       __imp_DrawIconEx           00000001400fe970     user32:USER32.dll
 0002:00000978       __imp_DrawTextExW          00000001400fe978     user32:USER32.dll
 0002:00000980       __imp_CreatePopupMenu      00000001400fe980     user32:USER32.dll
 0002:00000988       __imp_AppendMenuW          00000001400fe988     user32:USER32.dll
 0002:00000990       __imp_CharLowerBuffA       00000001400fe990     user32:USER32.dll
 0002:00000998       __imp_CallNextHookEx       00000001400fe998     user32:USER32.dll
 0002:000009a0       __imp_DestroyMenu          00000001400fe9a0     user32:USER32.dll
 0002:000009a8       __imp_IsWindowUnicode      00000001400fe9a8     user32:USER32.dll
 0002:000009b0       __imp_SetForegroundWindow  00000001400fe9b0     user32:USER32.dll
 0002:000009b8       __imp_EnumDisplayMonitors  00000001400fe9b8     user32:USER32.dll
 0002:000009c0       __imp_UnregisterClassW     00000001400fe9c0     user32:USER32.dll
 0002:000009c8       __imp_GetWindowTextLengthW 00000001400fe9c8     user32:USER32.dll
 0002:000009d0       __imp_AttachThreadInput    00000001400fe9d0     user32:USER32.dll
 0002:000009d8       __imp_UpdateWindow         00000001400fe9d8     user32:USER32.dll
 0002:000009e0       __imp_CallWindowProcW      00000001400fe9e0     user32:USER32.dll
 0002:000009e8       __imp_keybd_event          00000001400fe9e8     user32:USER32.dll
 0002:000009f0       __imp_SetDlgItemTextA      00000001400fe9f0     user32:USER32.dll
 0002:000009f8       __imp_LoadIconW            00000001400fe9f8     user32:USER32.dll
 0002:00000a00       __imp_LockSetForegroundWindow 00000001400fea00     user32:USER32.dll
 0002:00000a08       __imp_ValidateRect         00000001400fea08     user32:USER32.dll
 0002:00000a10       __imp_GetClipboardData     00000001400fea10     user32:USER32.dll
 0002:00000a18       __imp_OpenClipboard        00000001400fea18     user32:USER32.dll
 0002:00000a20       __imp_EmptyClipboard       00000001400fea20     user32:USER32.dll
 0002:00000a28       __imp_SetClipboardData     00000001400fea28     user32:USER32.dll
 0002:00000a30       __imp_CloseClipboard       00000001400fea30     user32:USER32.dll
 0002:00000a38       __imp_GetDlgCtrlID         00000001400fea38     user32:USER32.dll
 0002:00000a40       __imp_FindWindowW          00000001400fea40     user32:USER32.dll
 0002:00000a48       __imp_GetScrollInfo        00000001400fea48     user32:USER32.dll
 0002:00000a50       __imp_wsprintfW            00000001400fea50     user32:USER32.dll
 0002:00000a58       __imp_DestroyWindow        00000001400fea58     user32:USER32.dll
 0002:00000a60       __imp_IsWindow             00000001400fea60     user32:USER32.dll
 0002:00000a68       __imp_SendMessageW         00000001400fea68     user32:USER32.dll
 0002:00000a70       __imp_SetScrollInfo        00000001400fea70     user32:USER32.dll
 0002:00000a78       __imp_GetClassNameW        00000001400fea78     user32:USER32.dll
 0002:00000a80       __imp_GetWindowThreadProcessId 00000001400fea80     user32:USER32.dll
 0002:00000a88       __imp_GetWindowLongPtrW    00000001400fea88     user32:USER32.dll
 0002:00000a90       __imp_IsWindowVisible      00000001400fea90     user32:USER32.dll
 0002:00000a98       __imp_IsDlgButtonChecked   00000001400fea98     user32:USER32.dll
 0002:00000aa0       __imp_ShowWindow           00000001400feaa0     user32:USER32.dll
 0002:00000aa8       __imp_CheckRadioButton     00000001400feaa8     user32:USER32.dll
 0002:00000ab0       __imp_GetCursorPos         00000001400feab0     user32:USER32.dll
 0002:00000ab8       __imp_SetFocus             00000001400feab8     user32:USER32.dll
 0002:00000ac0       __imp_GetShellWindow       00000001400feac0     user32:USER32.dll
 0002:00000ac8       __imp_CheckDlgButton       00000001400feac8     user32:USER32.dll
 0002:00000ad0       __imp_SetDlgItemInt        00000001400fead0     user32:USER32.dll
 0002:00000ad8       __imp_SwitchToThisWindow   00000001400fead8     user32:USER32.dll
 0002:00000ae0       __imp_SetCapture           00000001400feae0     user32:USER32.dll
 0002:00000ae8       __imp_ReleaseCapture       00000001400feae8     user32:USER32.dll
 0002:00000af0       __imp_PostQuitMessage      00000001400feaf0     user32:USER32.dll
 0002:00000af8       __imp_LoadStringW          00000001400feaf8     user32:USER32.dll
 0002:00000b00       __imp_EqualRect            00000001400feb00     user32:USER32.dll
 0002:00000b08       __imp_GetMessageW          00000001400feb08     user32:USER32.dll
 0002:00000b10       __imp_CharLowerBuffW       00000001400feb10     user32:USER32.dll
 0002:00000b18       __imp_RegisterClassExW     00000001400feb18     user32:USER32.dll
 0002:00000b20       __imp_CreateWindowExW      00000001400feb20     user32:USER32.dll
 0002:00000b28       __imp_AllowSetForegroundWindow 00000001400feb28     user32:USER32.dll
 0002:00000b30       __imp_LoadImageW           00000001400feb30     user32:USER32.dll
 0002:00000b38       __imp_DestroyIcon          00000001400feb38     user32:USER32.dll
 0002:00000b40       __imp_GetWindowPlacement   00000001400feb40     user32:USER32.dll
 0002:00000b48       __imp_RegisterWindowMessageW 00000001400feb48     user32:USER32.dll
 0002:00000b50       __imp_SetLayeredWindowAttributes 00000001400feb50     user32:USER32.dll
 0002:00000b58       __imp_DialogBoxParamW      00000001400feb58     user32:USER32.dll
 0002:00000b60       __imp_MessageBoxIndirectW  00000001400feb60     user32:USER32.dll
 0002:00000b68       __imp_EndDialog            00000001400feb68     user32:USER32.dll
 0002:00000b70       __imp_GetSysColor          00000001400feb70     user32:USER32.dll
 0002:00000b78       __imp_GetSysColorBrush     00000001400feb78     user32:USER32.dll
 0002:00000b80       __imp_SetWindowTextW       00000001400feb80     user32:USER32.dll
 0002:00000b88       __imp_SetDlgItemTextW      00000001400feb88     user32:USER32.dll
 0002:00000b90       __imp_FlashWindowEx        00000001400feb90     user32:USER32.dll
 0002:00000b98       __imp_SetWindowsHookExW    00000001400feb98     user32:USER32.dll
 0002:00000ba0       __imp_PeekMessageW         00000001400feba0     user32:USER32.dll
 0002:00000ba8       __imp_TranslateMessage     00000001400feba8     user32:USER32.dll
 0002:00000bb0       __imp_DispatchMessageW     00000001400febb0     user32:USER32.dll
 0002:00000bb8       __imp_MonitorFromRect      00000001400febb8     user32:USER32.dll
 0002:00000bc0       __imp_AdjustWindowRectEx   00000001400febc0     user32:USER32.dll
 0002:00000bc8       __imp_MessageBoxW          00000001400febc8     user32:USER32.dll
 0002:00000bd0       __imp_IsDialogMessageW     00000001400febd0     user32:USER32.dll
 0002:00000bd8       __imp_SetTimer             00000001400febd8     user32:USER32.dll
 0002:00000be0       __imp_KillTimer            00000001400febe0     user32:USER32.dll
 0002:00000be8       __imp_CheckMenuItem        00000001400febe8     user32:USER32.dll
 0002:00000bf0       __imp_GetForegroundWindow  00000001400febf0     user32:USER32.dll
 0002:00000bf8       __imp_GetGUIThreadInfo     00000001400febf8     user32:USER32.dll
 0002:00000c00       __imp_WindowFromPoint      00000001400fec00     user32:USER32.dll
 0002:00000c08       __imp_SetCursorPos         00000001400fec08     user32:USER32.dll
 0002:00000c10       __imp_mouse_event          00000001400fec10     user32:USER32.dll
 0002:00000c18       __imp_SetCursor            00000001400fec18     user32:USER32.dll
 0002:00000c20       __imp_ClientToScreen       00000001400fec20     user32:USER32.dll
 0002:00000c28       __imp_ScreenToClient       00000001400fec28     user32:USER32.dll
 0002:00000c30       __imp_ChildWindowFromPointEx 00000001400fec30     user32:USER32.dll
 0002:00000c38       __imp_SendMessageTimeoutW  00000001400fec38     user32:USER32.dll
 0002:00000c40       __imp_GetKeyboardLayoutNameW 00000001400fec40     user32:USER32.dll
 0002:00000c48       __imp_GetKeyState          00000001400fec48     user32:USER32.dll
 0002:00000c50       __imp_FindWindowExW        00000001400fec50     user32:USER32.dll
 0002:00000c58       __imp_EnableWindow         00000001400fec58     user32:USER32.dll
 0002:00000c60       __imp_SetClassLongPtrW     00000001400fec60     user32:USER32.dll
 0002:00000c68       __imp_SetWindowPos         00000001400fec68     user32:USER32.dll
 0002:00000c70       __imp_ScrollWindowEx       00000001400fec70     user32:USER32.dll
 0002:00000c78       __imp_IsWindowEnabled      00000001400fec78     user32:USER32.dll
 0002:00000c80       __imp_DrawTextW            00000001400fec80     user32:USER32.dll
 0002:00000c88       __imp_GetDlgItemInt        00000001400fec88     user32:USER32.dll
 0002:00000c90       __imp_GetWindowTextW       00000001400fec90     user32:USER32.dll
 0002:00000c98       __imp_GetDlgItemTextW      00000001400fec98     user32:USER32.dll
 0002:00000ca0       __imp_GetFocus             00000001400feca0     user32:USER32.dll
 0002:00000ca8       __imp_IsRectEmpty          00000001400feca8     user32:USER32.dll
 0002:00000cb0       __imp_IntersectRect        00000001400fecb0     user32:USER32.dll
 0002:00000cb8       __imp_MonitorFromPoint     00000001400fecb8     user32:USER32.dll
 0002:00000cc0       __imp_GetKeyboardLayoutList 00000001400fecc0     user32:USER32.dll
 0002:00000cc8       __imp_DefWindowProcW       00000001400fecc8     user32:USER32.dll
 0002:00000cd0       __imp_BeginPaint           00000001400fecd0     user32:USER32.dll
 0002:00000cd8       __imp_EndPaint             00000001400fecd8     user32:USER32.dll
 0002:00000ce0       __imp_InvalidateRect       00000001400fece0     user32:USER32.dll
 0002:00000ce8       __imp_UnhookWindowsHookEx  00000001400fece8     user32:USER32.dll
 0002:00000cf0       __imp_RegisterHotKey       00000001400fecf0     user32:USER32.dll
 0002:00000cf8       __imp_wsprintfA            00000001400fecf8     user32:USER32.dll
 0002:00000d00       __imp_UnregisterHotKey     00000001400fed00     user32:USER32.dll
 0002:00000d08       __imp_PostMessageW         00000001400fed08     user32:USER32.dll
 0002:00000d10       __imp_EnumWindows          00000001400fed10     user32:USER32.dll
 0002:00000d18       __imp_GetWindowInfo        00000001400fed18     user32:USER32.dll
 0002:00000d20       __imp_SetActiveWindow      00000001400fed20     user32:USER32.dll
 0002:00000d28       __imp_GetDoubleClickTime   00000001400fed28     user32:USER32.dll
 0002:00000d30       __imp_GetSystemMenu        00000001400fed30     user32:USER32.dll
 0002:00000d38       __imp_EnableMenuItem       00000001400fed38     user32:USER32.dll
 0002:00000d40       __imp_InsertMenuW          00000001400fed40     user32:USER32.dll
 0002:00000d48       __imp_DeleteMenu           00000001400fed48     user32:USER32.dll
 0002:00000d50       __imp_PtInRect             00000001400fed50     user32:USER32.dll
 0002:00000d58       __imp_GetMenuItemInfoW     00000001400fed58     user32:USER32.dll
 0002:00000d60       __imp_GetKeyboardLayout    00000001400fed60     user32:USER32.dll
 0002:00000d68       __imp_GetWindowLongW       00000001400fed68     user32:USER32.dll
 0002:00000d70       __imp_IsZoomed             00000001400fed70     user32:USER32.dll
 0002:00000d78       __imp_IsIconic             00000001400fed78     user32:USER32.dll
 0002:00000d80       __imp_AnimateWindow        00000001400fed80     user32:USER32.dll
 0002:00000d88       __imp_GetParent            00000001400fed88     user32:USER32.dll
 0002:00000d90       __imp_SetParent            00000001400fed90     user32:USER32.dll
 0002:00000d98       __imp_GetDesktopWindow     00000001400fed98     user32:USER32.dll
 0002:00000da0       __imp_SetWindowLongW       00000001400feda0     user32:USER32.dll
 0002:00000da8       __imp_GetSystemMetrics     00000001400feda8     user32:USER32.dll
 0002:00000db0       __imp_SystemParametersInfoW 00000001400fedb0     user32:USER32.dll
 0002:00000db8       __imp_VkKeyScanW           00000001400fedb8     user32:USER32.dll
 0002:00000dc0       __imp_MapVirtualKeyW       00000001400fedc0     user32:USER32.dll
 0002:00000dc8       __imp_CharUpperBuffW       00000001400fedc8     user32:USER32.dll
 0002:00000dd0       __imp_GetClipboardFormatNameW 00000001400fedd0     user32:USER32.dll
 0002:00000dd8       __imp_RegisterClipboardFormatW 00000001400fedd8     user32:USER32.dll
 0002:00000de0       __imp_LoadCursorW          00000001400fede0     user32:USER32.dll
 0002:00000de8       __imp_MonitorFromWindow    00000001400fede8     user32:USER32.dll
 0002:00000df0       __imp_GetMonitorInfoW      00000001400fedf0     user32:USER32.dll
 0002:00000df8       __imp_GetDC                00000001400fedf8     user32:USER32.dll
 0002:00000e00       __imp_FillRect             00000001400fee00     user32:USER32.dll
 0002:00000e08       __imp_ReleaseDC            00000001400fee08     user32:USER32.dll
 0002:00000e10       __imp_CreateDialogParamW   00000001400fee10     user32:USER32.dll
 0002:00000e18       __imp_SetWindowLongPtrW    00000001400fee18     user32:USER32.dll
 0002:00000e20       __imp_GetClientRect        00000001400fee20     user32:USER32.dll
 0002:00000e28       __imp_GetDlgItem           00000001400fee28     user32:USER32.dll
 0002:00000e30       __imp_GetWindowRect        00000001400fee30     user32:USER32.dll
 0002:00000e38       __imp_MapWindowPoints      00000001400fee38     user32:USER32.dll
 0002:00000e40       __imp_MoveWindow           00000001400fee40     user32:USER32.dll
 0002:00000e48       __imp_RedrawWindow         00000001400fee48     user32:USER32.dll
 0002:00000e50       __imp_SetWindowRgn         00000001400fee50     user32:USER32.dll
 0002:00000e58       \177USER32_NULL_THUNK_DATA 00000001400fee58     user32:USER32.dll
 0002:00000e60       __imp_GetFileVersionInfoSizeW 00000001400fee60     version:VERSION.dll
 0002:00000e68       __imp_GetFileVersionInfoW  00000001400fee68     version:VERSION.dll
 0002:00000e70       __imp_VerQueryValueW       00000001400fee70     version:VERSION.dll
 0002:00000e78       \177VERSION_NULL_THUNK_DATA 00000001400fee78     version:VERSION.dll
 0002:00000e80       __imp_timeGetTime          00000001400fee80     Winmm:WINMM.dll
 0002:00000e88       \177WINMM_NULL_THUNK_DATA  00000001400fee88     Winmm:WINMM.dll
 0002:00000e90       __imp_CoInitialize         00000001400fee90     ole32:ole32.dll
 0002:00000e98       __imp_OleInitialize        00000001400fee98     ole32:ole32.dll
 0002:00000ea0       __imp_RegisterDragDrop     00000001400feea0     ole32:ole32.dll
 0002:00000ea8       __imp_RevokeDragDrop       00000001400feea8     ole32:ole32.dll
 0002:00000eb0       __imp_OleUninitialize      00000001400feeb0     ole32:ole32.dll
 0002:00000eb8       __imp_CoInitializeEx       00000001400feeb8     ole32:ole32.dll
 0002:00000ec0       __imp_CoInitializeSecurity 00000001400feec0     ole32:ole32.dll
 0002:00000ec8       __imp_CoUninitialize       00000001400feec8     ole32:ole32.dll
 0002:00000ed0       __imp_CoCreateInstance     00000001400feed0     ole32:ole32.dll
 0002:00000ed8       __imp_ReleaseStgMedium     00000001400feed8     ole32:ole32.dll
 0002:00000ee0       __imp_CoTaskMemFree        00000001400feee0     ole32:ole32.dll
 0002:00000ee8       __imp_CoTaskMemAlloc       00000001400feee8     ole32:ole32.dll
 0002:00000ef0       __imp_DoDragDrop           00000001400feef0     ole32:ole32.dll
 0002:00000ef8       \177ole32_NULL_THUNK_DATA  00000001400feef8     ole32:ole32.dll
 0002:00000f00       __xc_a                     00000001400fef00     LIBCMT:crt0init.obj
 0002:00000f18       __xc_z                     00000001400fef18     LIBCMT:crt0init.obj
 0002:00000f20       __xi_a                     00000001400fef20     LIBCMT:crt0init.obj
 0002:00000f48       __xi_z                     00000001400fef48     LIBCMT:crt0init.obj
 0002:00000f50       __xp_a                     00000001400fef50     LIBCMT:crt0init.obj
 0002:00000f68       __xp_z                     00000001400fef68     LIBCMT:crt0init.obj
 0002:00000f70       __xt_a                     00000001400fef70     LIBCMT:crt0init.obj
 0002:00000f78       __xt_z                     00000001400fef78     LIBCMT:crt0init.obj
 0002:00000fb0       ??_C@_0BK@EGDDIFMK@NtQueryInformationProcess?$AA@ 00000001400fefb0     Attach.obj
 0002:00000fd0       ??_C@_1M@OAIMIKLP@?$AAn?$AAt?$AAd?$AAl?$AAl?$AA?$AA@ 00000001400fefd0     Attach.obj
 0002:00000fe0       ??_C@_19DLCFHDFF@?$AAP?$AAE?$AAR?$AAF?$AA?$AA@ 00000001400fefe0     Attach.obj
 0002:00000ff0       ??_C@_1BG@NKNJPBCD@?$AAI?$AAD?$AA?5?$AAP?$AAr?$AAo?$AAc?$AAe?$AAs?$AAs?$AA?$AA@ 00000001400feff0     Attach.obj
 0002:00001008       ??_C@_15FPHCHCFA@?$AA?$CF?$AAi?$AA?$AA@ 00000001400ff008     Attach.obj
 0002:00001010       ??_C@_1BA@NMDNJJOO@?$AAP?$AAr?$AAo?$AAc?$AAe?$AAs?$AAs?$AA?$AA@ 00000001400ff010     Attach.obj
 0002:00001020       ??_C@_1BC@IICCDNLG@?$AAC?$AAo?$AAu?$AAn?$AAt?$AAe?$AAr?$AAs?$AA?$AA@ 00000001400ff020     Attach.obj
 0002:00001040       ??_C@_1HE@NBDABLAL@?$AAS?$AAo?$AAf?$AAt?$AAw?$AAa?$AAr?$AAe?$AA?2?$AAM?$AAi?$AAc?$AAr?$AAo?$AAs?$AAo?$AAf?$AAt?$AA?2?$AAW?$AAi?$AAn?$AAd?$AAo?$AAw?$AAs?$AA?5?$AAN?$AAT?$AA?2?$AAC?$AAu@ 00000001400ff040     Attach.obj
 0002:000010b8       ??_C@_0BL@DJAAHBPE@QueryFullProcessImageNameW?$AA@ 00000001400ff0b8     Attach.obj
 0002:000010d8       ??_C@_0P@LKABJJMO@IsWow64Process?$AA@ 00000001400ff0d8     Attach.obj
 0002:000010e8       ??_C@_1BE@NPEIJFBC@?$AAp?$AAs?$AAa?$AAp?$AAi?$AA?4?$AAd?$AAl?$AAl?$AA?$AA@ 00000001400ff0e8     Attach.obj
 0002:00001100       ??_C@_0BF@PJJPMHMO@GetModuleFileNameExW?$AA@ 00000001400ff100     Attach.obj
 0002:00001118       ??_C@_1BK@MGMFAEKH@?$AAk?$AAe?$AAr?$AAn?$AAe?$AAl?$AA3?$AA2?$AA?4?$AAd?$AAl?$AAl?$AA?$AA@ 00000001400ff118     Attach.obj
 0002:00001138       ??_C@_19DOGDICKI@?$AA?4?$AAe?$AAx?$AAe?$AA?$AA@ 00000001400ff138     Attach.obj
 0002:00001148       ??_C@_1CC@LMJBOHFL@?$AAW?$AAi?$AAn?$AAe?$AAC?$AAo?$AAn?$AAs?$AAo?$AAl?$AAe?$AAC?$AAl?$AAa?$AAs?$AAs?$AA?$AA@ 00000001400ff148     Attach.obj
 0002:00001170       ??_C@_1CG@FFFCCLIF@?$AAC?$AAo?$AAn?$AAs?$AAo?$AAl?$AAe?$AAW?$AAi?$AAn?$AAd?$AAo?$AAw?$AAC?$AAl?$AAa?$AAs?$AAs?$AA?$AA@ 00000001400ff170     Attach.obj
 0002:00001198       ??_C@_1O@GNPNAMOC@?$AA0?$AAx?$AA?$CF?$AA0?$AA8?$AAX?$AA?$AA@ 00000001400ff198     Attach.obj
 0002:000011a8       ??_C@_19ODFCKPOO@?$AA?5?$AA?$CK?$AA3?$AA2?$AA?$AA@ 00000001400ff1a8     Attach.obj
 0002:000011b8       ??_C@_19JGPEGBIB@?$AA?5?$AA?$CK?$AA6?$AA4?$AA?$AA@ 00000001400ff1b8     Attach.obj
 0002:000011c4       ??_C@_15EFLNJKHH@?$AA?$CF?$AAu?$AA?$AA@ 00000001400ff1c4     Attach.obj
 0002:000011d0       ??_C@_1EM@NPFMFMDH@?$AAA?$AAt?$AAt?$AAa?$AAc?$AAh?$AA?3?$AA?$CF?$AAs?$AA?5?$AAx?$AA?$CF?$AA0?$AA8?$AAX?$AA?1?$AAx?$AA?$CF?$AA0?$AA8?$AAX?$AA?1?$AAx?$AA?$CF?$AA0?$AA8?$AAX?$AA?5?$AA?$HL?$AA?$CF?$AAs?$AA?$HN@ 00000001400ff1d0     Attach.obj
 0002:00001220       ??_C@_1CO@OMFFKLPG@?$AA?6?$AAH?$AAo?$AAo?$AAk?$AAs?$AA?5?$AAa?$AAl?$AAr?$AAe?$AAa?$AAd?$AAy?$AA?5?$AAw?$AAa?$AAs?$AA?5?$AAs?$AAe?$AAt?$AA?$AA@ 00000001400ff220     Attach.obj
 0002:00001250       ??_C@_1GK@KNDCEOJK@?$AAF?$AAa?$AAi?$AAl?$AAe?$AAd?$AA?5?$AAt?$AAo?$AA?5?$AAs?$AAt?$AAa?$AAr?$AAt?$AA?5?$AAc?$AAo?$AAn?$AAs?$AAo?$AAl?$AAe?$AA?5?$AAs?$AAe?$AAr?$AAv?$AAe?$AAr?$AA?5?$AAi@ 00000001400ff250     Attach.obj
 0002:000012c0       ??_C@_1DM@HPOJPIAJ@?$AAC?$AAo?$AAn?$AAE?$AAm?$AAu?$AA?5?$AAA?$AAt?$AAt?$AAa?$AAc?$AAh?$AA?0?$AA?5?$AAP?$AAI?$AAD?$AA?$DN?$AA?$CF?$AAu?$AA?0?$AA?5?$AAT?$AAI?$AAD?$AA?$DN?$AA?$CF?$AAu?$AA?$AA@ 00000001400ff2c0     Attach.obj
 0002:00001300       ??_C@_1DI@KIIEMFCM@?$AAC?$AAa?$AAn?$AA?8?$AAt?$AA?5?$AAs?$AAt?$AAa?$AAr?$AAt?$AA?5?$AA?$CF?$AAs?$AA?5?$AAs?$AAe?$AAr?$AAv?$AAe?$AAr?$AA?6?$AA?$CF?$AAs?$AA?5?$AA?$CF?$AAs?$AA?$AA@ 00000001400ff300     Attach.obj
 0002:00001338       ??_C@_1BE@FBGJGIJI@?$AAi?$AAn?$AAj?$AAe?$AAc?$AAt?$AAi?$AAo?$AAn?$AA?$AA@ 00000001400ff338     Attach.obj
 0002:00001350       ??_C@_1BA@HPJMENIK@?$AAc?$AAo?$AAn?$AAs?$AAo?$AAl?$AAe?$AA?$AA@ 00000001400ff350     Attach.obj
 0002:00001360       ??_C@_1M@CDHIAJCD@?$AAr?$AAu?$AAn?$AAa?$AAs?$AA?$AA@ 00000001400ff360     Attach.obj
 0002:00001370       ??_C@_1BI@GFJEHKNC@?$AA?5?$AA?1?$AAI?$AAN?$AAJ?$AAE?$AAC?$AAT?$AA?$DN?$AA?$CF?$AAu?$AA?$AA@ 00000001400ff370     Attach.obj
 0002:00001390       ??_C@_1FA@GHFIDPBJ@?$AA?5?$AA?1?$AAA?$AAT?$AAT?$AAA?$AAC?$AAH?$AA?5?$AA?1?$AAC?$AAO?$AAN?$AAP?$AAI?$AAD?$AA?$DN?$AA?$CF?$AAu?$AA?5?$AA?1?$AAG?$AAI?$AAD?$AA?$DN?$AA?$CF?$AAu?$AA?5?$AA?1?$AAG?$AAH?$AAW@ 00000001400ff390     Attach.obj
 0002:000013e0       ??_C@_1BO@BJMGLACG@?$AA?2?$AAC?$AAo?$AAn?$AAE?$AAm?$AAu?$AAC?$AA6?$AA4?$AA?4?$AAe?$AAx?$AAe?$AA?$AA@ 00000001400ff3e0     Attach.obj
 0002:00001400       ??_C@_1BK@PCAIPEAH@?$AA?2?$AAC?$AAo?$AAn?$AAE?$AAm?$AAu?$AAC?$AA?4?$AAe?$AAx?$AAe?$AA?$AA@ 00000001400ff400     Attach.obj
 0002:00001420       ??_C@_1CK@IFINLJPE@?$AA?2?$AA?2?$AA?$CF?$AAs?$AA?2?$AAp?$AAi?$AAp?$AAe?$AA?2?$AAC?$AAo?$AAn?$AAE?$AAm?$AAu?$AAH?$AAk?$AA?$CF?$AAu?$AA?$AA@ 00000001400ff420     Attach.obj
 0002:0000144c       ??_C@_13JOFGPIOO@?$AA?4?$AA?$AA@ 00000001400ff44c     Attach.obj
 0002:00001450       ??_C@_1JA@BNCMGMEL@?$AAC?$AAA?$AAt?$AAt?$AAa?$AAc?$AAh?$AAD?$AAl?$AAg?$AA?3?$AA?3?$AAS?$AAt?$AAa?$AAr?$AAt?$AAA?$AAt?$AAt?$AAa?$AAc?$AAh?$AA?5?$AAH?$AAW?$AAN?$AAD?$AA?$DN?$AAx?$AA?$CF?$AA0@ 00000001400ff450     Attach.obj
 0002:000014e0       ??_C@_1DE@JCPMNFEG@?$AAC?$AAa?$AAn?$AA?8?$AAt?$AA?5?$AAs?$AAt?$AAa?$AAr?$AAt?$AA?5?$AAa?$AAt?$AAt?$AAa?$AAc?$AAh?$AA?5?$AAt?$AAh?$AAr?$AAe?$AAa?$AAd?$AA?$AA@ 00000001400ff4e0     Attach.obj
 0002:00001518       ??_C@_1DG@BMIBAJEM@?$AAC?$AAa?$AAn?$AA?8?$AAt?$AA?5?$AAa?$AAl?$AAl?$AAo?$AAc?$AAa?$AAt?$AAe?$AA?5?$AAA?$AAt?$AAt?$AAa?$AAc?$AAh?$AAP?$AAa?$AAr?$AAm?$AA?$CK?$AA?$AA@ 00000001400ff518     Attach.obj
 0002:00001580       ??_C@_1EE@LMOBIDAC@?$AAC?$AAA?$AAt?$AAt?$AAa?$AAc?$AAh?$AAD?$AAl?$AAg?$AA?3?$AA?3?$AAA?$AAt?$AAt?$AAa?$AAc?$AAh?$AAD?$AAl?$AAg?$AAE?$AAn?$AAu?$AAm?$AAW?$AAi?$AAn?$AA?3?$AA?3?$AAE?$AAn@ 00000001400ff580     Attach.obj
 0002:000015c8       ??_C@_1BM@GLLFNEEF@?$AAS?$AAh?$AAe?$AAl?$AAl?$AA_?$AAT?$AAr?$AAa?$AAy?$AAW?$AAn?$AAd?$AA?$AA@ 00000001400ff5c8     Attach.obj
 0002:000015f0       ??_C@_1EI@DKDNJLGB@?$AAC?$AAA?$AAt?$AAt?$AAa?$AAc?$AAh?$AAD?$AAl?$AAg?$AA?3?$AA?3?$AAA?$AAt?$AAt?$AAa?$AAc?$AAh?$AAD?$AAl?$AAg?$AAE?$AAn?$AAu?$AAm?$AAW?$AAi?$AAn?$AA?3?$AA?3?$AAB?$AAe@ 00000001400ff5f0     Attach.obj
 0002:00001638       ??_C@_1M@OAHBGIFG@?$AAC?$AAl?$AAa?$AAs?$AAs?$AA?$AA@ 00000001400ff638     Attach.obj
 0002:00001648       ??_C@_19OPNPIOHE@?$AAH?$AAW?$AAN?$AAD?$AA?$AA@ 00000001400ff648     Attach.obj
 0002:00001658       ??_C@_1BG@PCOBFNNB@?$AAI?$AAm?$AAa?$AAg?$AAe?$AA?5?$AAp?$AAa?$AAt?$AAh?$AA?$AA@ 00000001400ff658     Attach.obj
 0002:00001670       ??_C@_1BG@BNDFGHAE@?$AAI?$AAm?$AAa?$AAg?$AAe?$AA?5?$AAn?$AAa?$AAm?$AAe?$AA?$AA@ 00000001400ff670     Attach.obj
 0002:00001688       ??_C@_1M@MNHBCACD@?$AAT?$AAi?$AAt?$AAl?$AAe?$AA?$AA@ 00000001400ff688     Attach.obj
 0002:00001698       ??_C@_19BIEPDBPA@?$AAT?$AAy?$AAp?$AAe?$AA?$AA@ 00000001400ff698     Attach.obj
 0002:000016a8       ??_C@_17PDNKEHJO@?$AAP?$AAI?$AAD?$AA?$AA@ 00000001400ff6a8     Attach.obj
 0002:000016b0       ??_7CRefRelease@@6B@       00000001400ff6b0     Background.obj
 0002:000016c0       ??_7CBackground@@6B@       00000001400ff6c0     Background.obj
 0002:000016c8       ??_C@_11LOCGONAA@?$AA?$AA@ 00000001400ff6c8     Background.obj
 0002:000016d0       ??_C@_1JO@IBHHHHHE@?$AAC?$AAa?$AAn?$AA?8?$AAt?$AA?5?$AAe?$AAx?$AAp?$AAa?$AAn?$AAd?$AA?5?$AAe?$AAn?$AAv?$AAi?$AAr?$AAo?$AAn?$AAm?$AAe?$AAn?$AAt?$AA?5?$AAs?$AAt?$AAr?$AAi?$AAn?$AAg?$AAs@ 00000001400ff6d0     Background.obj
 0002:00001770       ??_C@_17BAOKFMCF@?$AA?$CF?$AA?2?$AA?4?$AA?$AA@ 00000001400ff770     Background.obj
 0002:000017f0       ??_7CBackgroundInfo@@6B@   00000001400ff7f0     Background.obj
 0002:00001880       ??_C@_1IC@PFHINMPO@?$AAI?$AAn?$AAv?$AAa?$AAl?$AAi?$AAd?$AA?5?$AA?8?$AAB?$AAg?$AAI?$AAm?$AAa?$AAg?$AAe?$AAP?$AAa?$AAt?$AAh?$AA?8?$AA?5?$AAi?$AAn?$AA?5?$AAC?$AAB?$AAa?$AAc?$AAk?$AAg?$AAr@ 00000001400ff880     Background.obj
 0002:00001910       ??_7CBaseDropTarget@@6B@   00000001400ff910     BaseDragDrops.obj
 0002:00001950       ??_7CDropSource@@6B@       00000001400ff950     BaseDragDrops.obj
 0002:00001978       ??_7CEnumFormatEtc@@6B@    00000001400ff978     BaseDragDrops.obj
 0002:000019b0       ??_C@_1GC@HDIIHOOB@?$AAU?$AAn?$AAs?$AAu?$AAp?$AAp?$AAo?$AAr?$AAt?$AAe?$AAd?$AA?5?$AAv?$AAa?$AAl?$AAu?$AAe?$AA?5?$AAi?$AAn?$AA?5?$AAm?$AA_?$AAD?$AAa?$AAt?$AAa?$AA?$FL?$AAi?$AAd?$AAx?$AA?$FN@ 00000001400ff9b0     BaseDragDrops.obj
 0002:00001a18       ??_C@_1CE@DGKPJPAJ@?$AAB?$AAa?$AAs?$AAe?$AAD?$AAr?$AAa?$AAg?$AAD?$AAr?$AAo?$AAp?$AAs?$AA?4?$AAc?$AAp?$AAp?$AA?$AA@ 00000001400ffa18     BaseDragDrops.obj
 0002:00001a70       ??_7CDataObject@@6B@       00000001400ffa70     BaseDragDrops.obj
 0002:00001b00       ??_C@_1LM@HDMDFGEJ@?$AA?$CI?$AAp?$AAM?$AAe?$AAd?$AAi?$AAu?$AAm?$AA?5?$AA?$CB?$AA?$DN?$AA?5?$AA?$CG?$AA?$CI?$AAm?$AA_?$AAD?$AAa?$AAt?$AAa?$AA?$FL?$AAn?$AAI?$AAn?$AAd?$AAe?$AAx?$AA?$FN?$AA?4?$AAS?$AAt?$AAg@ 00000001400ffb00     BaseDragDrops.obj
 0002:00001c10       ??_C@_1EHK@JMHPNAMN@?$AAA?$AAC?$AAT?$AAI?$AAV?$AAA?$AAT?$AAE?$AA?$AA?$AAA?$AAL?$AAI?$AAA?$AAS?$AA?$AA?$AAA?$AAS?$AAS?$AAO?$AAC?$AA?$AA?$AAA?$AAT?$AAT?$AAR?$AAI?$AAB?$AA?$AA?$AAB?$AAE?$AAE?$AAP@ 00000001400ffc10     CmdLine.obj
 0002:00002090       ??_C@_0BO@KOCOEJCM@Wow64RevertWow64FsRedirection?$AA@ 0000000140100090     CmdLine.obj
 0002:000020b0       ??_C@_0BP@OODKCJPP@Wow64DisableWow64FsRedirection?$AA@ 00000001401000b0     CmdLine.obj
 0002:000020d0       ??_C@_19MJCDBCKE@?$AA?2?$AA?2?$AA?$DP?$AA?2?$AA?$AA@ 00000001401000d0     CmdLine.obj
 0002:000020e0       ??_C@_1BC@NAEGMMKI@?$AA?2?$AA?2?$AA?$DP?$AA?2?$AAU?$AAN?$AAC?$AA?2?$AA?$AA@ 00000001401000e0     CmdLine.obj
 0002:000020f8       ??_C@_19CDGLJBOD@?$AA?4?$AAc?$AAo?$AAm?$AA?$AA@ 00000001401000f8     CmdLine.obj
 0002:00002108       ??_C@_1M@DOHPICJN@?$AAf?$AAa?$AAr?$AA6?$AA4?$AA?$AA@ 0000000140100108     CmdLine.obj
 0002:00002118       ??_C@_1BE@GNHPPGCJ@?$AAf?$AAa?$AAr?$AA6?$AA4?$AA?4?$AAe?$AAx?$AAe?$AA?$AA@ 0000000140100118     CmdLine.obj
 0002:00002130       ??_C@_17IOMHDNEC@?$AAf?$AAa?$AAr?$AA?$AA@ 0000000140100130     CmdLine.obj
 0002:00002138       ??_C@_1BA@ICCBDENM@?$AAf?$AAa?$AAr?$AA?4?$AAe?$AAx?$AAe?$AA?$AA@ 0000000140100138     CmdLine.obj
 0002:00002148       ??_C@_1BA@JFHFEKBP@?$AAt?$AAc?$AAc?$AA?4?$AAe?$AAx?$AAe?$AA?$AA@ 0000000140100148     CmdLine.obj
 0002:00002158       ??_C@_1BA@DBKIDAPL@?$AAc?$AAm?$AAd?$AA?4?$AAe?$AAx?$AAe?$AA?$AA@ 0000000140100158     CmdLine.obj
 0002:00002168       ??_C@_17MEJHPLBO@?$AAc?$AAm?$AAd?$AA?$AA@ 0000000140100168     CmdLine.obj
 0002:00002170       ??_C@_1HA@LIPCCFFI@?$AAh?$AAt?$AAt?$AAp?$AA?3?$AA?1?$AA?1?$AAc?$AAo?$AAd?$AAe?$AA?4?$AAg?$AAo?$AAo?$AAg?$AAl?$AAe?$AA?4?$AAc?$AAo?$AAm?$AA?1?$AAp?$AA?1?$AAc?$AAo?$AAn?$AAe?$AAm?$AAu?$AA?9@ 0000000140100170     ConEmu.obj
 0002:000021e0       ??_C@_1GM@MIIMCKJA@?$AAh?$AAt?$AAt?$AAp?$AA?3?$AA?1?$AA?1?$AAc?$AAo?$AAd?$AAe?$AA?4?$AAg?$AAo?$AAo?$AAg?$AAl?$AAe?$AA?4?$AAc?$AAo?$AAm?$AA?1?$AAp?$AA?1?$AAc?$AAo?$AAn?$AAe?$AAm?$AAu?$AA?9@ 00000001401001e0     ConEmu.obj
 0002:00002250       ??_C@_1EM@KGJHJHO@?$AAh?$AAt?$AAt?$AAp?$AA?3?$AA?1?$AA?1?$AAc?$AAo?$AAn?$AAe?$AAm?$AAu?$AA?9?$AAm?$AAa?$AAx?$AAi?$AAm?$AAu?$AAs?$AA5?$AA?4?$AAg?$AAo?$AAo?$AAg?$AAl?$AAe?$AAc?$AAo?$AAd@ 0000000140100250     ConEmu.obj
 0002:00002320       ??_C@_0CB@OLAGOLH@WTSUnRegisterSessionNotification@ 0000000140100320     ConEmu.obj
 0002:00002348       ??_C@_0BP@EBMJGLJJ@WTSRegisterSessionNotification?$AA@ 0000000140100348     ConEmu.obj
 0002:00002368       ??_C@_1BK@LJAGLKBO@?$AAW?$AAt?$AAs?$AAa?$AAp?$AAi?$AA3?$AA2?$AA?4?$AAd?$AAl?$AAl?$AA?$AA@ 0000000140100368     ConEmu.obj
 0002:00002388       ??_C@_1M@LPECMIEE@?$AA?1?$AAi?$AAc?$AAo?$AAn?$AA?$AA@ 0000000140100388     ConEmu.obj
 0002:00002398       ??_C@_19BIEPFHBA@?$AA?1?$AAd?$AAi?$AAr?$AA?$AA@ 0000000140100398     ConEmu.obj
 0002:000023b0       ??_C@_1EA@CJIHODEC@?$AA?9?$AA?9?$AA?5?$AAD?$AAe?$AAs?$AAt?$AAr?$AAo?$AAy?$AA?5?$AAs?$AAk?$AAi?$AAp?$AAp?$AAe?$AAd?$AA?5?$AAd?$AAu?$AAe?$AA?5?$AAt?$AAo?$AA?5?$AAg?$AAh?$AAW?$AAn?$AAd?$AA?$AA@ 00000001401003b0     ConEmu.obj
 0002:000023f0       ??_C@_1FO@PEGKDEEN@?$AA?9?$AA?9?$AA?5?$AAD?$AAe?$AAs?$AAt?$AAr?$AAo?$AAy?$AA?5?$AAs?$AAk?$AAi?$AAp?$AAp?$AAe?$AAd?$AA?5?$AAd?$AAu?$AAe?$AA?5?$AAt?$AAo?$AA?5?$AAg?$AAb?$AAI?$AAn?$AAD?$AAi@ 00000001401003f0     ConEmu.obj
 0002:00002450       ??_C@_1CO@DHLFGIFD@?$AAC?$AAC?$AAo?$AAn?$AAE?$AAm?$AAu?$AAM?$AAa?$AAi?$AAn?$AA?3?$AA?3?$AAD?$AAe?$AAs?$AAt?$AAr?$AAo?$AAy?$AA?$CI?$AA?$CJ?$AA?$AA@ 0000000140100450     ConEmu.obj
 0002:000024a8       ??_C@_0BI@NLPFBHCJ@UnregisterHotKey?$CIID?$DN?$CFu?$CJ?$AA@ 00000001401004a8     ConEmu.obj
 0002:000024c0       ??_C@_0DE@FNDCPILC@RegisterHotKey?$CIID?$DN?$CFu?0?5VK?$DN?$CFu?0?5MOD@ 00000001401004c0     ConEmu.obj
 0002:000024f4       ??_C@_06OHCJKBJM@FAILED?$AA@ 00000001401004f4     ConEmu.obj
 0002:000024fc       ??_C@_02GIPFHKNO@OK?$AA@   00000001401004fc     ConEmu.obj
 0002:00002500       ??_C@_0O@IIDJMDPK@ghActiveGhost?$AA@ 0000000140100500     ConEmu.obj
 0002:00002510       ??_C@_1CA@EMIJLPGE@?$AA?2?$AAC?$AAo?$AAn?$AAE?$AAm?$AAu?$AAC?$AAD?$AA6?$AA4?$AA?4?$AAd?$AAl?$AAl?$AA?$AA@ 0000000140100510     ConEmu.obj
 0002:00002530       ??_C@_0CE@JODPHIBA@CConEmuMain?3?3UnRegisterHooks?$CI?$CJ?5d@ 0000000140100530     ConEmu.obj
 0002:00002580       ??_C@_1FM@JGIILDMG@?$AAC?$AAa?$AAn?$AA?8?$AAt?$AA?5?$AAc?$AAr?$AAe?$AAa?$AAt?$AAe?$AA?5?$AAd?$AAe?$AAb?$AAu?$AAg?$AAg?$AAe?$AAr?$AA?5?$AAc?$AAo?$AAn?$AAs?$AAo?$AAl?$AAe?$AA?$CB?$AA?5?$AAE@ 0000000140100580     ConEmu.obj
 0002:000025e0       ??_C@_1EO@FKFFLFCJ@?$AA?$CC?$AA?$CF?$AAs?$AA?$CC?$AA?5?$AA?1?$AAD?$AAE?$AAB?$AAU?$AAG?$AAP?$AAI?$AAD?$AA?$DN?$AA?$CF?$AAu?$AA?5?$AA?1?$AAB?$AAW?$AA?$DN?$AA8?$AA0?$AA?5?$AA?1?$AAB?$AAH?$AA?$DN?$AA2?$AA5?$AA?5@ 00000001401005e0     ConEmu.obj
 0002:00002660       ??_C@_1JO@OMPJAKMG@?$AA?$CC?$AA?$CF?$AAs?$AA?$CC?$AA?5?$AA?1?$AAA?$AAT?$AAT?$AAA?$AAC?$AAH?$AA?5?$AA?1?$AAG?$AAI?$AAD?$AA?$DN?$AA?$CF?$AAi?$AA?5?$AA?1?$AAG?$AAH?$AAW?$AAN?$AAD?$AA?$DN?$AA?$CF?$AA0?$AA8?$AAX@ 0000000140100660     ConEmu.obj
 0002:00002728       ??_C@_1DA@IOMCIMLC@?$AA?$CC?$AA?$CF?$AAs?$AA?$CC?$AA?5?$AA?1?$AAD?$AAE?$AAB?$AAU?$AAG?$AAP?$AAI?$AAD?$AA?$DN?$AA?$CF?$AAi?$AA?5?$AA?1?$AAD?$AAU?$AAM?$AAP?$AA?$AA@ 0000000140100728     ConEmu.obj
 0002:000027d0       ??_C@_1KM@OGBINNAK@?$AAC?$AAC?$AAo?$AAn?$AAE?$AAm?$AAu?$AAM?$AAa?$AAi?$AAn?$AA?3?$AA?3?$AAS?$AAw?$AAi?$AAt?$AAc?$AAh?$AAK?$AAe?$AAy?$AAb?$AAo?$AAa?$AAr?$AAd?$AAL?$AAa?$AAy?$AAo?$AAu@ 00000001401007d0     ConEmu.obj
 0002:00002880       ??_C@_1MI@LCEFDFGI@?$AAC?$AAC?$AAo?$AAn?$AAE?$AAm?$AAu?$AAM?$AAa?$AAi?$AAn?$AA?3?$AA?3?$AAS?$AAw?$AAi?$AAt?$AAc?$AAh?$AAK?$AAe?$AAy?$AAb?$AAo?$AAa?$AAr?$AAd?$AAL?$AAa?$AAy?$AAo?$AAu@ 0000000140100880     ConEmu.obj
 0002:00002950       ??_C@_1JI@HNIJHBDN@?$AAC?$AAC?$AAo?$AAn?$AAE?$AAm?$AAu?$AAM?$AAa?$AAi?$AAn?$AA?3?$AA?3?$AAS?$AAw?$AAi?$AAt?$AAc?$AAh?$AAK?$AAe?$AAy?$AAb?$AAo?$AAa?$AAr?$AAd?$AAL?$AAa?$AAy?$AAo?$AAu@ 0000000140100950     ConEmu.obj
 0002:000029e8       ??_C@_1DA@FPMGOJML@?$AAC?$AAV?$AAC?$AAo?$AAn?$AAG?$AAr?$AAo?$AAu?$AAp?$AA?3?$AA?3?$AAO?$AAn?$AAS?$AAc?$AAC?$AAl?$AAo?$AAs?$AAe?$AA?$CI?$AA?$CJ?$AA?$AA@ 00000001401009e8     ConEmu.obj
 0002:00002a40       ??_C@_1KG@DDGIIAGJ@?$AA?5?$AA?5?$AAG?$AAe?$AAt?$AAP?$AAr?$AAi?$AAm?$AAa?$AAr?$AAy?$AAM?$AAo?$AAn?$AAi?$AAt?$AAo?$AAr?$AA?$DN?$AA?$CF?$AAu?$AA?5?$AA?9?$AA?$DO?$AA?5?$AAh?$AAM?$AAo?$AAn?$AA?$DN?$AAx@ 0000000140100a40     ConEmu.obj
 0002:00002b10       ??_C@_1FK@JIIECMHB@?$AA?$CI?$AAF?$AAo?$AAc?$AAu?$AAs?$AAO?$AAp?$AA?5?$AA?$DO?$AA?5?$AAs?$AAg?$AAf?$AA_?$AAN?$AAo?$AAn?$AAe?$AA?$CJ?$AA?5?$AA?$CG?$AA?$CG?$AA?5?$AA?$CI?$AAF?$AAo?$AAc?$AAu?$AAs?$AAO?$AAp@ 0000000140100b10     ConEmu.obj
 0002:00002b70       ??_C@_1BG@LFJJIBGB@?$AAC?$AAo?$AAn?$AAE?$AAm?$AAu?$AA?4?$AAc?$AAp?$AAp?$AA?$AA@ 0000000140100b70     ConEmu.obj
 0002:00002c00       ??_C@_1FK@PHBCCNOK@?$AAW?$AAM?$AA_?$AAI?$AAM?$AAE?$AA_?$AAS?$AAE?$AAL?$AAE?$AAC?$AAT?$AA?3?$AA?5?$AAw?$AAP?$AAa?$AAr?$AAa?$AAm?$AA?$DN?$AA0?$AAx?$AA?$CF?$AA0?$AA8?$AAX?$AA?0?$AA?5?$AAl?$AAP@ 0000000140100c00     ConEmu.obj
 0002:00002c60       ??_C@_1FM@HBIJEGIL@?$AAW?$AAM?$AA_?$AAI?$AAM?$AAE?$AA_?$AAR?$AAE?$AAQ?$AAU?$AAE?$AAS?$AAT?$AA?3?$AA?5?$AAw?$AAP?$AAa?$AAr?$AAa?$AAm?$AA?$DN?$AA0?$AAx?$AA?$CF?$AA0?$AA8?$AAX?$AA?0?$AA?5?$AAl@ 0000000140100c60     ConEmu.obj
 0002:00002cc0       ??_C@_1FK@HKLOBLDC@?$AAW?$AAM?$AA_?$AAI?$AAM?$AAE?$AA_?$AAN?$AAO?$AAT?$AAI?$AAF?$AAY?$AA?3?$AA?5?$AAw?$AAP?$AAa?$AAr?$AAa?$AAm?$AA?$DN?$AA0?$AAx?$AA?$CF?$AA0?$AA8?$AAX?$AA?0?$AA?5?$AAl?$AAP@ 0000000140100cc0     ConEmu.obj
 0002:00002d20       ??_C@_1FI@FPMJNHJM@?$AAW?$AAM?$AA_?$AAI?$AAM?$AAE?$AA_?$AAK?$AAE?$AAY?$AAU?$AAP?$AA?3?$AA?5?$AAw?$AAP?$AAa?$AAr?$AAa?$AAm?$AA?$DN?$AA0?$AAx?$AA?$CF?$AA0?$AA8?$AAX?$AA?0?$AA?5?$AAl?$AAP?$AAa@ 0000000140100d20     ConEmu.obj
 0002:00002d80       ??_C@_1FM@GAMNNDOK@?$AAW?$AAM?$AA_?$AAI?$AAM?$AAE?$AA_?$AAK?$AAE?$AAY?$AAD?$AAO?$AAW?$AAN?$AA?3?$AA?5?$AAw?$AAP?$AAa?$AAr?$AAa?$AAm?$AA?$DN?$AA0?$AAx?$AA?$CF?$AA0?$AA8?$AAX?$AA?0?$AA?5?$AAl@ 0000000140100d80     ConEmu.obj
 0002:00002de0       ??_C@_1FM@CGGPJPBK@?$AAW?$AAM?$AA_?$AAI?$AAM?$AAE?$AA_?$AAC?$AAO?$AAN?$AAT?$AAR?$AAO?$AAL?$AA?3?$AA?5?$AAw?$AAP?$AAa?$AAr?$AAa?$AAm?$AA?$DN?$AA0?$AAx?$AA?$CF?$AA0?$AA8?$AAX?$AA?0?$AA?5?$AAl@ 0000000140100de0     ConEmu.obj
 0002:00002e40       ??_C@_1GM@GOHMLCGH@?$AAW?$AAM?$AA_?$AAI?$AAM?$AAE?$AA_?$AAC?$AAO?$AAM?$AAP?$AAO?$AAS?$AAI?$AAT?$AAI?$AAO?$AAN?$AAF?$AAU?$AAL?$AAL?$AA?3?$AA?5?$AAw?$AAP?$AAa?$AAr?$AAa?$AAm?$AA?$DN?$AA0@ 0000000140100e40     ConEmu.obj
 0002:00002eb0       ??_C@_1GA@LHPHEMAK@?$AAW?$AAM?$AA_?$AAI?$AAM?$AAE?$AA_?$AAC?$AAH?$AAA?$AAR?$AA?3?$AA?5?$AAc?$AAh?$AAa?$AAr?$AA?$DN?$AA?$CF?$AAc?$AA?0?$AA?5?$AAw?$AAP?$AAa?$AAr?$AAa?$AAm?$AA?$DN?$AA?$CF?$AAu?$AA?0@ 0000000140100eb0     ConEmu.obj
 0002:00002f10       ??_C@_1GC@DNLBHMI@?$AAW?$AAM?$AA_?$AAI?$AAM?$AAE?$AA_?$AAS?$AAE?$AAT?$AAC?$AAO?$AAN?$AAT?$AAE?$AAX?$AAT?$AA?3?$AA?5?$AAw?$AAP?$AAa?$AAr?$AAa?$AAm?$AA?$DN?$AA0?$AAx?$AA?$CF?$AA0?$AA8?$AAX@ 0000000140100f10     ConEmu.obj
 0002:00002f80       ??_C@_1GO@PLKDCHI@?$AAW?$AAM?$AA_?$AAI?$AAM?$AAE?$AA_?$AAS?$AAT?$AAA?$AAR?$AAT?$AAC?$AAO?$AAM?$AAP?$AAO?$AAS?$AAI?$AAT?$AAI?$AAO?$AAN?$AA?3?$AA?5?$AAw?$AAP?$AAa?$AAr?$AAa?$AAm?$AA?$DN@ 0000000140100f80     ConEmu.obj
 0002:00002ff0       ??_C@_1GK@JHAOGJGO@?$AAW?$AAM?$AA_?$AAI?$AAM?$AAE?$AA_?$AAE?$AAN?$AAD?$AAC?$AAO?$AAM?$AAP?$AAO?$AAS?$AAI?$AAT?$AAI?$AAO?$AAN?$AA?3?$AA?5?$AAw?$AAP?$AAa?$AAr?$AAa?$AAm?$AA?$DN?$AA0?$AAx@ 0000000140100ff0     ConEmu.obj
 0002:00003060       ??_C@_1GE@IGHKPCMB@?$AAW?$AAM?$AA_?$AAI?$AAM?$AAE?$AA_?$AAC?$AAO?$AAM?$AAP?$AAO?$AAS?$AAI?$AAT?$AAI?$AAO?$AAN?$AA?3?$AA?5?$AAw?$AAP?$AAa?$AAr?$AAa?$AAm?$AA?$DN?$AA0?$AAx?$AA?$CF?$AA0?$AA8@ 0000000140101060     ConEmu.obj
 0002:000030c8       ??_C@_1BI@KFIKEBFK@?$AA0?$AAx?$AA?$CF?$AA0?$AA8?$AAX?$AA?$CF?$AA0?$AA8?$AAX?$AA?5?$AA?$AA@ 00000001401010c8     ConEmu.obj
 0002:000030e0       ??_C@_1CK@OOKAEGBB@?$AA?$HL?$AA0?$AAx?$AA?$CF?$AA0?$AA8?$AAX?$AA?0?$AA0?$AAx?$AA?$CF?$AA0?$AA8?$AAX?$AA?$CF?$AA0?$AA8?$AAX?$AA?$HN?$AA?5?$AA?$AA@ 00000001401010e0     ConEmu.obj
 0002:00003110       ??_C@_1IA@CCBKAGIB@?$AAL?$AAa?$AAy?$AAo?$AAu?$AAt?$AA?5?$AA0?$AAx?$AA?$CF?$AA0?$AA8?$AAX?$AA?5?$AAw?$AAa?$AAs?$AA?5?$AAa?$AAl?$AAr?$AAe?$AAa?$AAd?$AAy?$AA?5?$AAr?$AAe?$AAg?$AAi?$AAs?$AAt@ 0000000140101110     ConEmu.obj
 0002:00003190       ??_C@_1EK@PLEMNFH@?$AAS?$AAt?$AAo?$AAr?$AAe?$AAL?$AAa?$AAy?$AAo?$AAu?$AAt?$AAN?$AAa?$AAm?$AAe?$AA?$CI?$AA?$CF?$AAi?$AA?0?$AAx?$AA?$CF?$AA0?$AA8?$AAX?$AA?0?$AA0?$AAx?$AA?$CF?$AA0?$AA8?$AAX?$AA?$CF@ 0000000140101190     ConEmu.obj
 0002:00003210       ??_C@_1GI@OKHGMNJN@?$AAC?$AAC?$AAo?$AAn?$AAE?$AAm?$AAu?$AAM?$AAa?$AAi?$AAn?$AA?3?$AA?3?$AAO?$AAn?$AAL?$AAa?$AAn?$AAg?$AAC?$AAh?$AAa?$AAn?$AAg?$AAe?$AA?3?$AA?5?$AA?$CF?$AAs?$AA?$CI?$AAC?$AAP@ 0000000140101210     ConEmu.obj
 0002:00003278       ??_C@_1DE@PJLCNOHN@?$AAW?$AAM?$AA_?$AAI?$AAN?$AAP?$AAU?$AAT?$AAL?$AAA?$AAN?$AAG?$AAC?$AAH?$AAA?$AAN?$AAG?$AAE?$AAR?$AAE?$AAQ?$AAU?$AAE?$AAS?$AAT?$AA?$AA@ 0000000140101278     ConEmu.obj
 0002:000032b0       ??_C@_1CG@POMEKHMA@?$AAW?$AAM?$AA_?$AAI?$AAN?$AAP?$AAU?$AAT?$AAL?$AAA?$AAN?$AAG?$AAC?$AAH?$AAA?$AAN?$AAG?$AAE?$AA?$AA@ 00000001401012b0     ConEmu.obj
 0002:000032e0       ??_C@_1GO@GKLJMCAM@?$AAd?$AAw?$AAL?$AAa?$AAy?$AAo?$AAu?$AAt?$AAN?$AAa?$AAm?$AAe?$AA?5?$AAn?$AAo?$AAt?$AA?5?$AAf?$AAo?$AAu?$AAn?$AAd?$AA?3?$AA?5?$AAC?$AAo?$AAu?$AAn?$AAt?$AA?$DN?$AA?$CF?$AAu@ 00000001401012e0     ConEmu.obj
 0002:00003350       ??_C@_1CI@KCBJCGCO@?$AA?5?$AA?5?$AA?5?$AA?5?$AA?$CF?$AAu?$AA?3?$AA?5?$AA0?$AAx?$AA?$CF?$AA0?$AA8?$AAX?$AA?$CF?$AA0?$AA8?$AAX?$AA?6?$AA?$AA@ 0000000140101350     ConEmu.obj
 0002:00003380       ??_C@_1EA@IFAPLIHA@?$AA?5?$AA?5?$AAI?$AAn?$AAs?$AAt?$AAa?$AAl?$AAl?$AAe?$AAd?$AA?5?$AAk?$AAe?$AAy?$AAb?$AAo?$AAa?$AAr?$AAd?$AA?5?$AAl?$AAa?$AAy?$AAo?$AAu?$AAt?$AAs?$AA?3?$AA?$AN?$AA?6?$AA?$AA@ 0000000140101380     ConEmu.obj
 0002:000033c0       ??_C@_1FO@LHBKCLLC@?$AA?5?$AA?5?$AAC?$AAu?$AAr?$AAr?$AAe?$AAn?$AAt?$AA?5?$AAk?$AAe?$AAy?$AAb?$AAo?$AAa?$AAr?$AAd?$AA?5?$AAl?$AAa?$AAy?$AAo?$AAu?$AAt?$AA?3?$AA?$AN?$AA?6?$AA?5?$AA?5?$AA?5?$AA?5@ 00000001401013c0     ConEmu.obj
 0002:00003420       ??_C@_1EG@BMILKBGI@?$AAK?$AAe?$AAy?$AAb?$AAo?$AAa?$AAr?$AAd?$AA?5?$AAl?$AAa?$AAy?$AAo?$AAu?$AAt?$AA?5?$AAl?$AAo?$AAo?$AAk?$AAu?$AAp?$AA?5?$AA?$CI?$AA0?$AAx?$AA?$CF?$AA0?$AA8?$AAX?$AA?$CJ?$AA?5@ 0000000140101420     ConEmu.obj
 0002:00003468       ??_C@_1O@GLIHGOJN@?$AAF?$AAA?$AAI?$AAL?$AAE?$AAD?$AA?$AA@ 0000000140101468     ConEmu.obj
 0002:00003478       ??_C@_1BE@HIPJMAHD@?$AAS?$AAu?$AAc?$AAc?$AAe?$AAe?$AAd?$AAe?$AAd?$AA?$AA@ 0000000140101478     ConEmu.obj
 0002:00003490       ??_C@_1DC@FBHFFCGK@?$AAF?$AAA?$AAL?$AAS?$AAE?$AA?5?$AA?$CG?$AA?$CG?$AA?5?$AA?$CC?$AAI?$AAn?$AAv?$AAa?$AAl?$AAi?$AAd?$AA?5?$AAi?$AAn?$AAd?$AAe?$AAx?$AA?$CC?$AA?$AA@ 0000000140101490     ConEmu.obj
 0002:000034d0       ??_C@_1HM@LANAFDKE@?$AAh?$AAk?$AAl?$AA?$DN?$AA0?$AAx?$AA?$CF?$AA0?$AA8?$AAX?$AA?0?$AA?5?$AAd?$AAw?$AAL?$AAa?$AAy?$AAo?$AAu?$AAt?$AA?$DN?$AA0?$AAx?$AA?$CF?$AA0?$AA8?$AAX?$AA?$CF?$AA0?$AA8?$AAX?$AA?5@ 00000001401014d0     ConEmu.obj
 0002:00003550       ??_C@_19NGFMKOON@?$AA?$CF?$AA0?$AA8?$AAX?$AA?$AA@ 0000000140101550     ConEmu.obj
 0002:00003560       ??_C@_1GM@EGMGBLFE@?$AAC?$AAC?$AAo?$AAn?$AAE?$AAm?$AAu?$AAM?$AAa?$AAi?$AAn?$AA?3?$AA?3?$AAO?$AAn?$AAL?$AAa?$AAn?$AAg?$AAC?$AAh?$AAa?$AAn?$AAg?$AAe?$AAC?$AAo?$AAn?$AAs?$AAo?$AAl?$AAe@ 0000000140101560     ConEmu.obj
 0002:000035d0       ??_C@_1IE@HBJJMDOJ@?$AAC?$AAC?$AAo?$AAn?$AAE?$AAm?$AAu?$AAM?$AAa?$AAi?$AAn?$AA?3?$AA?3?$AAO?$AAn?$AAL?$AAa?$AAn?$AAg?$AAC?$AAh?$AAa?$AAn?$AAg?$AAe?$AAC?$AAo?$AAn?$AAs?$AAo?$AAl?$AAe@ 00000001401015d0     ConEmu.obj
 0002:00003660       ??_C@_1GG@BKCBNOOB@?$AAC?$AAC?$AAo?$AAn?$AAE?$AAm?$AAu?$AAM?$AAa?$AAi?$AAn?$AA?3?$AA?3?$AAO?$AAn?$AAL?$AAa?$AAn?$AAg?$AAC?$AAh?$AAa?$AAn?$AAg?$AAe?$AAC?$AAo?$AAn?$AAs?$AAo?$AAl?$AAe@ 0000000140101660     ConEmu.obj
 0002:00003718       ??_C@_1BA@OKFOAOPD@?$AAP?$AAr?$AAo?$AAg?$AAm?$AAa?$AAn?$AA?$AA@ 0000000140101718     ConEmu.obj
 0002:00003728       ??_C@_1BA@JFOAGKIG@?$AAW?$AAo?$AAr?$AAk?$AAe?$AAr?$AAW?$AA?$AA@ 0000000140101728     ConEmu.obj
 0002:00003788       ??_C@_09FJINEKLL@HtmlHelpW?$AA@ 0000000140101788     ConEmu.obj
 0002:00003798       ??_C@_1BG@EGGMDHIK@?$AAh?$AAh?$AAc?$AAt?$AAr?$AAl?$AA?4?$AAo?$AAc?$AAx?$AA?$AA@ 0000000140101798     ConEmu.obj
 0002:000037b0       ??_C@_1CI@NBJFFCHK@?$AAS?$AAh?$AAe?$AAl?$AAl?$AAE?$AAx?$AAe?$AAc?$AAu?$AAt?$AAe?$AA?5?$AAf?$AAa?$AAi?$AAl?$AAe?$AAd?$AA?$AA@ 00000001401017b0     ConEmu.obj
 0002:000037d8       ??_C@_19BDAJEHDN@?$AAo?$AAp?$AAe?$AAn?$AA?$AA@ 00000001401017d8     ConEmu.obj
 0002:00003810       ??_C@_1ME@OCAGICHK@?$AAA?$AAr?$AAe?$AA?5?$AAy?$AAo?$AAu?$AA?5?$AAs?$AAu?$AAr?$AAe?$AA?$DP?$AA?6?$AAA?$AAp?$AAp?$AAl?$AAi?$AAc?$AAa?$AAt?$AAi?$AAo?$AAn?$AA?5?$AAw?$AAi?$AAl?$AAl?$AA?5?$AAt@ 0000000140101810     ConEmu.obj
 0002:000038e0       ??_C@_1LO@LCLJLKOG@?$AAA?$AAr?$AAe?$AA?5?$AAy?$AAo?$AAu?$AA?5?$AAs?$AAu?$AAr?$AAe?$AA?$DP?$AA?6?$AAA?$AAp?$AAp?$AAl?$AAi?$AAc?$AAa?$AAt?$AAi?$AAo?$AAn?$AA?5?$AAw?$AAi?$AAl?$AAl?$AA?5?$AAt@ 00000001401018e0     ConEmu.obj
 0002:000039a0       ??_C@_1EM@LADBFNIB@?$AAi?$AAs?$AAD?$AAe?$AAs?$AAt?$AAr?$AAo?$AAy?$AAO?$AAn?$AAC?$AAl?$AAo?$AAs?$AAe?$AA?$CI?$AA?$CF?$AAu?$AA?$CJ?$AA?5?$AA?$HL?$AA?$CF?$AAu?$AA?0?$AA?$CF?$AAu?$AA?0?$AA?$CF?$AAu?$AA?$HN?$AA?5@ 00000001401019a0     ConEmu.obj
 0002:000039f0       ??_C@_0CM@BEJBKFKG@SetWindowStyleEx?$CIHWND?$DNx?$CF08X?0?5Sty@ 00000001401019f0     ConEmu.obj
 0002:00003a70       ??_C@_1EK@BHMHPCPO@?$AAD?$AAo?$AA?5?$AAY?$AAo?$AAu?$AA?5?$AAw?$AAa?$AAn?$AAt?$AA?5?$AAt?$AAo?$AA?5?$AAt?$AAu?$AAr?$AAn?$AA?5?$AAb?$AAu?$AAf?$AAf?$AAe?$AAr?$AAh?$AAe?$AAi?$AAg?$AAh?$AAt@ 0000000140101a70     ConEmu.obj
 0002:00003ac0       ??_C@_1EM@IOAMOHIP@?$AAD?$AAo?$AA?5?$AAY?$AAo?$AAu?$AA?5?$AAw?$AAa?$AAn?$AAt?$AA?5?$AAt?$AAo?$AA?5?$AAt?$AAu?$AAr?$AAn?$AA?5?$AAb?$AAu?$AAf?$AAf?$AAe?$AAr?$AAh?$AAe?$AAi?$AAg?$AAh?$AAt@ 0000000140101ac0     ConEmu.obj
 0002:00003b40       ??_C@_1FA@PEMMBICL@?$AAW?$AAn?$AAd?$AAW?$AAi?$AAd?$AAt?$AAh?$AA?4?$AAV?$AAa?$AAl?$AAu?$AAe?$AA?$CB?$AA?$DN?$AA0?$AA?5?$AA?$CG?$AA?$CG?$AA?5?$AAW?$AAn?$AAd?$AAH?$AAe?$AAi?$AAg?$AAh?$AAt?$AA?4?$AAV@ 0000000140101b40     ConEmu.obj
 0002:00003b90       ??_C@_1BK@OGCCLPDC@?$AAc?$AAw?$AAc?$AA_?$AAT?$AAi?$AAl?$AAe?$AAL?$AAe?$AAf?$AAt?$AA?$AA@ 0000000140101b90     ConEmu.obj
 0002:00003bb0       ??_C@_1BM@BFFIDHJH@?$AAc?$AAw?$AAc?$AA_?$AAT?$AAi?$AAl?$AAe?$AAR?$AAi?$AAg?$AAh?$AAt?$AA?$AA@ 0000000140101bb0     ConEmu.obj
 0002:00003bd0       ??_C@_1BO@GAJCNAMI@?$AAc?$AAw?$AAc?$AA_?$AAT?$AAi?$AAl?$AAe?$AAH?$AAe?$AAi?$AAg?$AAh?$AAt?$AA?$AA@ 0000000140101bd0     ConEmu.obj
 0002:00003bf0       ??_C@_1GC@MNGEKEKC@?$AAT?$AAi?$AAl?$AAe?$AA?5?$AAm?$AAo?$AAd?$AAe?$AA?5?$AAw?$AAa?$AAs?$AA?5?$AAc?$AAh?$AAa?$AAn?$AAg?$AAe?$AAd?$AA?5?$AAe?$AAx?$AAt?$AAe?$AAr?$AAn?$AAa?$AAl?$AAl?$AAy@ 0000000140101bf0     ConEmu.obj
 0002:00003c80       ??_C@_1BK@LPIBAPBG@?$AAO?$AAn?$AAM?$AAo?$AAv?$AAi?$AAn?$AAg?$AA?4?$AAe?$AAn?$AAd?$AA?$AA@ 0000000140101c80     ConEmu.obj
 0002:00003ca0       ??_C@_1GC@CGPGKNBH@?$AAS?$AAo?$AAm?$AAe?$AA?5?$AAe?$AAx?$AAt?$AAe?$AAr?$AAn?$AAa?$AAl?$AA?5?$AAp?$AAr?$AAo?$AAg?$AAr?$AAa?$AAm?$AA?5?$AAb?$AAr?$AAi?$AAn?$AAg?$AA?5?$AAC?$AAo?$AAn?$AAE@ 0000000140101ca0     ConEmu.obj
 0002:00003d10       ??_C@_0FK@LBJCAJMA@Some?5external?5program?5bring?5ConE@ 0000000140101d10     ConEmu.obj
 0002:00003d98       ??_C@_1CE@ODNAIGEK@?$AA$?$AAR?$AAe?$AAp?$AA?5?$AA?$CI?$AA?$CF?$AAi?$AA?$CJ?$AA?5?$AA?$CF?$AAs?$AA?5?$AA$?$AAE?$AAn?$AAd?$AA?$AA@ 0000000140101d98     ConEmu.obj
 0002:00003dc0       ??_C@_1BG@MICKHEDD@?$AAK?$AAe?$AAy?$AAs?$AA?$CI?$AA?$CC?$AA?$CF?$AAs?$AA?$CC?$AA?$CJ?$AA?$AA@ 0000000140101dc0     ConEmu.obj
 0002:00003de0       ??_C@_1FA@JENEFFEI@?$AAf?$AAo?$AAr?$AA?5?$AAR?$AAC?$AAo?$AAu?$AAn?$AAt?$AAe?$AAr?$AA?$DN?$AA?5?$AA?$CF?$AAi?$AA?0?$AA1?$AA?0?$AA?9?$AA1?$AA?5?$AAd?$AAo?$AA?5?$AAK?$AAe?$AAy?$AAs?$AA?$CI?$AA?$CC?$AA?$CF@ 0000000140101de0     ConEmu.obj
 0002:00003e30       ??_C@_1BC@LGKFJMML@?$AAC?$AAt?$AAr?$AAl?$AAD?$AAo?$AAw?$AAn?$AA?$AA@ 0000000140101e30     ConEmu.obj
 0002:00003e48       ??_C@_1BM@GMKOBENA@?$AAC?$AAt?$AAr?$AAl?$AAS?$AAh?$AAi?$AAf?$AAt?$AAD?$AAo?$AAw?$AAn?$AA?$AA@ 0000000140101e48     ConEmu.obj
 0002:00003e68       ??_C@_1O@HGFEDHBA@?$AAC?$AAt?$AAr?$AAl?$AAU?$AAp?$AA?$AA@ 0000000140101e68     ConEmu.obj
 0002:00003e78       ??_C@_1BI@EDDEPLHM@?$AAC?$AAt?$AAr?$AAl?$AAS?$AAh?$AAi?$AAf?$AAt?$AAU?$AAp?$AA?$AA@ 0000000140101e78     ConEmu.obj
 0002:00003e90       ??_C@_1BE@HBDDLKOJ@?$AAC?$AAt?$AAr?$AAl?$AAR?$AAi?$AAg?$AAh?$AAt?$AA?$AA@ 0000000140101e90     ConEmu.obj
 0002:00003ea8       ??_C@_1BC@MDJMKGDC@?$AAC?$AAt?$AAr?$AAl?$AAL?$AAe?$AAf?$AAt?$AA?$AA@ 0000000140101ea8     ConEmu.obj
 0002:00003ec0       ??_C@_1EE@CLGKAFDA@?$AAF?$AAa?$AAi?$AAl?$AAe?$AAd?$AA?5?$AAt?$AAo?$AA?5?$AAs?$AAt?$AAa?$AAr?$AAt?$AA?5?$AAn?$AAe?$AAw?$AA?5?$AAC?$AAo?$AAn?$AAE?$AAm?$AAu?$AA?5?$AAw?$AAi?$AAn?$AAd?$AAo@ 0000000140101ec0     ConEmu.obj
 0002:00003f08       ??_C@_1CA@EHBAGPKK@?$AA?5?$AA?9?$AAn?$AAe?$AAw?$AA_?$AAc?$AAo?$AAn?$AAs?$AAo?$AAl?$AAe?$AA?3?$AAr?$AA?$AA@ 0000000140101f08     ConEmu.obj
 0002:00003f28       ??_C@_1CA@FLMJHNL@?$AA?5?$AA?9?$AAn?$AAe?$AAw?$AA_?$AAc?$AAo?$AAn?$AAs?$AAo?$AAl?$AAe?$AA?3?$AAa?$AA?$AA@ 0000000140101f28     ConEmu.obj
 0002:00003f48       ??_C@_1M@KMOGJFHC@?$AA?1?$AAc?$AAm?$AAd?$AA?5?$AA?$AA@ 0000000140101f48     ConEmu.obj
 0002:00003f58       ??_C@_1BE@FGMNEMAN@?$AA?1?$AAc?$AAo?$AAn?$AAf?$AAi?$AAg?$AA?5?$AA?$CC?$AA?$AA@ 0000000140101f58     ConEmu.obj
 0002:00003f6c       ??_C@_15KEGLFFFP@?$AA?$CC?$AA?5?$AA?$AA@ 0000000140101f6c     ConEmu.obj
 0002:00003fa0       ??_C@_1EE@EHOCBAPD@?$AAC?$AAa?$AAn?$AA?8?$AAt?$AA?5?$AAc?$AAr?$AAe?$AAa?$AAt?$AAe?$AA?5?$AAn?$AAe?$AAw?$AA?5?$AAv?$AAi?$AAr?$AAt?$AAu?$AAa?$AAl?$AA?5?$AAc?$AAo?$AAn?$AAs?$AAo?$AAl?$AAe@ 0000000140101fa0     ConEmu.obj
 0002:00003fe8       ??_C@_1BO@IAEOCPCH@?$AA?1?$AAb?$AAu?$AAf?$AAf?$AAe?$AAr?$AAh?$AAe?$AAi?$AAg?$AAh?$AAt?$AA?5?$AA?$AA@ 0000000140101fe8     ConEmu.obj
 0002:00004080       ??_C@_0DG@IBBPNHFK@CConEmuMain?3?3RegisterHooks?$CI?$CJ?5ski@ 0000000140102080     ConEmu.obj
 0002:000040b8       ??_C@_0DP@BPJLMAFC@CConEmuMain?3?3RegisterHooks?$CI?$CJ?5fai@ 00000001401020b8     ConEmu.obj
 0002:000040f8       ??_C@_0CH@CLANCNIB@CConEmuMain?3?3RegisterHooks?$CI?$CJ?5suc@ 00000001401020f8     ConEmu.obj
 0002:00004120       ??_C@_0CN@HHHLFODE@CConEmuMain?3?3RegisterHooks?$CI?$CJ?5fai@ 0000000140102120     ConEmu.obj
 0002:00004150       ??_C@_0BE@DDGJLHKM@ghKeyHookConEmuRoot?$AA@ 0000000140102150     ConEmu.obj
 0002:00004168       ??_C@_09IHOFIAGA@ghKeyHook?$AA@ 0000000140102168     ConEmu.obj
 0002:00004178       ??_C@_0L@PKOIOABF@LLKeybHook?$AA@ 0000000140102178     ConEmu.obj
 0002:00004190       ??_C@_0EC@GDLOIPFG@CConEmuMain?3?3RegisterHooks?$CI?$CJ?5ski@ 0000000140102190     ConEmu.obj
 0002:000041e0       ??_C@_0EF@IGJJMHLA@CConEmuMain?3?3RegisterHooks?$CI?$CJ?5ski@ 00000001401021e0     ConEmu.obj
 0002:00004280       ??_C@_1FA@KHKPCMAE@?$AAM?$AAa?$AAx?$AAi?$AAm?$AAu?$AAm?$AA?5?$AAn?$AAu?$AAm?$AAb?$AAe?$AAr?$AA?5?$AAo?$AAf?$AA?5?$AAc?$AAo?$AAn?$AAs?$AAo?$AAl?$AAe?$AAs?$AA?5?$AAw?$AAa?$AAs?$AA?5?$AAr@ 0000000140102280     ConEmu.obj
 0002:000042d0       ??_C@_1BAE@PGGKGADB@?$AA?$CF?$AAs?$AA?5?$AAr?$AAe?$AAc?$AAe?$AAi?$AAv?$AAe?$AAd?$AA?5?$AAw?$AAr?$AAo?$AAn?$AAg?$AA?5?$AAv?$AAe?$AAr?$AAs?$AAi?$AAo?$AAn?$AA?5?$AAp?$AAa?$AAc?$AAk?$AAe?$AAt@ 00000001401022d0     ConEmu.obj
 0002:000043d4       ??_C@_13LBAGMAIH@?$AA?6?$AA?$AA@ 00000001401023d4     ConEmu.obj
 0002:000043e0       ??_C@_1FI@DBAAFMOB@?$AA?$CI?$AAC?$AAh?$AAe?$AAc?$AAk?$AA?5?$AAp?$AAl?$AAu?$AAg?$AAi?$AAn?$AAs?$AA?5?$AAi?$AAn?$AA?5?$AA?$CF?$AAF?$AAA?$AAR?$AAH?$AAO?$AAM?$AAE?$AA?$CF?$AA?2?$AAP?$AAl?$AAu?$AAg@ 00000001401023e0     ConEmu.obj
 0002:00004438       ??_C@_1BK@OCDCLLBB@?$AA?$CF?$AAi?$AAx?$AA?$CF?$AAi?$AA?0?$AA?5?$AA?$CF?$AAi?$AA?5?$AA?$CF?$AAs?$AA?$AA@ 0000000140102438     ConEmu.obj
 0002:00004458       ??_C@_17CGMKFFO@?$AAh?$AAi?$AAd?$AA?$AA@ 0000000140102458     ConEmu.obj
 0002:00004460       ??_C@_17KGJDOJGB@?$AAv?$AAi?$AAs?$AA?$AA@ 0000000140102460     ConEmu.obj
 0002:00004490       ??_C@_1O@MDEEBALI@?$AA?$DM?$AAn?$AAo?$AAn?$AAe?$AA?$DO?$AA?$AA@ 0000000140102490     ConEmu.obj
 0002:000044a0       ??_C@_13HGPDMIBE@?$AA?$DP?$AA?$AA@ 00000001401024a0     ConEmu.obj
 0002:000044a8       ??_C@_1M@EHLABMOL@?$AA?$CF?$AAi?$AAx?$AA?$CF?$AAi?$AA?$AA@ 00000001401024a8     ConEmu.obj
 0002:000044b8       ??_C@_1BC@KCKHDKDM@?$AA?$FL?$AA?$CF?$AAi?$AA?1?$AA?$CF?$AAi?$AA?$FN?$AA?5?$AA?$AA@ 00000001401024b8     ConEmu.obj
 0002:000044d0       ??_C@_1BC@LMIHEDGO@?$AA?$HL?$AA?$CK?$AA?$CF?$AAi?$AA?$CF?$AA?$CF?$AA?$HN?$AA?5?$AA?$AA@ 00000001401024d0     ConEmu.obj
 0002:00004510       ??_C@_1CO@OFKLJFPB@?$AA?$LL?$AA?6?$AAC?$AAu?$AAr?$AAr?$AAe?$AAn?$AAt?$AA?5?$AAd?$AAi?$AAr?$AAe?$AAc?$AAt?$AAo?$AAr?$AAy?$AA?3?$AA?6?$AA?$KL?$AA?$AA@ 0000000140102510     ConEmu.obj
 0002:00004540       ??_C@_1EC@PNONIOAI@?$AAC?$AAa?$AAn?$AA?8?$AAt?$AA?5?$AAo?$AAp?$AAe?$AAn?$AA?5?$AAc?$AAo?$AAn?$AAs?$AAo?$AAl?$AAe?$AA?5?$AAb?$AAa?$AAt?$AAc?$AAh?$AA?5?$AAf?$AAi?$AAl?$AAe?$AA?3?$AA?6?$AA?$KL@ 0000000140102540     ConEmu.obj
 0002:00004590       ??_C@_1FI@JGOFBMIL@?$AAC?$AAo?$AAn?$AAs?$AAo?$AAl?$AAe?$AA?5?$AAb?$AAa?$AAt?$AAc?$AAh?$AA?5?$AAf?$AAi?$AAl?$AAe?$AA?5?$AAi?$AAs?$AA?5?$AAt?$AAo?$AAo?$AA?5?$AAl?$AAa?$AAr?$AAg?$AAe?$AA?5@ 0000000140102590     ConEmu.obj
 0002:000045e8       ??_C@_13BEMIOJHI@?$AA?$LL?$AA?$AA@ 00000001401025e8     ConEmu.obj
 0002:000045f0       ??_C@_1EK@HHCNGKJD@?$AAR?$AAe?$AAa?$AAd?$AAi?$AAn?$AAg?$AA?5?$AAc?$AAo?$AAn?$AAs?$AAo?$AAl?$AAe?$AA?5?$AAb?$AAa?$AAt?$AAc?$AAh?$AA?5?$AAf?$AAi?$AAl?$AAe?$AA?5?$AAf?$AAa?$AAi?$AAl?$AAe@ 00000001401025f0     ConEmu.obj
 0002:0000463c       ??_C@_15JNBOKNOG@?$AA?$AN?$AA?6?$AA?$AA@ 000000014010263c     ConEmu.obj
 0002:00004648       ??_C@_19GBMGDAIM@?$AA?$CC?$AA?$CF?$AAs?$AA?$CC?$AA?$AA@ 0000000140102648     ConEmu.obj
 0002:00004654       ??_C@_13NEIAEHFG@?$AA?$CC?$AA?$AA@ 0000000140102654     ConEmu.obj
 0002:00004658       ??_C@_1CC@BJLAGADN@?$AA?5?$AA?$CC?$AA?9?$AAn?$AAe?$AAw?$AA_?$AAc?$AAo?$AAn?$AAs?$AAo?$AAl?$AAe?$AA?3?$AAd?$AA?$AA@ 0000000140102658     ConEmu.obj
 0002:00004680       ??_C@_1BC@GKFEFDID@?$AA?$CC?$AA?$CF?$AAs?$AA?$CC?$AA?$CF?$AAs?$AA?$CF?$AAs?$AA?$AA@ 0000000140102680     ConEmu.obj
 0002:00004694       ??_C@_13HOIJIPNN@?$AA?5?$AA?$AA@ 0000000140102694     ConEmu.obj
 0002:00004698       ??_C@_1DK@BACJKGOB@?$AAC?$AAa?$AAn?$AA?8?$AAt?$AA?5?$AAc?$AAr?$AAe?$AAa?$AAt?$AAe?$AA?5?$AAI?$AAI?$AAD?$AA_?$AAI?$AAS?$AAh?$AAe?$AAl?$AAl?$AAL?$AAi?$AAn?$AAk?$AAW?$AA?$AA@ 0000000140102698     ConEmu.obj
 0002:000046d8       ??_C@_1DM@GCBMCMDH@?$AAC?$AAa?$AAn?$AA?8?$AAt?$AA?5?$AAc?$AAr?$AAe?$AAa?$AAt?$AAe?$AA?5?$AAI?$AAI?$AAD?$AA_?$AAI?$AAP?$AAe?$AAr?$AAs?$AAi?$AAs?$AAt?$AAF?$AAi?$AAl?$AAe?$AA?$AA@ 00000001401026d8     ConEmu.obj
 0002:00004718       ??_C@_19BEHMAPDG@?$AA?4?$AAl?$AAn?$AAk?$AA?$AA@ 0000000140102718     ConEmu.obj
 0002:00004728       ??_C@_1BM@HODMFPME@?$AAE?$AAm?$AAp?$AAt?$AAy?$AA?5?$AAc?$AAo?$AAm?$AAm?$AAa?$AAn?$AAd?$AA?$AA@ 0000000140102728     ConEmu.obj
 0002:00004770       ??_C@_1DI@FOGMHEPH@?$AA?$EA?$AA$?$AAI?$AAf?$AA?5?$AA?$CI?$AAA?$AAP?$AAa?$AAn?$AAe?$AAl?$AA?4?$AAL?$AAe?$AAf?$AAt?$AA?$CJ?$AA?5?$AAT?$AAa?$AAb?$AA?5?$AA$?$AAE?$AAn?$AAd?$AA?$AA@ 0000000140102770     ConEmu.obj
 0002:000047a8       ??_C@_1DK@BNANNAAF@?$AA?$EA?$AA$?$AAI?$AAf?$AA?5?$AA?$CI?$AA?$CB?$AAA?$AAP?$AAa?$AAn?$AAe?$AAl?$AA?4?$AAL?$AAe?$AAf?$AAt?$AA?$CJ?$AA?5?$AAT?$AAa?$AAb?$AA?5?$AA$?$AAE?$AAn?$AAd?$AA?$AA@ 00000001401027a8     ConEmu.obj
 0002:000047e8       ??_C@_1DC@ICPFCONK@?$AA?$EA?$AA$?$AAR?$AAe?$AAp?$AA?5?$AA?$CI?$AA?$CF?$AAi?$AA?$CJ?$AA?5?$AAC?$AAt?$AAr?$AAl?$AAD?$AAo?$AAw?$AAn?$AA?5?$AA$?$AAE?$AAn?$AAd?$AA?$AA@ 00000001401027e8     ConEmu.obj
 0002:00004820       ??_C@_1FM@LJCIAEFP@?$AAf?$AAo?$AAr?$AA?5?$AAR?$AAC?$AAo?$AAu?$AAn?$AAt?$AAe?$AAr?$AA?$DN?$AA?5?$AA?$CF?$AAi?$AA?0?$AA1?$AA?0?$AA?9?$AA1?$AA?5?$AAd?$AAo?$AA?5?$AAK?$AAe?$AAy?$AAs?$AA?$CI?$AA?$CC?$AAC@ 0000000140102820     ConEmu.obj
 0002:00004880       ??_C@_1DE@DHFBDHMC@?$AA?$EA?$AA$?$AAR?$AAe?$AAp?$AA?5?$AA?$CI?$AA?$CF?$AAi?$AA?$CJ?$AA?5?$AAC?$AAt?$AAr?$AAl?$AAR?$AAi?$AAg?$AAh?$AAt?$AA?5?$AA$?$AAE?$AAn?$AAd?$AA?$AA@ 0000000140102880     ConEmu.obj
 0002:000048b8       ??_C@_1DC@PBGBHEBP@?$AA?$EA?$AA$?$AAR?$AAe?$AAp?$AA?5?$AA?$CI?$AA?$CF?$AAi?$AA?$CJ?$AA?5?$AAC?$AAt?$AAr?$AAl?$AAL?$AAe?$AAf?$AAt?$AA?5?$AA$?$AAE?$AAn?$AAd?$AA?$AA@ 00000001401028b8     ConEmu.obj
 0002:000048f0       ??_C@_1FO@BACMGPJL@?$AAf?$AAo?$AAr?$AA?5?$AAR?$AAC?$AAo?$AAu?$AAn?$AAt?$AAe?$AAr?$AA?$DN?$AA?5?$AA?$CF?$AAi?$AA?0?$AA1?$AA?0?$AA?9?$AA1?$AA?5?$AAd?$AAo?$AA?5?$AAK?$AAe?$AAy?$AAs?$AA?$CI?$AA?$CC?$AAC@ 00000001401028f0     ConEmu.obj
 0002:00004950       ??_C@_1FM@IEBLOMCK@?$AAf?$AAo?$AAr?$AA?5?$AAR?$AAC?$AAo?$AAu?$AAn?$AAt?$AAe?$AAr?$AA?$DN?$AA?5?$AA?$CF?$AAi?$AA?0?$AA1?$AA?0?$AA?9?$AA1?$AA?5?$AAd?$AAo?$AA?5?$AAK?$AAe?$AAy?$AAs?$AA?$CI?$AA?$CC?$AAC@ 0000000140102950     ConEmu.obj
 0002:000049b0       ??_C@_0CC@BLCCNMHB@RightClick?5ignored?0?5unknown?5caus@ 00000001401029b0     ConEmu.obj
 0002:000049d8       ??_C@_0CG@PPLEAMHI@RightClick?5ignored?5of?5NOT?5isFile@ 00000001401029d8     ConEmu.obj
 0002:00004a00       ??_C@_0CG@JFHENDJM@RightClick?5ignored?5of?5isConSelec@ 0000000140102a00     ConEmu.obj
 0002:00004a30       ??_C@_0GB@EAAFNCOH@RightClick?5ignored?5of?5wParam?$CG?$CIMK@ 0000000140102a30     ConEmu.obj
 0002:00004a98       ??_C@_0CO@ODBLJKCD@RightClick?5ignored?5of?5?$CBgpSet?9?$DOis@ 0000000140102a98     ConEmu.obj
 0002:00004ac8       ??_C@_0CM@IHAEEFDH@RightClick?5ignored?5of?5gpSet?9?$DOisD@ 0000000140102ac8     ConEmu.obj
 0002:00004af8       ??_C@_0CI@OCFPHLGP@MOUSE_R_LOCKED?5was?5set?3?5Rcursor?$DN@ 0000000140102af8     ConEmu.obj
 0002:00004b20       ??_C@_0CP@FMLMIPHF@RightClick?5ignored?5of?5gpSet?9?$DOnRD@ 0000000140102b20     ConEmu.obj
 0002:00004b50       ??_C@_0CD@KGAHGLPN@Right?5button?5down?3?5Rcursor?$DN?$HL?$CFi?9?$CF@ 0000000140102b50     ConEmu.obj
 0002:00004b80       ??_C@_1FI@JGABNHCP@?$AAC?$AAo?$AAn?$AAs?$AAo?$AAl?$AAe?$AA?5?$AAe?$AAm?$AAu?$AAl?$AAa?$AAt?$AAi?$AAo?$AAn?$AA?5?$AAp?$AAr?$AAo?$AAg?$AAr?$AAa?$AAm?$AA?4?$AA?5?$AAV?$AAi?$AAs?$AAi?$AAt@ 0000000140102b80     ConEmu.obj
 0002:00004be0       ??_C@_1EG@JBAEOOBL@?$AAA?$AAb?$AAo?$AAu?$AAt?$AA?5?$AAC?$AAo?$AAn?$AAE?$AAm?$AAu?$AA?5?$AA?$CI?$AA?$CF?$AA0?$AA2?$AAu?$AA?$CF?$AA0?$AA2?$AAu?$AA?$CF?$AA0?$AA2?$AAu?$AA?$CF?$AAs?$AA?5?$AA?$CF?$AAs?$AA?$CF@ 0000000140102be0     ConEmu.obj
 0002:00004c28       ??_C@_17EIACCBPF@?$AAx?$AA6?$AA4?$AA?$AA@ 0000000140102c28     ConEmu.obj
 0002:00004c30       ??_C@_1M@EMIHAPOM@?$AAA?$AAb?$AAo?$AAu?$AAt?$AA?$AA@ 0000000140102c30     ConEmu.obj
 0002:00004c40       ??_C@_1FLG@DIGLFMAE@?$AAC?$AAo?$AAn?$AAE?$AAm?$AAu?$AA?9?$AAM?$AAa?$AAx?$AAi?$AAm?$AAu?$AAs?$AA5?$AA?5?$AAi?$AAs?$AA?5?$AAa?$AA?5?$AAW?$AAi?$AAn?$AAd?$AAo?$AAw?$AAs?$AA?5?$AAc?$AAo?$AAn@ 0000000140102c40     ConEmu.obj
 0002:000051f8       ??_C@_1BK@NCKMLKEG@?$AAC?$AAo?$AAm?$AAm?$AAa?$AAn?$AAd?$AA?5?$AAl?$AAi?$AAn?$AAe?$AA?$AA@ 00000001401031f8     ConEmu.obj
 0002:00005220       ??_C@_1BDCO@LFGJMJCC@?$AAC?$AAo?$AAm?$AAm?$AAa?$AAn?$AAd?$AA?5?$AAl?$AAi?$AAn?$AAe?$AA?5?$AAe?$AAx?$AAa?$AAm?$AAp?$AAl?$AAe?$AAs?$AA?$AN?$AA?6?5?$BD?5?$BD?5?$BD?5?$BD?5?$BD?5?$BD?5?$BD?5?$BD?5?$BD@ 0000000140103220     ConEmu.obj
 0002:00006550       ??_C@_1M@GPAIAMAH@?$AAM?$AAa?$AAc?$AAr?$AAo?$AA?$AA@ 0000000140104550     ConEmu.obj
 0002:00006560       ??_C@_1CIAG@CNNGLKNP@?$AAS?$AAo?$AAr?$AAt?$AA?5?$AAo?$AAf?$AA?5?$AAs?$AAi?$AAm?$AAp?$AAl?$AAe?$AA?5?$AAm?$AAa?$AAc?$AAr?$AAo?$AA?5?$AAl?$AAa?$AAn?$AAg?$AAu?$AAa?$AAg?$AAe?$AA?0?$AA?5?$AAr@ 0000000140104560     ConEmu.obj
 0002:00008d68       ??_C@_1BA@GIKDDGPH@?$AAC?$AAo?$AAn?$AAs?$AAo?$AAl?$AAe?$AA?$AA@ 0000000140106d68     ConEmu.obj
 0002:00008d80       ??_C@_1IDC@JEHIAACJ@?$AAT?$AAh?$AAi?$AAs?$AA?5?$AAi?$AAs?$AA?5?$AAa?$AA?5?$AAc?$AAo?$AAn?$AAs?$AAo?$AAl?$AAe?$AA?5?$AAp?$AAa?$AAr?$AAt?$AA?5?$AAo?$AAf?$AA?5?$AAC?$AAo?$AAn?$AAE?$AAm?$AAu@ 0000000140106d80     ConEmu.obj
 0002:000095b8       ??_C@_1BK@NEALEMPH@?$AA?9?$AAn?$AAe?$AAw?$AA_?$AAc?$AAo?$AAn?$AAs?$AAo?$AAl?$AAe?$AA?$AA@ 00000001401075b8     ConEmu.obj
 0002:000095e0       ??_C@_1PDG@JKELKDL@?$AAW?$AAh?$AAe?$AAn?$AA?5?$AAy?$AAo?$AAu?$AA?5?$AAr?$AAu?$AAn?$AA?5?$AAa?$AAp?$AAp?$AAl?$AAi?$AAc?$AAa?$AAt?$AAi?$AAo?$AAn?$AA?5?$AAf?$AAr?$AAo?$AAm?$AA?5?$AAC?$AAo@ 00000001401075e0     ConEmu.obj
 0002:0000a518       ??_C@_1O@NHIMDFM@?$AAD?$AAo?$AAs?$AAB?$AAo?$AAx?$AA?$AA@ 0000000140108518     ConEmu.obj
 0002:0000a530       ??_C@_1JKM@OIMAMDKK@?$AAC?$AAo?$AAn?$AAE?$AAm?$AAu?$AA?5?$AAs?$AAu?$AAp?$AAp?$AAo?$AAr?$AAt?$AAs?$AA?5?$AAD?$AAo?$AAs?$AAB?$AAo?$AAx?$AA?0?$AA?5?$AAr?$AAe?$AAa?$AAd?$AA?5?$AAm?$AAo?$AAr@ 0000000140108530     ConEmu.obj
 0002:0000aee0       ??_C@_1BK@GFBIEMEK@?$AAC?$AAo?$AAn?$AAt?$AAr?$AAi?$AAb?$AAu?$AAt?$AAo?$AAr?$AAs?$AA?$AA@ 0000000140108ee0     ConEmu.obj
 0002:0000af00       ??_C@_1DDO@DAJAKAEL@?$AAT?$AAh?$AAa?$AAn?$AAk?$AAs?$AA?5?$AAt?$AAo?$AA?5?$AAa?$AAl?$AAl?$AA?5?$AAt?$AAe?$AAs?$AAt?$AAe?$AAr?$AAs?$AA?5?$AAa?$AAn?$AAd?$AA?5?$AAr?$AAe?$AAp?$AAo?$AAr?$AAt@ 0000000140108f00     ConEmu.obj
 0002:0000b240       ??_C@_1BA@JELOFKOK@?$AAL?$AAi?$AAc?$AAe?$AAn?$AAs?$AAe?$AA?$AA@ 0000000140109240     ConEmu.obj
 0002:0000b250       ??_C@_1GEA@OBAKBDFP@?$AA?$KJ?$AA?5?$AA2?$AA0?$AA0?$AA6?$AA?9?$AA2?$AA0?$AA0?$AA8?$AA?5?$AAZ?$AAo?$AAi?$AAn?$AA?5?$AA?$CI?$AAb?$AAa?$AAs?$AAe?$AAd?$AA?5?$AAo?$AAn?$AA?5?$AAc?$AAo?$AAn?$AAs?$AAo@ 0000000140109250     ConEmu.obj
 0002:0000b890       ??_C@_1BIK@NKCKEKO@?$AAY?$AAo?$AAu?$AA?5?$AAc?$AAa?$AAn?$AA?5?$AAs?$AAh?$AAo?$AAw?$AA?5?$AAy?$AAo?$AAu?$AAr?$AA?5?$AAa?$AAp?$AAp?$AAr?$AAe?$AAc?$AAi?$AAa?$AAt?$AAi?$AAo?$AAn?$AA?5?$AAa@ 0000000140109890     ConEmu.obj
 0002:0000ba20       ??_C@_1GK@CNHGFMJP@?$AAT?$AAr?$AAa?$AAn?$AAs?$AAp?$AAa?$AAr?$AAe?$AAn?$AAc?$AAy?$AA?3?$AA?5?$AAS?$AAe?$AAt?$AA?$CI?$AA0?$AAx?$AA?$CF?$AA0?$AA8?$AAX?$AA?0?$AA?5?$AA0?$AAx?$AA?$CF?$AA0?$AA8?$AAX@ 0000000140109a20     ConEmu.obj
 0002:0000ba90       ??_C@_1FE@BIJDOFNO@?$AAT?$AAr?$AAa?$AAn?$AAs?$AAp?$AAa?$AAr?$AAe?$AAn?$AAc?$AAy?$AA?3?$AA?5?$AAA?$AAt?$AAt?$AAr?$AAi?$AAb?$AAu?$AAt?$AAe?$AAs?$AA?5?$AAw?$AAe?$AAr?$AAe?$AA?5?$AAn?$AAo@ 0000000140109a90     ConEmu.obj
 0002:0000bae8       ??_C@_0DA@INMJAGGD@Transparency?3?5WS_EX_LAYERED?5was?5@ 0000000140109ae8     ConEmu.obj
 0002:0000bb18       ??_C@_0CF@KGICMEOC@Transparency?3?5Enabling?5WS_EX_LAY@ 0000000140109b18     ConEmu.obj
 0002:0000bb40       ??_C@_0DB@HNDGCOII@Transparency?3?5WS_EX_LAYERED?5was?5@ 0000000140109b40     ConEmu.obj
 0002:0000bb78       ??_C@_0CG@OKIEHAAA@Transparency?3?5Disabling?5WS_EX_LA@ 0000000140109b78     ConEmu.obj
 0002:0000bba0       ??_C@_0M@PLOLEJBE@Msg?$CF04X?$CI?$CFs?$CJ?$AA@ 0000000140109ba0     ConEmu.obj
 0002:0000bbb0       ??_C@_0CH@MDLLBBEM@?3?5HWND?$DNx?$CF08X?0?5W?$DNx?$CF08X?$CF08X?0?5L?$DNx?$CF0@ 0000000140109bb0     ConEmu.obj
 0002:0000bbd8       ??_C@_0M@PPGGDFKG@Msg?$CF04X?$CI?$CFu?$CJ?$AA@ 0000000140109bd8     ConEmu.obj
 0002:0000bbe8       ??_C@_0BB@NHADNFCB@WM_RBUTTONDBLCLK?$AA@ 0000000140109be8     ConEmu.obj
 0002:0000bc00       ??_C@_0N@KAJKEBCC@WM_RBUTTONUP?$AA@ 0000000140109c00     ConEmu.obj
 0002:0000bc10       ??_C@_0P@PEJKDEPJ@WM_RBUTTONDOWN?$AA@ 0000000140109c10     ConEmu.obj
 0002:0000bc20       ??_C@_0BB@HKCKLMMN@WM_LBUTTONDBLCLK?$AA@ 0000000140109c20     ConEmu.obj
 0002:0000bc38       ??_C@_0N@JJPNPAHJ@WM_LBUTTONUP?$AA@ 0000000140109c38     ConEmu.obj
 0002:0000bc48       ??_C@_0P@BBLDAKBL@WM_LBUTTONDOWN?$AA@ 0000000140109c48     ConEmu.obj
 0002:0000bc58       ??_C@_0O@KAKBLNCA@WM_MOUSEWHEEL?$AA@ 0000000140109c58     ConEmu.obj
 0002:0000bc68       ??_C@_09KLMHPHFG@WM_MOVING?$AA@ 0000000140109c68     ConEmu.obj
 0002:0000bc78       ??_C@_09IPIPBONJ@WM_SIZING?$AA@ 0000000140109c78     ConEmu.obj
 0002:0000bc88       ??_C@_0BF@NGDJJKJB@WM_WTSSESSION_CHANGE?$AA@ 0000000140109c88     ConEmu.obj
 0002:0000bca0       ??_C@_0N@HNNCPPOI@WM_MOUSEMOVE?$AA@ 0000000140109ca0     ConEmu.obj
 0002:0000bcb0       ??_C@_0L@KPACFFMH@WM_VSCROLL?$AA@ 0000000140109cb0     ConEmu.obj
 0002:0000bcc0       ??_C@_08DNJOAJEI@WM_TIMER?$AA@ 0000000140109cc0     ConEmu.obj
 0002:0000bcd0       ??_C@_0O@PMADOIJO@WM_SYSCOMMAND?$AA@ 0000000140109cd0     ConEmu.obj
 0002:0000bce0       ??_C@_0L@MIBPNEEE@WM_COMMAND?$AA@ 0000000140109ce0     ConEmu.obj
 0002:0000bcf0       ??_C@_0L@JKNBKGEL@WM_UNICHAR?$AA@ 0000000140109cf0     ConEmu.obj
 0002:0000bd00       ??_C@_08FFPDHIAJ@WM_x0108?$AA@ 0000000140109d00     ConEmu.obj
 0002:0000bd10       ??_C@_0P@NDKIAGJH@WM_SYSDEADCHAR?$AA@ 0000000140109d10     ConEmu.obj
 0002:0000bd20       ??_C@_0L@FMIKCMHB@WM_SYSCHAR?$AA@ 0000000140109d20     ConEmu.obj
 0002:0000bd30       ??_C@_0M@BJMELJPL@WM_SYSKEYUP?$AA@ 0000000140109d30     ConEmu.obj
 0002:0000bd40       ??_C@_0O@BHAGIJNP@WM_SYSKEYDOWN?$AA@ 0000000140109d40     ConEmu.obj
 0002:0000bd50       ??_C@_0M@LFJKCBGB@WM_DEADCHAR?$AA@ 0000000140109d50     ConEmu.obj
 0002:0000bd60       ??_C@_07KFBMPOLI@WM_CHAR?$AA@ 0000000140109d60     ConEmu.obj
 0002:0000bd68       ??_C@_08PLIFFFDN@WM_KEYUP?$AA@ 0000000140109d68     ConEmu.obj
 0002:0000bd78       ??_C@_0L@CDBKLFAF@WM_KEYDOWN?$AA@ 0000000140109d78     ConEmu.obj
 0002:0000bd88       ??_C@_0L@IEPGEGEF@WM_SETTEXT?$AA@ 0000000140109d88     ConEmu.obj
 0002:0000bd98       ??_C@_0L@GIFIDKFF@WM_GETICON?$AA@ 0000000140109d98     ConEmu.obj
 0002:0000bda8       ??_C@_07JLBBEJAD@WM_MOVE?$AA@ 0000000140109da8     ConEmu.obj
 0002:0000bdb0       ??_C@_07GILAMGFI@WM_SIZE?$AA@ 0000000140109db0     ConEmu.obj
 0002:0000bdb8       ??_C@_0BE@KDEHDBCJ@WM_WINDOWPOSCHANGED?$AA@ 0000000140109db8     ConEmu.obj
 0002:0000bdd0       ??_C@_0BF@LKGIDMPB@WM_WINDOWPOSCHANGING?$AA@ 0000000140109dd0     ConEmu.obj
 0002:0000bde8       ??_C@_0N@MDPGANDB@WM_SETHOTKEY?$AA@ 0000000140109de8     ConEmu.obj
 0002:0000bdf8       ??_C@_08EDBCNPKP@WM_PAINT?$AA@ 0000000140109df8     ConEmu.obj
 0002:0000be08       ??_C@_0O@FJJJLNAE@WM_SHOWWINDOW?$AA@ 0000000140109e08     ConEmu.obj
 0002:0000be18       ??_C@_09IFMDBMNH@WM_CREATE?$AA@ 0000000140109e18     ConEmu.obj
 0002:0000be28       ??_C@_1CA@FHNKNCOM@?$AAC?$AAo?$AAn?$AAE?$AAm?$AAu?$AAW?$AAo?$AAr?$AAk?$AAD?$AAr?$AAi?$AAv?$AAe?$AA?$AA@ 0000000140109e28     ConEmu.obj
 0002:0000be48       ??_C@_1CO@DEMMLNBG@?$AA?6?$AAC?$AAo?$AAn?$AAE?$AAm?$AAu?$AA?5?$AAw?$AAi?$AAl?$AAl?$AA?5?$AAe?$AAx?$AAi?$AAt?$AAs?$AA?5?$AAn?$AAo?$AAw?$AA?$AA@ 0000000140109e48     ConEmu.obj
 0002:0000be78       ??_C@_1DE@BLPNGBDJ@?$AAC?$AAo?$AAn?$AAE?$AAm?$AAu?$AA?5?$AAw?$AAa?$AAs?$AA?5?$AAs?$AAt?$AAa?$AAr?$AAt?$AAe?$AAd?$AA?5?$AAf?$AAr?$AAo?$AAm?$AA?3?$AA?6?$AA?$AA@ 0000000140109e78     ConEmu.obj
 0002:0000beb0       ??_C@_1DM@FIMACONC@?$AAR?$AAe?$AAc?$AAo?$AAm?$AAm?$AAe?$AAn?$AAd?$AAe?$AAd?$AA?5?$AAf?$AAi?$AAl?$AAe?$AAs?$AA?5?$AAn?$AAo?$AAt?$AA?5?$AAf?$AAo?$AAu?$AAn?$AAd?$AA?$CB?$AA?6?$AA?$AA@ 0000000140109eb0     ConEmu.obj
 0002:0000beec       ??_C@_15IABLJNFO@?$AA?6?$AA?6?$AA?$AA@ 0000000140109eec     ConEmu.obj
 0002:0000bef8       ??_C@_1DG@KHOJKLIO@?$AAR?$AAe?$AAq?$AAu?$AAi?$AAr?$AAe?$AAd?$AA?5?$AAf?$AAi?$AAl?$AAe?$AAs?$AA?5?$AAn?$AAo?$AAt?$AA?5?$AAf?$AAo?$AAu?$AAn?$AAd?$AA?$CB?$AA?6?$AA?$AA@ 0000000140109ef8     ConEmu.obj
 0002:0000bf30       ??_C@_1BE@LNJEPDEK@?$AAW?$AAa?$AAr?$AAn?$AAi?$AAn?$AAg?$AA?6?$AA?6?$AA?$AA@ 0000000140109f30     ConEmu.obj
 0002:0000bf48       ??_C@_1CC@JJKJNCNF@?$AAC?$AAr?$AAi?$AAt?$AAi?$AAc?$AAa?$AAl?$AA?5?$AAe?$AAr?$AAr?$AAo?$AAr?$AA?6?$AA?6?$AA?$AA@ 0000000140109f48     ConEmu.obj
 0002:0000bf6c       ??_C@_15JOGBDECP@?$AA?0?$AA?5?$AA?$AA@ 0000000140109f6c     ConEmu.obj
 0002:0000bf74       ??_C@_13FPGAJAPJ@?$AA?2?$AA?$AA@ 0000000140109f74     ConEmu.obj
 0002:0000bf78       ??_C@_1BO@MLCHEAGG@?$AAC?$AAo?$AAn?$AAE?$AAm?$AAu?$AAH?$AAk?$AA6?$AA4?$AA?4?$AAd?$AAl?$AAl?$AA?$AA@ 0000000140109f78     ConEmu.obj
 0002:0000bf98       ??_C@_1BK@FLBMCLFA@?$AAC?$AAo?$AAn?$AAE?$AAm?$AAu?$AAH?$AAk?$AA?4?$AAd?$AAl?$AAl?$AA?$AA@ 0000000140109f98     ConEmu.obj
 0002:0000bfb8       ??_C@_1BO@KPCFCPEP@?$AAC?$AAo?$AAn?$AAE?$AAm?$AAu?$AAC?$AAD?$AA6?$AA4?$AA?4?$AAd?$AAl?$AAl?$AA?$AA@ 0000000140109fb8     ConEmu.obj
 0002:0000bfd8       ??_C@_1BK@HOIBFEDE@?$AAC?$AAo?$AAn?$AAE?$AAm?$AAu?$AAC?$AAD?$AA?4?$AAd?$AAl?$AAl?$AA?$AA@ 0000000140109fd8     ConEmu.obj
 0002:0000bff8       ??_C@_1BM@DIGKKBBA@?$AAC?$AAo?$AAn?$AAE?$AAm?$AAu?$AAC?$AA6?$AA4?$AA?4?$AAe?$AAx?$AAe?$AA?$AA@ 0000000140109ff8     ConEmu.obj
 0002:0000c018       ??_C@_1BI@OPBAAHCM@?$AAC?$AAo?$AAn?$AAE?$AAm?$AAu?$AAC?$AA?4?$AAe?$AAx?$AAe?$AA?$AA@ 000000014010a018     ConEmu.obj
 0002:0000c030       ??_C@_1HE@PKKDFNAE@?$AAI?$AAn?$AAv?$AAa?$AAl?$AAi?$AAd?$AA?5?$AAf?$AAi?$AAl?$AAe?$AA?5?$AAp?$AAa?$AAt?$AAh?$AA?5?$AAs?$AAp?$AAe?$AAc?$AAi?$AAf?$AAi?$AAe?$AAd?$AA?5?$AAi?$AAn?$AA?5?$AAC@ 000000014010a030     ConEmu.obj
 0002:0000c0b0       ??_C@_1IG@ILABBMEE@?$AAU?$AAn?$AAs?$AAu?$AAp?$AAp?$AAo?$AAr?$AAt?$AAe?$AAd?$AA?5?$AAf?$AAi?$AAl?$AAe?$AA?5?$AAe?$AAx?$AAt?$AAe?$AAn?$AAs?$AAi?$AAo?$AAn?$AA?5?$AAs?$AAp?$AAe?$AAc?$AAi@ 000000014010a0b0     ConEmu.obj
 0002:0000c140       ??_C@_1IG@GDNHNBHL@?$AAF?$AAa?$AAi?$AAl?$AAe?$AAd?$AA?5?$AAt?$AAo?$AA?5?$AAe?$AAx?$AAp?$AAa?$AAn?$AAd?$AA?5?$AAs?$AAp?$AAe?$AAc?$AAi?$AAf?$AAi?$AAe?$AAd?$AA?5?$AAf?$AAi?$AAl?$AAe?$AA?5@ 000000014010a140     ConEmu.obj
 0002:0000c1d0       ??_C@_1KA@IGPNEDBJ@?$AAI?$AAn?$AAv?$AAa?$AAl?$AAi?$AAd?$AA?5?$AAf?$AAi?$AAl?$AAe?$AA?5?$AAp?$AAa?$AAt?$AAh?$AA?5?$AAs?$AAp?$AAe?$AAc?$AAi?$AAf?$AAi?$AAe?$AAd?$AA?5?$AAi?$AAn?$AA?5?$AAC@ 000000014010a1d0     ConEmu.obj
 0002:0000c270       ??_C@_1EO@DGJJDOCG@?$AAF?$AAa?$AAi?$AAl?$AAe?$AAd?$AA?5?$AAt?$AAo?$AA?5?$AAc?$AAr?$AAe?$AAa?$AAt?$AAe?$AA?5?$AAc?$AAo?$AAn?$AAf?$AAi?$AAg?$AAu?$AAr?$AAa?$AAt?$AAi?$AAo?$AAn?$AA?5?$AAf@ 000000014010a270     ConEmu.obj
 0002:0000c2c0       ??_C@_19PHMOHKPA@?$AA?4?$AAx?$AAm?$AAl?$AA?$AA@ 000000014010a2c0     ConEmu.obj
 0002:0000c2d0       ??_C@_19PGJFMJNJ@?$AA?4?$AAi?$AAn?$AAi?$AA?$AA@ 000000014010a2d0     ConEmu.obj
 0002:0000c2e0       ??_C@_1BI@NIJLAJNH@?$AA?2?$AAC?$AAo?$AAn?$AAE?$AAm?$AAu?$AA?4?$AAx?$AAm?$AAl?$AA?$AA@ 000000014010a2e0     ConEmu.obj
 0002:0000c2f8       ??_C@_1CK@NADFAGFI@?$AA?$CF?$AAA?$AAP?$AAP?$AAD?$AAA?$AAT?$AAA?$AA?$CF?$AA?2?$AAC?$AAo?$AAn?$AAE?$AAm?$AAu?$AA?4?$AAx?$AAm?$AAl?$AA?$AA@ 000000014010a2f8     ConEmu.obj
 0002:0000c328       ??_C@_1BI@NJMALKPO@?$AA?2?$AAC?$AAo?$AAn?$AAE?$AAm?$AAu?$AA?4?$AAi?$AAn?$AAi?$AA?$AA@ 000000014010a328     ConEmu.obj
 0002:0000c368       ??_C@_1BG@CAMNOHNF@?$AA?2?$AAS?$AAY?$AAS?$AAW?$AAO?$AAW?$AA6?$AA4?$AA?2?$AA?$AA@ 000000014010a368     ConEmu.obj
 0002:0000c380       ??_C@_1BI@HFPGELOG@?$AA?2?$AAS?$AAY?$AAS?$AAN?$AAA?$AAT?$AAI?$AAV?$AAE?$AA?2?$AA?$AA@ 000000014010a380     ConEmu.obj
 0002:0000c398       ??_C@_1DM@FJMPAKCG@?$AAn?$AAF?$AAo?$AAn?$AAt?$AAW?$AAi?$AAd?$AAt?$AAh?$AA?$DO?$AA0?$AA?5?$AA?$CG?$AA?$CG?$AA?5?$AAn?$AAF?$AAo?$AAn?$AAt?$AAH?$AAe?$AAi?$AAg?$AAh?$AAt?$AA?$DO?$AA0?$AA?$AA@ 000000014010a398     ConEmu.obj
 0002:0000c3e0       ??_C@_1GA@EKDOMKHB@?$AAg?$AAp?$AAS?$AAe?$AAt?$AAC?$AAl?$AAs?$AA?9?$AA?$DO?$AAF?$AAo?$AAn?$AAt?$AAW?$AAi?$AAd?$AAt?$AAh?$AA?$CI?$AA?$CJ?$AA?5?$AA?$CG?$AA?$CG?$AA?5?$AAg?$AAp?$AAS?$AAe?$AAt?$AAC?$AAl@ 000000014010a3e0     ConEmu.obj
 0002:0000c470       ??_C@_1FG@PDBDMPEP@?$AAC?$AAr?$AAe?$AAa?$AAt?$AAe?$AA?5?$AAl?$AAo?$AAg?$AA?5?$AAf?$AAi?$AAl?$AAe?$AA?5?$AAf?$AAa?$AAi?$AAl?$AAe?$AAd?$AA?$CB?$AA?5?$AAE?$AAr?$AAr?$AAC?$AAo?$AAd?$AAe?$AA?$DN@ 000000014010a470     ConEmu.obj
 0002:0000c4c8       ??_C@_1BG@KHDILNDO@?$AAC?$AAo?$AAn?$AAE?$AAm?$AAu?$AA?9?$AAg?$AAu?$AAi?$AA?$AA@ 000000014010a4c8     ConEmu.obj
 0002:0000c4e0       ??_C@_1CI@LFGOMBIL@?$AA?2?$AAD?$AAo?$AAs?$AAB?$AAo?$AAx?$AA?2?$AAD?$AAo?$AAs?$AAB?$AAo?$AAx?$AA?4?$AAc?$AAo?$AAn?$AAf?$AA?$AA@ 000000014010a4e0     ConEmu.obj
 0002:0000c508       ??_C@_1CG@DJLANNPG@?$AA?2?$AAD?$AAo?$AAs?$AAB?$AAo?$AAx?$AA?2?$AAD?$AAo?$AAs?$AAB?$AAo?$AAx?$AA?4?$AAe?$AAx?$AAe?$AA?$AA@ 000000014010a508     ConEmu.obj
 0002:0000c580       ??_7CConEmuMain@@6BCConEmuCtrl@@@ 000000014010a580     ConEmu.obj
 0002:0000c588       ??_7CConEmuMain@@6BCGestures@@@ 000000014010a588     ConEmu.obj
 0002:0000c5c0       ??_7CConEmuMain@@6BCFrameHolder@@@ 000000014010a5c0     ConEmu.obj
 0002:0000c5e0       ??_7CConEmuMain@@6BCTaskBar@@@ 000000014010a5e0     ConEmu.obj
 0002:0000c5e8       ??_7CConEmuMain@@6BCDwmHelper@@@ 000000014010a5e8     ConEmu.obj
 0002:0000c610       ??_C@_1EE@KPNIBJFN@?$AAA?$AAt?$AAt?$AAa?$AAc?$AAh?$AAR?$AAe?$AAq?$AAu?$AAe?$AAs?$AAt?$AAe?$AAd?$AAG?$AAu?$AAi?$AA?4?$AA?5?$AAA?$AAp?$AAp?$AAP?$AAI?$AAD?$AA?$DN?$AA?$CF?$AAu?$AA?4?$AA?5?$AA?$CF@ 000000014010a610     ConEmu.obj
 0002:0000c658       ??_C@_1BC@FKKKLHNG@?$AAR?$AAe?$AAj?$AAe?$AAc?$AAt?$AAe?$AAd?$AA?$AA@ 000000014010a658     ConEmu.obj
 0002:0000c670       ??_C@_1DA@BHHKGOJG@?$AAS?$AAu?$AAc?$AAc?$AAe?$AAe?$AAd?$AAe?$AAd?$AA?4?$AA?5?$AAS?$AAe?$AAr?$AAv?$AAe?$AAr?$AAP?$AAI?$AAD?$AA?$DN?$AA?$CF?$AAu?$AA?$AA@ 000000014010a670     ConEmu.obj
 0002:0000c6a0       ??_C@_1O@DPFEOIGE@?$AA?$DM?$AAN?$AAU?$AAL?$AAL?$AA?$DO?$AA?$AA@ 000000014010a6a0     ConEmu.obj
 0002:0000c6b0       ??_C@_1FC@JOBKENHD@?$AAA?$AAt?$AAt?$AAa?$AAc?$AAh?$AAR?$AAe?$AAq?$AAu?$AAe?$AAs?$AAt?$AAe?$AAd?$AAG?$AAu?$AAi?$AA?4?$AA?5?$AAA?$AAp?$AAp?$AAP?$AAI?$AAD?$AA?$DN?$AA?$CF?$AAu?$AA?0?$AA?5?$AAF@ 000000014010a6b0     ConEmu.obj
 0002:0000c708       ??_C@_19GPGAIFNL@?$AA?4?$AAi?$AAc?$AAo?$AA?$AA@ 000000014010a708     ConEmu.obj
 0002:0000c740       ??_C@_1CI@PDOPFPLH@?$AAV?$AAi?$AAr?$AAt?$AAu?$AAa?$AAl?$AAC?$AAo?$AAn?$AAs?$AAo?$AAl?$AAe?$AAC?$AAl?$AAa?$AAs?$AAs?$AA?$AA@ 000000014010a740     ConEmu.obj
 0002:0000c790       ??_C@_1M@BIFDOGDE@?$AA?$CF?$AAi?$AA?1?$AA?$CF?$AAi?$AA?$AA@ 000000014010a790     ConEmu.obj
 0002:0000c7a0       ??_C@_1BC@FMPKCNLP@?$AA?$CF?$AA?$CF?$AAE?$AAr?$AAr?$AAo?$AAr?$AA?5?$AA?$AA@ 000000014010a7a0     ConEmu.obj
 0002:0000c7b8       ??_C@_1BI@DOAAPIAP@?$AA?$CF?$AA?$CF?$AAP?$AAr?$AAo?$AAg?$AAr?$AAe?$AAs?$AAs?$AA?5?$AA?$AA@ 000000014010a7b8     ConEmu.obj
 0002:0000c7d0       ??_C@_1BA@HALAENJB@?$AAV?$AAi?$AAe?$AAw?$AAe?$AAr?$AA?5?$AA?$AA@ 000000014010a7d0     ConEmu.obj
 0002:0000c7e0       ??_C@_1BA@HHFIFNOM@?$AAE?$AAd?$AAi?$AAt?$AAo?$AAr?$AA?5?$AA?$AA@ 000000014010a7e0     ConEmu.obj
 0002:0000c7f0       ??_C@_1BA@JGKCAHBG@?$AAP?$AAa?$AAn?$AAe?$AAl?$AAs?$AA?5?$AA?$AA@ 000000014010a7f0     ConEmu.obj
 0002:0000c800       ??_C@_19HFEIEDLP@?$AAF?$AAa?$AAr?$AA?5?$AA?$AA@ 000000014010a800     ConEmu.obj
 0002:0000c810       ??_C@_1O@MJLODPCK@?$AA1?$AA6?$AAb?$AAi?$AAt?$AA?5?$AA?$AA@ 000000014010a810     ConEmu.obj
 0002:0000c820       ??_C@_1BA@ENKOIKHB@?$AAT?$AAe?$AAl?$AAn?$AAe?$AAt?$AA?5?$AA?$AA@ 000000014010a820     ConEmu.obj
 0002:0000c880       ??_C@_1CM@OHCPOAOH@?$AAR?$AAe?$AAg?$AAi?$AAt?$AAs?$AAe?$AAr?$AA?5?$AAc?$AAl?$AAa?$AAs?$AAs?$AA?5?$AAf?$AAa?$AAi?$AAl?$AAe?$AAd?$AA?$AA@ 000000014010a880     ConEmu.obj
 0002:0000c8b0       ??_C@_1CK@HMGAAEMJ@?$AAC?$AAo?$AAn?$AAE?$AAm?$AAu?$AA_?$AAR?$AAi?$AAg?$AAh?$AAt?$AAC?$AAl?$AAi?$AAc?$AAk?$AAi?$AAn?$AAg?$AA?$AA@ 000000014010a8b0     ConEmu.obj
 0002:0000c8dc       ??_C@_13ENNFDPBH@?$AA_?$AA?$AA@ 000000014010a8dc     ConEmu.obj
 0002:0000c8e0       ??_C@_1CC@CMDCIKMM@?$AAC?$AAo?$AAn?$AAE?$AAm?$AAu?$AAG?$AAu?$AAi?$AAS?$AAt?$AAa?$AAr?$AAt?$AAe?$AAd?$AA?$AA@ 000000014010a8e0     ConEmu.obj
 0002:0000c910       ??_C@_1HG@ELDOHDOF@?$AAT?$AAi?$AAl?$AAe?$AA?5?$AAm?$AAo?$AAd?$AAe?$AA?5?$AAw?$AAa?$AAs?$AA?5?$AAs?$AAt?$AAo?$AAp?$AAp?$AAe?$AAd?$AA?5?$AAo?$AAn?$AA?5?$AAr?$AAe?$AAs?$AAi?$AAz?$AAi?$AAn@ 000000014010a910     ConEmu.obj
 0002:0000c990       ??_C@_1OE@EPMKFKLN@?$AAO?$AAn?$AAG?$AAe?$AAt?$AAM?$AAi?$AAn?$AAM?$AAa?$AAx?$AAI?$AAn?$AAf?$AAo?$AA?$FL?$AAa?$AAf?$AAt?$AAe?$AAr?$AA?$FN?$AA?5?$AA?5?$AAM?$AAa?$AAx?$AAS?$AAi?$AAz?$AAe?$AA?$DN@ 000000014010a990     ConEmu.obj
 0002:0000ca80       ??_C@_1OE@PGCEPINO@?$AAO?$AAn?$AAG?$AAe?$AAt?$AAM?$AAi?$AAn?$AAM?$AAa?$AAx?$AAI?$AAn?$AAf?$AAo?$AA?$FL?$AAb?$AAe?$AAf?$AAo?$AAr?$AAe?$AA?$FN?$AA?5?$AAM?$AAa?$AAx?$AAS?$AAi?$AAz?$AAe?$AA?$DN@ 000000014010aa80     ConEmu.obj
 0002:0000cb90       ??_C@_0EN@FLDGHBBF@?$CB?$CI?$CI?$CIwParam?5?$CG?50xFF?$CJ?5?$DO?$DN?5VK_WHEEL_F@ 000000014010ab90     ConEmu.obj
 0002:0000cbe0       ??_C@_0CN@ENNLADBL@iProcessDeadChars?$DN?$DN0?5?$HM?$HM?5iProcess@ 000000014010abe0     ConEmu.obj
 0002:0000cc10       ??_C@_0CI@GNFACPCK@messg?5?$CB?$DN?5WM_CHAR?5?$CG?$CG?5messg?5?$CB?$DN?5WM_@ 000000014010ac10     ConEmu.obj
 0002:0000cc38       ??_C@_0CI@BCJMGGMF@msgList?$FLiDeadMsgIndex?$FN?4message?5?$DN@ 000000014010ac38     ConEmu.obj
 0002:0000cc60       ??_C@_0BA@PMCDHAO@iDeadMsgIndex?$DO0?$AA@ 000000014010ac60     ConEmu.obj
 0002:0000cc70       ??_C@_0BH@CLCEMABB@iProcessDeadChars?5?$DN?$DN?52?$AA@ 000000014010ac70     ConEmu.obj
 0002:0000cc88       ??_C@_0DB@OGNGDEGA@iProcessDeadChars?$DN?$DN0?5?$CG?$CG?5?$CCMust?5be@ 000000014010ac88     ConEmu.obj
 0002:0000ccc0       ??_C@_0FG@HODGEGJM@msg1?4message?5?$DN?$DN?5msg?4message?5?$CG?$CG?5m@ 000000014010acc0     ConEmu.obj
 0002:0000cd20       ??_C@_0EA@EOPGCBHA@?$CImessg?5?$DN?$DN?5WM_KEYUP?5?$HM?$HM?5messg?5?$DN?$DN?5W@ 000000014010ad20     ConEmu.obj
 0002:0000cd60       ??_C@_1BK@NOINNAL@?$AA?6?$AAi?$AAU?$AAn?$AAu?$AAs?$AAe?$AAd?$AA?$DN?$AA?$DN?$AA?9?$AA1?$AA?$AA@ 000000014010ad60     ConEmu.obj
 0002:0000cd80       ??_C@_1HK@CMGEDPIN@?$AA?6?$AAL?$AAO?$AAW?$AAO?$AAR?$AAD?$AA?$CI?$AAh?$AAk?$AAl?$AA?$CJ?$AA?$DN?$AA?$DN?$AAL?$AAO?$AAW?$AAO?$AAR?$AAD?$AA?$CI?$AAd?$AAw?$AAL?$AAa?$AAy?$AAo?$AAu?$AAt?$AA?$CJ?$AA?5?$AA?9@ 000000014010ad80     ConEmu.obj
 0002:0000ce00       ??_C@_1EK@EKBKLHAP@?$AAL?$AAa?$AAy?$AAo?$AAu?$AAt?$AA?$DN?$AA?$CF?$AAs?$AA?0?$AA?5?$AAH?$AAK?$AAL?$AA?$DN?$AA0?$AAx?$AA?$CF?$AA0?$AA8?$AAX?$AA?$CF?$AA0?$AA8?$AAX?$AA?0?$AA?5?$AAC?$AAo?$AAu?$AAn?$AAt@ 000000014010ae00     ConEmu.obj
 0002:0000ce50       ??_C@_1HI@PDJKCKCA@?$AAF?$AAi?$AAl?$AAe?$AA?5?$AA?8?$AAW?$AAh?$AAa?$AAt?$AAs?$AAN?$AAe?$AAw?$AA?9?$AAC?$AAo?$AAn?$AAE?$AAm?$AAu?$AA?4?$AAt?$AAx?$AAt?$AA?8?$AA?5?$AAn?$AAo?$AAt?$AA?5?$AAf@ 000000014010ae50     ConEmu.obj
 0002:0000cec8       ??_C@_1CK@MCNHOAEP@?$AA?2?$AAW?$AAh?$AAa?$AAt?$AAs?$AAN?$AAe?$AAw?$AA?9?$AAC?$AAo?$AAn?$AAE?$AAm?$AAu?$AA?4?$AAt?$AAx?$AAt?$AA?$AA@ 000000014010aec8     ConEmu.obj
 0002:0000cf00       ??_C@_1LI@GEIGANFC@?$AA?$CF?$AAs?$AA?3?$AA?5?$AA?$CF?$AAs?$AA?5?$AA?$CF?$AAs?$AA?5?$AAW?$AAi?$AAn?$AAd?$AAo?$AAw?$AAM?$AAo?$AAd?$AAe?$AA?$DN?$AA?$CF?$AAu?$AA?5?$AAR?$AAe?$AAc?$AAt?$AA?$DN?$AA?$HL?$AA?$CF?$AAi@ 000000014010af00     ConEmu.obj
 0002:0000cfb8       ??_C@_1BE@MMHHEONC@?$AAW?$AAi?$AAn?$AAd?$AAo?$AAw?$AAP?$AAo?$AAs?$AA?$AA@ 000000014010afb8     ConEmu.obj
 0002:0000cfd0       ??_C@_1O@OGDCCNPE@?$AAH?$AAi?$AAd?$AAd?$AAe?$AAn?$AA?$AA@ 000000014010afd0     ConEmu.obj
 0002:0000cfe0       ??_C@_1BA@DFCBHGCL@?$AAV?$AAi?$AAs?$AAi?$AAb?$AAl?$AAe?$AA?$AA@ 000000014010afe0     ConEmu.obj
 0002:0000cff0       ??_C@_1O@PFKKKDLL@?$AAN?$AAo?$AAr?$AAm?$AAa?$AAl?$AA?$AA@ 000000014010aff0     ConEmu.obj
 0002:0000d000       ??_C@_1BE@LPAGNBPO@?$AAM?$AAa?$AAx?$AAi?$AAm?$AAi?$AAz?$AAe?$AAd?$AA?$AA@ 000000014010b000     ConEmu.obj
 0002:0000d018       ??_C@_1O@HNICNLHK@?$AAI?$AAc?$AAo?$AAn?$AAi?$AAc?$AA?$AA@ 000000014010b018     ConEmu.obj
 0002:0000d030       ??_C@_1FO@BGAPBIGG@?$AAC?$AAa?$AAn?$AA?8?$AAt?$AA?5?$AAm?$AAa?$AAp?$AA?5?$AAc?$AAo?$AAn?$AAs?$AAo?$AAl?$AAe?$AA?5?$AAi?$AAn?$AAf?$AAo?$AA?5?$AA?$CI?$AA?$CF?$AAs?$AA?$CJ?$AA?4?$AA?5?$AAE?$AAr?$AAr@ 000000014010b030     ConEmu.obj
 0002:0000d090       ??_C@_19EOHDNDII@?$AAR?$AAe?$AAa?$AAd?$AA?$AA@ 000000014010b090     ConEmu.obj
 0002:0000d0a0       ??_C@_1BE@HADLJAO@?$AAR?$AAe?$AAa?$AAd?$AAW?$AAr?$AAi?$AAt?$AAe?$AA?$AA@ 000000014010b0a0     ConEmu.obj
 0002:0000d0c0       ??_C@_1GM@LGOLGABE@?$AAC?$AAa?$AAn?$AA?8?$AAt?$AA?5?$AA?$CF?$AAs?$AA?5?$AAc?$AAo?$AAn?$AAs?$AAo?$AAl?$AAe?$AA?5?$AAd?$AAa?$AAt?$AAa?$AA?5?$AAf?$AAi?$AAl?$AAe?$AA?5?$AAm?$AAa?$AAp?$AAp?$AAi@ 000000014010b0c0     ConEmu.obj
 0002:0000d130       ??_C@_1O@KBENBEFG@?$AAc?$AAr?$AAe?$AAa?$AAt?$AAe?$AA?$AA@ 000000014010b130     ConEmu.obj
 0002:0000d140       ??_C@_1GK@OGACKIKJ@?$AAI?$AAn?$AAt?$AAe?$AAr?$AAn?$AAa?$AAl?$AA?5?$AAe?$AAr?$AAr?$AAo?$AAr?$AA?4?$AA?5?$AAM?$AAa?$AAp?$AAp?$AAi?$AAn?$AAg?$AA?5?$AAf?$AAi?$AAl?$AAe?$AA?5?$AAn?$AAa?$AAm@ 000000014010b140     ConEmu.obj
 0002:0000d1d8       ??_C@_1DC@LGMEHNPM@?$AAG?$AAe?$AAt?$AAM?$AAo?$AAd?$AAu?$AAl?$AAe?$AAF?$AAi?$AAl?$AAe?$AAN?$AAa?$AAm?$AAe?$AA?5?$AAf?$AAa?$AAi?$AAl?$AAe?$AAd?$AA?$AA@ 000000014010b1d8     ConEmu.obj
 0002:0000d210       ??_C@_0BF@BLONNOAD@DeleteVConMainThread?$AA@ 000000014010b210     ConEmu.obj
 0002:0000d228       ??_C@_0BC@BBCDMIDF@RequestRunProcess?$AA@ 000000014010b228     ConEmu.obj
 0002:0000d240       ??_C@_1BE@OCKILLDG@?$AAS?$AAH?$AAE?$AAL?$AAL?$AAH?$AAO?$AAO?$AAK?$AA?$AA@ 000000014010b240     ConEmu.obj
 0002:0000d258       ??_C@_09HCOPBFJO@SHELLHOOK?$AA@ 000000014010b258     ConEmu.obj
 0002:0000d268       ??_C@_1CK@JDBNNNIE@?$AAT?$AAa?$AAs?$AAk?$AAb?$AAa?$AAr?$AAB?$AAu?$AAt?$AAt?$AAo?$AAn?$AAC?$AAr?$AAe?$AAa?$AAt?$AAe?$AAd?$AA?$AA@ 000000014010b268     ConEmu.obj
 0002:0000d298       ??_C@_0BF@FHGCLAIL@TaskbarButtonCreated?$AA@ 000000014010b298     ConEmu.obj
 0002:0000d2b0       ??_C@_1BO@NBGJACOC@?$AAT?$AAa?$AAs?$AAk?$AAb?$AAa?$AAr?$AAC?$AAr?$AAe?$AAa?$AAt?$AAe?$AAd?$AA?$AA@ 000000014010b2b0     ConEmu.obj
 0002:0000d2d0       ??_C@_0P@HDDEAF@TaskbarCreated?$AA@ 000000014010b2d0     ConEmu.obj
 0002:0000d2e0       ??_C@_1CI@GNBJKMME@?$AAC?$AAo?$AAn?$AAE?$AAm?$AAu?$AAT?$AAh?$AA?3?$AA?3?$AAM?$AAa?$AAp?$AAC?$AAo?$AAo?$AAr?$AAd?$AAs?$AA?$AA@ 000000014010b2e0     ConEmu.obj
 0002:0000d308       ??_C@_0BK@LICFFBBA@CONEMUMSG_PNLVIEWMAPCOORD?$AA@ 000000014010b308     ConEmu.obj
 0002:0000d328       ??_C@_0O@MDAIKJHF@RequestUpdate?$AA@ 000000014010b328     ConEmu.obj
 0002:0000d338       ??_C@_09PCFCKDPK@CreateCon?$AA@ 000000014010b338     ConEmu.obj
 0002:0000d348       ??_C@_0O@IKFHOIBL@InitVConGhost?$AA@ 000000014010b348     ConEmu.obj
 0002:0000d358       ??_C@_0BE@BIGIAELF@PostTaskbarActivate?$AA@ 000000014010b358     ConEmu.obj
 0002:0000d370       ??_C@_0BB@LPHPBJDF@CreateViewWindow?$AA@ 000000014010b370     ConEmu.obj
 0002:0000d388       ??_C@_0BB@EPFLDMDA@MacroFontSetName?$AA@ 000000014010b388     ConEmu.obj
 0002:0000d3a0       ??_C@_0BB@GIHENIBC@DisplayRConError?$AA@ 000000014010b3a0     ConEmu.obj
 0002:0000d3b8       ??_C@_0N@GLNILOPA@AutoSizeFont?$AA@ 000000014010b3b8     ConEmu.obj
 0002:0000d3c8       ??_C@_0BC@KEJMJLHG@UpdateProcDisplay?$AA@ 000000014010b3c8     ConEmu.obj
 0002:0000d3e0       ??_C@_0P@OLOPIAKG@InitInactiveDC?$AA@ 000000014010b3e0     ConEmu.obj
 0002:0000d3f0       ??_C@_09BKELDFHJ@PostAltF9?$AA@ 000000014010b3f0     ConEmu.obj
 0002:0000d400       ??_C@_1DA@KIOPAADE@?$AAC?$AAo?$AAn?$AAE?$AAm?$AAu?$AAM?$AAa?$AAi?$AAn?$AA?3?$AA?3?$AAF?$AAl?$AAa?$AAs?$AAh?$AAW?$AAi?$AAn?$AAd?$AAo?$AAw?$AA?$AA@ 000000014010b400     ConEmu.obj
 0002:0000d430       ??_C@_0BG@HGCIFHEL@CONEMUMSG_FLASHWINDOW?$AA@ 000000014010b430     ConEmu.obj
 0002:0000d448       ??_C@_0BD@GCPNHEPP@PostOnBufferHeight?$AA@ 000000014010b448     ConEmu.obj
 0002:0000d460       ??_C@_0BD@PNLCLIMH@ConsoleLangChanged?$AA@ 000000014010b460     ConEmu.obj
 0002:0000d478       ??_C@_0BC@CGKICDIH@PostConsoleResize?$AA@ 000000014010b478     ConEmu.obj
 0002:0000d490       ??_C@_1CM@JAICAADO@?$AAC?$AAo?$AAn?$AAE?$AAm?$AAu?$AAM?$AAa?$AAi?$AAn?$AA?3?$AA?3?$AAH?$AAo?$AAo?$AAk?$AAe?$AAd?$AAK?$AAe?$AAy?$AA?$AA@ 000000014010b490     ConEmu.obj
 0002:0000d4c0       ??_C@_0BE@IABMDEFH@CONEMUMSG_HOOKEDKEY?$AA@ 000000014010b4c0     ConEmu.obj
 0002:0000d4d8       ??_C@_1CM@FCMCDBJC@?$AAC?$AAo?$AAn?$AAE?$AAm?$AAu?$AAM?$AAa?$AAi?$AAn?$AA?3?$AA?3?$AAS?$AAw?$AAi?$AAt?$AAc?$AAh?$AAC?$AAo?$AAn?$AA?$AA@ 000000014010b4d8     ConEmu.obj
 0002:0000d508       ??_C@_0BE@MBLKGMDC@CONEMUMSG_SWITCHCON?$AA@ 000000014010b508     ConEmu.obj
 0002:0000d520       ??_C@_0L@NPMJKIEM@TabCommand?$AA@ 000000014010b520     ConEmu.obj
 0002:0000d530       ??_C@_09INHKPHHJ@OldCmdVer?$AA@ 000000014010b530     ConEmu.obj
 0002:0000d540       ??_C@_0L@DHEAGMKH@UpdateTabs?$AA@ 000000014010b540     ConEmu.obj
 0002:0000d550       ??_C@_0BB@FLPECANL@UpdateScrollInfo?$AA@ 000000014010b550     ConEmu.obj
 0002:0000d568       ??_C@_0L@CMMFOFCC@SrvStarted?$AA@ 000000014010b568     ConEmu.obj
 0002:0000d578       ??_C@_0M@CHHEOAK@UpdateTitle?$AA@ 000000014010b578     ConEmu.obj
 0002:0000d588       ??_C@_0O@CGCCOBE@SetWindowMode?$AA@ 000000014010b588     ConEmu.obj
 0002:0000d598       ??_C@_0BB@PMJCEIKN@UpdateCursorInfo?$AA@ 000000014010b598     ConEmu.obj
 0002:0000d5b0       ??_C@_0M@OMOEIHNJ@UpdateSizes?$AA@ 000000014010b5b0     ConEmu.obj
 0002:0000d5c0       ??_C@_09KCMMNOJH@MyDestroy?$AA@ 000000014010b5c0     ConEmu.obj
 0002:0000d5d0       ??_C@_08PJEGPCHC@PostCopy?$AA@ 000000014010b5d0     ConEmu.obj
 0002:0000d5e0       ??_C@_0L@IHCNFIKL@PostCreate?$AA@ 000000014010b5e0     ConEmu.obj
 0002:0000d5f0       ??_C@_1BI@BBDLNCHM@?$AA?2?$AAC?$AAo?$AAn?$AAE?$AAm?$AAu?$AA?4?$AAc?$AAh?$AAm?$AA?$AA@ 000000014010b5f0     ConEmu.obj
 0002:0000d608       ??_C@_1BI@FFAFPMFK@?$AAC?$AAo?$AAn?$AAE?$AAm?$AAu?$AAD?$AAr?$AAi?$AAv?$AAe?$AA?$AA@ 000000014010b608     ConEmu.obj
 0002:0000d620       ??_C@_1BK@EMHBDNKN@?$AAC?$AAo?$AAn?$AAE?$AAm?$AAu?$AAC?$AAo?$AAn?$AAf?$AAi?$AAg?$AA?$AA@ 000000014010b620     ConEmu.obj
 0002:0000d640       ??_C@_1BI@ECBFAEFL@?$AAC?$AAo?$AAn?$AAE?$AAm?$AAu?$AAB?$AAu?$AAi?$AAl?$AAd?$AA?$AA@ 000000014010b640     ConEmu.obj
 0002:0000d658       ??_C@_1BM@MGPNCPCE@?$AAC?$AAo?$AAn?$AAE?$AAm?$AAu?$AAB?$AAa?$AAs?$AAe?$AAD?$AAi?$AAr?$AA?$AA@ 000000014010b658     ConEmu.obj
 0002:0000d678       ??_C@_1BE@ECJBNOIO@?$AAC?$AAo?$AAn?$AAE?$AAm?$AAu?$AAD?$AAi?$AAr?$AA?$AA@ 000000014010b678     ConEmu.obj
 0002:0000d690       ??_C@_17FGJJPDOI@?$AAY?$AAE?$AAS?$AA?$AA@ 000000014010b690     ConEmu.obj
 0002:0000d698       ??_C@_1DE@KHKANOMP@?$AAC?$AAo?$AAn?$AAE?$AAm?$AAu?$AAB?$AAl?$AAo?$AAc?$AAk?$AAC?$AAh?$AAi?$AAl?$AAd?$AAD?$AAe?$AAb?$AAu?$AAg?$AAg?$AAe?$AAr?$AAs?$AA?$AA@ 000000014010b698     ConEmu.obj
 0002:0000d6d0       ??_C@_1CK@ILFJMJAF@?$AA?2?$AA?4?$AA?4?$AA?2?$AA?4?$AA?4?$AA?2?$AAD?$AAa?$AAt?$AAa?$AA?2?$AAs?$AAe?$AAt?$AAt?$AAi?$AAn?$AAg?$AAs?$AA?$AA@ 000000014010b6d0     ConEmu.obj
 0002:0000d700       ??_C@_1EI@DMDBPNND@?$AA?2?$AA?4?$AA?4?$AA?2?$AAD?$AAe?$AAf?$AAa?$AAu?$AAl?$AAt?$AAD?$AAa?$AAt?$AAa?$AA?2?$AAs?$AAe?$AAt?$AAt?$AAi?$AAn?$AAg?$AAs?$AA?2?$AAC?$AAo?$AAn?$AAE?$AAm?$AAu?$AA?4@ 000000014010b700     ConEmu.obj
 0002:0000d750       ??_C@_1FA@FOOAAGC@?$AA?2?$AA?4?$AA?4?$AA?2?$AAA?$AAp?$AAp?$AAI?$AAn?$AAf?$AAo?$AA?2?$AAL?$AAa?$AAu?$AAn?$AAc?$AAh?$AAe?$AAr?$AA?2?$AAC?$AAo?$AAn?$AAE?$AAm?$AAu?$AAP?$AAo?$AAr?$AAt?$AAa@ 000000014010b750     ConEmu.obj
 0002:0000d7a0       ??_C@_1CA@BGLJLI@?$AA?2?$AAl?$AAi?$AAb?$AAe?$AAx?$AAe?$AAc?$AA?2?$AAC?$AAo?$AAn?$AAE?$AAm?$AAu?$AA?$AA@ 000000014010b7a0     ConEmu.obj
 0002:0000d7c0       ??_C@_19NJJBIICL@?$AA?2?$AAb?$AAi?$AAn?$AA?$AA@ 000000014010b7c0     ConEmu.obj
 0002:0000d7d0       ??_C@_1BA@FNPJDKDF@?$AA?2?$AAC?$AAo?$AAn?$AAE?$AAm?$AAu?$AA?$AA@ 000000014010b7d0     ConEmu.obj
 0002:0000d7e0       ??_C@_1BI@OGACPOH@?$AA?2?$AAb?$AAi?$AAn?$AA?2?$AAs?$AAh?$AA?4?$AAe?$AAx?$AAe?$AA?$AA@ 000000014010b7e0     ConEmu.obj
 0002:0000d7f8       ??_C@_1CK@KAHCKHEN@?$AA?2?$AAm?$AAs?$AAy?$AAs?$AA?2?$AA1?$AA?4?$AA0?$AA?2?$AAb?$AAi?$AAn?$AA?2?$AAs?$AAh?$AA?4?$AAe?$AAx?$AAe?$AA?$AA@ 000000014010b7f8     ConEmu.obj
 0002:0000d828       ??_C@_1BA@PHJPMKEE@?$AAC?$AAo?$AAm?$AAS?$AAp?$AAe?$AAc?$AA?$AA@ 000000014010b828     ConEmu.obj
 0002:0000d840       ??_C@_1HK@NOOCIBKE@?$AAS?$AAY?$AAS?$AAT?$AAE?$AAM?$AA?2?$AAC?$AAu?$AAr?$AAr?$AAe?$AAn?$AAt?$AAC?$AAo?$AAn?$AAt?$AAr?$AAo?$AAl?$AAS?$AAe?$AAt?$AA?2?$AAC?$AAo?$AAn?$AAt?$AAr?$AAo?$AAl@ 000000014010b840     ConEmu.obj
 0002:0000d8c0       ??_C@_0O@KCHCFLMC@ImmGetContext?$AA@ 000000014010b8c0     ConEmu.obj
 0002:0000d8d0       ??_C@_0BI@LCGEKKLJ@ImmSetCompositionWindow?$AA@ 000000014010b8d0     ConEmu.obj
 0002:0000d8e8       ??_C@_0BH@FLLDEODD@ImmSetCompositionFontW?$AA@ 000000014010b8e8     ConEmu.obj
 0002:0000d900       ??_C@_1BE@DNFDDCLJ@?$AAI?$AAm?$AAm?$AA3?$AA2?$AA?4?$AAd?$AAl?$AAl?$AA?$AA@ 000000014010b900     ConEmu.obj
 0002:0000d918       ??_C@_0BL@PIGMJEK@GetLayeredWindowAttributes?$AA@ 000000014010b918     ConEmu.obj
 0002:0000d938       ??_C@_1BG@OILDLIOJ@?$AAu?$AAs?$AAe?$AAr?$AA3?$AA2?$AA?4?$AAd?$AAl?$AAl?$AA?$AA@ 000000014010b938     ConEmu.obj
 0002:0000d950       ??_C@_1M@DIMBFHOJ@?$AA?5?$AA?$FL?$AA6?$AA4?$AA?$FN?$AA?$AA@ 000000014010b950     ConEmu.obj
 0002:0000d960       ??_C@_1BA@MHHIDIKJ@?$AAC?$AAo?$AAn?$AAE?$AAm?$AAu?$AA?5?$AA?$AA@ 000000014010b960     ConEmu.obj
 0002:0000d970       ??_C@_1BO@JADOINAE@?$AA?$CF?$AA0?$AA2?$AAu?$AA?$CF?$AA0?$AA2?$AAu?$AA?$CF?$AA0?$AA2?$AAu?$AA?$CF?$AAs?$AA?$AA@ 000000014010b970     ConEmu.obj
 0002:0000d9c0       ??_C@_1EE@GLMKNNCG@?$AAF?$AAa?$AAi?$AAl?$AAe?$AAd?$AA?5?$AAt?$AAo?$AA?5?$AAc?$AAr?$AAe?$AAa?$AAt?$AAe?$AA?5?$AAw?$AAo?$AAr?$AAk?$AAs?$AAp?$AAa?$AAc?$AAe?$AA?5?$AAw?$AAi?$AAn?$AAd?$AAo@ 000000014010b9c0     ConEmu.obj
 0002:0000da08       ??_C@_1CC@OCGNOFJF@?$AAC?$AAo?$AAn?$AAE?$AAm?$AAu?$AA?5?$AAW?$AAo?$AAr?$AAk?$AAs?$AAp?$AAa?$AAc?$AAe?$AA?$AA@ 000000014010ba08     ConEmu.obj
 0002:0000da30       ??_C@_1LE@EGFFKFEC@?$AAJ?$AAu?$AAm?$AAp?$AAN?$AAe?$AAx?$AAt?$AAM?$AAo?$AAn?$AAi?$AAt?$AAo?$AAr?$AA?$CI?$AA?$CF?$AAi?$AA?$CJ?$AA?0?$AA?5?$AAG?$AAe?$AAt?$AAN?$AAe?$AAx?$AAt?$AAM?$AAo?$AAn?$AAi@ 000000014010ba30     ConEmu.obj
 0002:0000daf0       ??_C@_1JM@JEFPLNIB@?$AAJ?$AAu?$AAm?$AAp?$AAN?$AAe?$AAx?$AAt?$AAM?$AAo?$AAn?$AAi?$AAt?$AAo?$AAr?$AA?$CI?$AA?$CF?$AAi?$AA?$CJ?$AA?5?$AAs?$AAk?$AAi?$AAp?$AAp?$AAe?$AAd?$AA?0?$AA?5?$AAG?$AAe?$AAt@ 000000014010baf0     ConEmu.obj
 0002:0000db90       ??_C@_1BK@EFBONNAI@?$AAO?$AAn?$AAS?$AAi?$AAz?$AAi?$AAn?$AAg?$AA?4?$AAe?$AAn?$AAd?$AA?$AA@ 000000014010bb90     ConEmu.obj
 0002:0000dbb0       ??_C@_1FM@LHBFANIL@?$AAC?$AAa?$AAn?$AA?8?$AAt?$AA?5?$AAr?$AAe?$AAg?$AAi?$AAs?$AAt?$AAe?$AAr?$AA?5?$AAh?$AAo?$AAt?$AAk?$AAe?$AAy?$AA?5?$AAf?$AAo?$AAr?$AA?6?$AA?$CF?$AAs?$AA?6?$AA?$CF?$AAs?$AA?$CF@ 000000014010bbb0     ConEmu.obj
 0002:0000dc10       ??_C@_1FE@LAPFPPAO@?$AAH?$AAo?$AAt?$AAk?$AAe?$AAy?$AA?5?$AAa?$AAl?$AAr?$AAe?$AAa?$AAd?$AAy?$AA?5?$AAr?$AAe?$AAg?$AAi?$AAs?$AAt?$AAe?$AAr?$AAe?$AAd?$AA?5?$AAb?$AAy?$AA?5?$AAa?$AAn?$AAo@ 000000014010bc10     ConEmu.obj
 0002:0000dc68       ??_C@_1BG@MIMNJJHG@?$AAD?$AAe?$AAs?$AAc?$AAr?$AAI?$AAD?$AA?$DN?$AA?$CF?$AAi?$AA?$AA@ 000000014010bc68     ConEmu.obj
 0002:0000dc80       ??_C@_1HA@BNCNGAAF@?$AAR?$AAe?$AAg?$AAi?$AAs?$AAt?$AAe?$AAr?$AAH?$AAo?$AAt?$AAK?$AAe?$AAy?$AA?$CI?$AAI?$AAD?$AA?$DN?$AA?$CF?$AAu?$AA?0?$AA?5?$AA?$CF?$AAs?$AA?0?$AA?5?$AAV?$AAK?$AA?$DN?$AA?$CF?$AAu?$AA?0@ 000000014010bc80     ConEmu.obj
 0002:0000dcf0       ??_C@_15PMCGDJNJ@?$AAO?$AAK?$AA?$AA@ 000000014010bcf0     ConEmu.obj
 0002:0000dcf8       ??_C@_1DA@JBANJIHN@?$AAU?$AAn?$AAr?$AAe?$AAg?$AAi?$AAs?$AAt?$AAe?$AAr?$AAH?$AAo?$AAt?$AAK?$AAe?$AAy?$AA?$CI?$AAI?$AAD?$AA?$DN?$AA?$CF?$AAu?$AA?$CJ?$AA?$AA@ 000000014010bcf8     ConEmu.obj
 0002:0000dd50       ??_C@_1FA@JPDGNCIO@?$AAC?$AAo?$AAm?$AAm?$AAa?$AAn?$AAd?$AA?5?$AAg?$AAr?$AAo?$AAu?$AAp?$AA?5?$AA?$CF?$AAs?$AA?5?$AA?$CF?$AAs?$AA?$CB?$AA?6?$AAC?$AAh?$AAo?$AAo?$AAs?$AAe?$AA?5?$AAy?$AAo?$AAu?$AAr@ 000000014010bd50     ConEmu.obj
 0002:0000dda0       ??_C@_1BE@JENIDDOJ@?$AAn?$AAo?$AAt?$AA?5?$AAf?$AAo?$AAu?$AAn?$AAd?$AA?$AA@ 000000014010bda0     ConEmu.obj
 0002:0000ddb8       ??_C@_1BC@CNKDKLF@?$AAi?$AAs?$AA?5?$AAe?$AAm?$AAp?$AAt?$AAy?$AA?$AA@ 000000014010bdb8     ConEmu.obj
 0002:0000ddd0       ??_C@_1BE@HFLOOFEC@?$AA?$DM?$AAS?$AAt?$AAa?$AAr?$AAt?$AAu?$AAp?$AA?$DO?$AA?$AA@ 000000014010bdd0     ConEmu.obj
 0002:0000dde8       ??_C@_1DC@IHCBNGFK@?$AAC?$AAC?$AAo?$AAn?$AAE?$AAm?$AAu?$AAM?$AAa?$AAi?$AAn?$AA?3?$AA?3?$AAO?$AAn?$AAD?$AAe?$AAs?$AAt?$AAr?$AAo?$AAy?$AA?$CI?$AA?$CJ?$AA?$AA@ 000000014010bde8     ConEmu.obj
 0002:0000de20       ??_C@_0FD@BLKMOOLB@Mouse?5was?5moved?0?5MOUSE_R_LOCKED?5@ 000000014010be20     ConEmu.obj
 0002:0000de78       ??_C@_1DE@NGPNBFDO@?$AAD?$AAn?$AAD?$AA?3?$AA?5?$AAD?$AAr?$AAa?$AAg?$AA?9?$AAn?$AA?9?$AAD?$AAr?$AAo?$AAp?$AA?5?$AAs?$AAt?$AAa?$AAr?$AAt?$AAi?$AAn?$AAg?$AA?$AA@ 000000014010be78     ConEmu.obj
 0002:0000deb0       ??_C@_1CI@CGOMHMOG@?$AAD?$AAn?$AAD?$AA?3?$AA?5?$AAn?$AAo?$AAt?$AA?5?$AAf?$AAi?$AAl?$AAe?$AA?5?$AAp?$AAa?$AAn?$AAe?$AAl?$AA?$AA@ 000000014010beb0     ConEmu.obj
 0002:0000ded8       ??_C@_0BK@DBAAOEPN@Right?5drag?5about?5to?5start?$AA@ 000000014010bed8     ConEmu.obj
 0002:0000def8       ??_C@_0BJ@NGLBEKAO@Left?5drag?5about?5to?5start?$AA@ 000000014010bef8     ConEmu.obj
 0002:0000df20       ??_C@_0GG@COKLONBO@Right?5drag?5started?0?5MOUSE_R_LOCK@ 000000014010bf20     ConEmu.obj
 0002:0000df88       ??_C@_1DC@PPFDCCPH@?$AAD?$AAn?$AAD?$AA?3?$AA?5?$AAD?$AAr?$AAa?$AAg?$AA?9?$AAn?$AA?9?$AAD?$AAr?$AAo?$AAp?$AA?5?$AAi?$AAs?$AA?5?$AAn?$AAu?$AAl?$AAl?$AA?$AA@ 000000014010bf88     ConEmu.obj
 0002:0000dfe8       ??_C@_0BA@CGHONHCN@?0?5?$CIstate?$DN?$DN0x?$CFX?$CJ?$AA@ 000000014010bfe8     ConEmu.obj
 0002:0000dff8       ??_C@_0CF@MOIBKEKH@?0?5?$CI?$CI?$CIstate?$DN0x?$CFX?$CJ?$CGMOUSE_R_LOCKED?$CJ@ 000000014010bff8     ConEmu.obj
 0002:0000e020       ??_C@_0BK@LFCLFPAH@?$CI?$CIisRClickSendKey?$DN?$CFi?$CJ?$DN?$DN0?$CJ?$AA@ 000000014010c020     ConEmu.obj
 0002:0000e040       ??_C@_0BJ@BKEINOEP@?$CI?$CIisDisableMouse?$DN?$CFi?$CJ?$DN?$DN0?$CJ?$AA@ 000000014010c040     ConEmu.obj
 0002:0000e060       ??_C@_0DK@CAOPHEKG@RightClicked?0?5but?5mouse?5was?5move@ 000000014010c060     ConEmu.obj
 0002:0000e0a0       ??_C@_0BP@BHONKDHP@RightClicked?0?5but?5FAR?5PID?5is?50?$AA@ 000000014010c0a0     ConEmu.obj
 0002:0000e0c0       ??_C@_0CF@GOBOBAF@RightClicked?0?5but?5pipe?4Init?$CI?$CJ?5fa@ 000000014010c0c0     ConEmu.obj
 0002:0000e0e8       ??_C@_09BBLMOFD@?0?5NoMacro?$AA@ 000000014010c0e8     ConEmu.obj
 0002:0000e0f8       ??_C@_09IGPDALPD@?0?5Macro?3?5?$AA@ 000000014010c0f8     ConEmu.obj
 0002:0000e108       ??_C@_0CJ@KDALIKNA@RightClicked?0?5pipe?4Execute?$CICMD_E@ 000000014010c108     ConEmu.obj
 0002:0000e138       ??_C@_0DB@FBDCJLMI@RightClicked?0?5but?5pipe?4Execute?$CIC@ 000000014010c138     ConEmu.obj
 0002:0000e170       ??_C@_1EG@MJHJGNGB@?$AAE?$AAM?$AAe?$AAn?$AAu?$AA?3?$AA?5?$AAW?$AAa?$AAi?$AAt?$AAi?$AAn?$AAg?$AA?5?$AAf?$AAo?$AAr?$AA?5?$AAr?$AAe?$AAs?$AAu?$AAl?$AAt?$AA?5?$AA?$CI?$AA1?$AA0?$AA?5?$AAs?$AAe@ 000000014010c170     ConEmu.obj
 0002:0000e1b8       ??_C@_1CG@HPBBMHJL@?$AAC?$AAC?$AAo?$AAn?$AAE?$AAm?$AAu?$AAM?$AAa?$AAi?$AAn?$AA?3?$AA?3?$AAE?$AAM?$AAe?$AAn?$AAu?$AA?$AA@ 000000014010c1b8     ConEmu.obj
 0002:0000e1e0       ??_C@_0O@JPNGDDAG@?0?5?$CIDelay?$DN?$DN?$CFi?$CJ?$AA@ 000000014010c1e0     ConEmu.obj
 0002:0000e1f0       ??_C@_0BG@IJPEFOGM@?0?5?$CI?$CIDelay?$DN?$CFi?$CJ?$DO?$DN10000?$CJ?$AA@ 000000014010c1f0     ConEmu.obj
 0002:0000e208       ??_C@_0BD@IGAECDHJ@?0?5?$CI?$CIDelay?$DN?$CFi?$CJ?$DM?$DN?$CFi?$CJ?$AA@ 000000014010c208     ConEmu.obj
 0002:0000e220       ??_C@_0BG@CBCOPCAE@?$CIisRClickSendKey?$DN?$DN?$CFi?$CJ?$AA@ 000000014010c220     ConEmu.obj
 0002:0000e238       ??_C@_0BK@BBPJEPLD@?$CI?$CIisRClickSendKey?$DN?$CFi?$CJ?$CB?$DN1?$CJ?$AA@ 000000014010c238     ConEmu.obj
 0002:0000e258       ??_C@_0CF@JNPJGECC@RightClicked?0?5but?5condition?5fail@ 000000014010c258     ConEmu.obj
 0002:0000e2a8       ??_C@_1BM@DJFGPFML@?$AAA?$AAl?$AAl?$AAV?$AAC?$AAo?$AAn?$AAC?$AAl?$AAo?$AAs?$AAe?$AAd?$AA?$AA@ 000000014010c2a8     ConEmu.obj
 0002:0000e2c8       ??_C@_1DO@MDLFBIE@?$AAC?$AAC?$AAo?$AAn?$AAE?$AAm?$AAu?$AAM?$AAa?$AAi?$AAn?$AA?3?$AA?3?$AAO?$AAn?$AAA?$AAl?$AAl?$AAV?$AAC?$AAo?$AAn?$AAC?$AAl?$AAo?$AAs?$AAe?$AAd?$AA?$CI?$AA?$CJ?$AA?$AA@ 000000014010c2c8     ConEmu.obj
 0002:0000e308       ??_C@_1DA@LCPELGGN@?$AAC?$AAo?$AAn?$AAE?$AAm?$AAu?$AAG?$AAu?$AAi?$AAI?$AAn?$AAf?$AAo?$AAM?$AAa?$AAp?$AAp?$AAi?$AAn?$AAg?$AA?4?$AA?$CF?$AAu?$AA?$AA@ 000000014010c308     ConEmu.obj
 0002:0000e360       ??_C@_1BM@LLABLGAP@?$AA?9?$AAn?$AAe?$AAw?$AA_?$AAc?$AAo?$AAn?$AAs?$AAo?$AAl?$AAe?$AA?3?$AA?$AA@ 000000014010c360     ConEmu.obj
 0002:0000e380       ??_C@_1HK@LPEJBNFO@?$AAJ?$AAu?$AAm?$AAp?$AAN?$AAe?$AAx?$AAt?$AAM?$AAo?$AAn?$AAi?$AAt?$AAo?$AAr?$AA?5?$AAs?$AAk?$AAi?$AAp?$AAp?$AAe?$AAd?$AA?0?$AA?5?$AAn?$AAo?$AAt?$AA?5?$AAa?$AAl?$AAl@ 000000014010c380     ConEmu.obj
 0002:0000e400       ??_C@_1HG@ICLKKDFG@?$AAJ?$AAu?$AAm?$AAp?$AAN?$AAe?$AAx?$AAt?$AAM?$AAo?$AAn?$AAi?$AAt?$AAo?$AAr?$AA?5?$AAs?$AAk?$AAi?$AAp?$AAp?$AAe?$AAd?$AA?0?$AA?5?$AAn?$AAo?$AAt?$AA?5?$AAo?$AAu?$AAr@ 000000014010c400     ConEmu.obj
 0002:0000e480       ??_C@_1FM@MNMKPJIF@?$AAJ?$AAu?$AAm?$AAp?$AAN?$AAe?$AAx?$AAt?$AAM?$AAo?$AAn?$AAi?$AAt?$AAo?$AAr?$AA?5?$AAs?$AAk?$AAi?$AAp?$AAp?$AAe?$AAd?$AA?0?$AA?5?$AAn?$AAo?$AA?5?$AAf?$AAo?$AAr?$AAe@ 000000014010c480     ConEmu.obj
 0002:0000e4e0       ??_C@_1BI@MKCKLHAL@?$AAh?$AAJ?$AAu?$AAm?$AAp?$AA?$CB?$AA?$DN?$AAN?$AAU?$AAL?$AAL?$AA?$AA@ 000000014010c4e0     ConEmu.obj
 0002:0000e4f8       ??_C@_0CL@GLDMHLPF@OnConsoleResize?5ignored?0?5because@ 000000014010c4f8     ConEmu.obj
 0002:0000e530       ??_C@_0GL@KNIKHEMH@OnConsoleResize?3?5mouse?4state?$DN0x?$CF@ 000000014010c530     ConEmu.obj
 0002:0000e5a0       ??_C@_0CB@BFEDIDDB@OnConsoleResize?$CIabPosted?$DN?$DNfalse?$CJ@ 000000014010c5a0     ConEmu.obj
 0002:0000e5c8       ??_C@_1DA@HOLMCJKP@?$AAW?$AAM?$AA_?$AAW?$AAI?$AAN?$AAD?$AAO?$AAW?$AAP?$AAO?$AAS?$AAC?$AAH?$AAA?$AAN?$AAG?$AAE?$AAD?$AA?4?$AAe?$AAn?$AAd?$AA?$AA@ 000000014010c5c8     ConEmu.obj
 0002:0000e600       ??_C@_1IE@CDOMLAPE@?$AAW?$AAM?$AA_?$AAW?$AAI?$AAN?$AAD?$AAO?$AAW?$AAP?$AAO?$AAS?$AAC?$AAH?$AAA?$AAN?$AAG?$AAE?$AAD?$AA?5?$AA?$CI?$AA?$HL?$AA?$CF?$AAi?$AA?9?$AA?$CF?$AAi?$AA?$HN?$AAx?$AA?$HL?$AA?$CF?$AAi@ 000000014010c600     ConEmu.obj
 0002:0000e690       ??_C@_1FG@EOMDDJH@?$AA?5?$AAx?$AA?$CF?$AA0?$AA8?$AAX?$AA?5?$AAx?$AA?$CF?$AA0?$AA8?$AAX?$AA?5?$AA?$CI?$AAF?$AA?3?$AAx?$AA?$CF?$AA0?$AA8?$AAX?$AA?5?$AAX?$AA?3?$AA?$CF?$AAi?$AA?5?$AAY?$AA?3?$AA?$CF?$AAi?$AA?5@ 000000014010c690     ConEmu.obj
 0002:0000e6e8       ??_C@_1BE@LNFBOKIE@?$AA?5?$AA?$CI?$AAi?$AAc?$AAo?$AAn?$AAi?$AAc?$AA?$CJ?$AA?$AA@ 000000014010c6e8     ConEmu.obj
 0002:0000e700       ??_C@_1BE@PJNGGPDB@?$AA?5?$AA?$CI?$AAz?$AAo?$AAo?$AAm?$AAe?$AAd?$AA?$CJ?$AA?$AA@ 000000014010c700     ConEmu.obj
 0002:0000e718       ??_C@_1CI@BAMPNOOH@?$AAO?$AAn?$AAW?$AAi?$AAn?$AAd?$AAo?$AAw?$AAP?$AAo?$AAs?$AAC?$AAh?$AAa?$AAn?$AAg?$AAe?$AAd?$AA?3?$AA?$AA@ 000000014010c718     ConEmu.obj
 0002:0000e770       ??_C@_0EG@EHCCJDGG@Mouse?5event?5skipped?5due?5to?5?$CImp_M@ 000000014010c770     ConEmu.obj
 0002:0000e7b8       ??_C@_0BL@GMMPHLDO@SetWindowRgn?$CI0x?$CF08X?0?5NULL?$CJ?$AA@ 000000014010c7b8     ConEmu.obj
 0002:0000e7d8       ??_C@_0CL@BDBLJOGO@SetWindowRgn?$CI0x?$CF08X?0?5?$DM?$CFu?$DO?5?$HL?$CFi?0?$CFi@ 000000014010c7d8     ConEmu.obj
 0002:0000e808       ??_C@_0BI@BLIAECLN@RegisterShellHookWindow?$AA@ 000000014010c808     ConEmu.obj
 0002:0000e820       ??_C@_0EL@EIDIMKFP@OnCreate?3?5hWnd?$DNx?$CF08X?0?5x?$DN?$CFi?0?5y?$DN?$CFi@ 000000014010c820     ConEmu.obj
 0002:0000e870       ??_C@_1FI@BGCOMNOF@?$AAC?$AAh?$AAa?$AAn?$AAg?$AAi?$AAn?$AAg?$AA?5?$AAm?$AAa?$AAi?$AAn?$AA?5?$AAw?$AAi?$AAn?$AAd?$AAo?$AAw?$AA?5?$AA0?$AAx?$AA?$CF?$AA0?$AA8?$AAX?$AA?5?$AAs?$AAt?$AAy?$AAl@ 000000014010c870     ConEmu.obj
 0002:0000e8d0       ??_C@_1GG@JKOOFIEI@?$AAO?$AAn?$AAH?$AAi?$AAd?$AAe?$AAC?$AAa?$AAp?$AAt?$AAi?$AAo?$AAn?$AA?5?$AAs?$AAk?$AAi?$AAp?$AAp?$AAe?$AAd?$AA?5?$AAd?$AAu?$AAe?$AA?5?$AAt?$AAo?$AA?5?$AAm?$AA_?$AAJ@ 000000014010c8d0     ConEmu.obj
 0002:0000e960       ??_C@_1CM@NGDFMGEM@?$AAS?$AAe?$AAt?$AAW?$AAi?$AAn?$AAd?$AAo?$AAw?$AAM?$AAo?$AAd?$AAe?$AA?$CI?$AA?$CF?$AAu?$AA?$CJ?$AA?5?$AAe?$AAn?$AAd?$AA?$AA@ 000000014010c960     ConEmu.obj
 0002:0000e990       ??_C@_0BD@POHANOKF@SetWindowMode?5done?$AA@ 000000014010c990     ConEmu.obj
 0002:0000e9a8       ??_C@_0BA@PHBLCDOD@OnSize?$CIfalse?$CJ?41?$AA@ 000000014010c9a8     ConEmu.obj
 0002:0000e9b8       ??_C@_0BK@CGNDEIOL@ShowWindow?$CISW_SHOWNORMAL?$CJ?$AA@ 000000014010c9b8     ConEmu.obj
 0002:0000e9d8       ??_C@_0BK@BHILOOOB@WM_SYSCOMMAND?$CISC_RESTORE?$CJ?$AA@ 000000014010c9d8     ConEmu.obj
 0002:0000e9f8       ??_C@_1DI@IAMAEIGC@?$AAF?$AAa?$AAi?$AAl?$AAe?$AAd?$AA?5?$AAt?$AAo?$AA?5?$AAs?$AAw?$AAi?$AAt?$AAc?$AAh?$AA?5?$AAW?$AAi?$AAn?$AAd?$AAo?$AAw?$AAM?$AAo?$AAd?$AAe?$AA?$AA@ 000000014010c9f8     ConEmu.obj
 0002:0000ea30       ??_C@_0BA@MFCNEBGB@OnSize?$CIfalse?$CJ?43?$AA@ 000000014010ca30     ConEmu.obj
 0002:0000ea40       ??_C@_0BA@NMDGHACA@OnSize?$CIfalse?$CJ?42?$AA@ 000000014010ca40     ConEmu.obj
 0002:0000ea50       ??_C@_0BA@JDHHOGOH@OnSize?$CIfalse?$CJ?45?$AA@ 000000014010ca50     ConEmu.obj
 0002:0000ea60       ??_C@_0CF@LEKOBJKK@SetWindowPos?$CIX?$DN?$CFi?0?5Y?$DN?$CFi?0?5W?$DN?$CFi?0?5H@ 000000014010ca60     ConEmu.obj
 0002:0000ea88       ??_C@_0BH@JCFGKEDF@SetWindowMode?$CIINVALID?$CJ?$AA@ 000000014010ca88     ConEmu.obj
 0002:0000eaa0       ??_C@_0BM@HGCNBMGN@SetWindowMode?$CIwmFullScreen?$CJ?$AA@ 000000014010caa0     ConEmu.obj
 0002:0000eac0       ??_C@_0BL@NAAKNLLO@SetWindowMode?$CIwmMaximized?$CJ?$AA@ 000000014010cac0     ConEmu.obj
 0002:0000eae0       ??_C@_0BI@EHBJGOA@SetWindowMode?$CIwmNormal?$CJ?$AA@ 000000014010cae0     ConEmu.obj
 0002:0000eaf8       ??_C@_1DA@HPJEHDBJ@?$AAS?$AAe?$AAt?$AAW?$AAi?$AAn?$AAd?$AAo?$AAw?$AAM?$AAo?$AAd?$AAe?$AA?$CI?$AA?$CF?$AAu?$AA?$CJ?$AA?5?$AAb?$AAe?$AAg?$AAi?$AAn?$AA?$AA@ 000000014010caf8     ConEmu.obj
 0002:0000eb30       ??_C@_1EG@KIMBBPLI@?$AA?5?$AA?9?$AA?9?$AA?$DO?$AA?5?$AA?$CI?$AAF?$AA?3?$AAx?$AA?$CF?$AA0?$AA8?$AAX?$AA?5?$AAX?$AA?3?$AA?$CF?$AAi?$AA?5?$AAY?$AA?3?$AA?$CF?$AAi?$AA?5?$AAW?$AA?3?$AA?$CF?$AAi?$AA?5?$AAH?$AA?3?$AA?$CF@ 000000014010cb30     ConEmu.obj
 0002:0000eb78       ??_C@_1CK@NECOHFJN@?$AAO?$AAn?$AAW?$AAi?$AAn?$AAd?$AAo?$AAw?$AAP?$AAo?$AAs?$AAC?$AAh?$AAa?$AAn?$AAg?$AAi?$AAn?$AAg?$AA?3?$AA?$AA@ 000000014010cb78     ConEmu.obj
 0002:0000ebd0       ??_C@_1DG@LDEHHHIL@?$AAD?$AAo?$AAM?$AAi?$AAn?$AAi?$AAm?$AAi?$AAz?$AAe?$AAR?$AAe?$AAs?$AAt?$AAo?$AAr?$AAe?$AA?5?$AAf?$AAi?$AAn?$AAi?$AAs?$AAh?$AAe?$AAd?$AA?$AA@ 000000014010cbd0     ConEmu.obj
 0002:0000ec08       ??_C@_1DO@DKKFNLPB@?$AAD?$AAo?$AAM?$AAi?$AAn?$AAi?$AAm?$AAi?$AAz?$AAe?$AAR?$AAe?$AAs?$AAt?$AAo?$AAr?$AAe?$AA?$CI?$AAU?$AAn?$AAk?$AAn?$AAo?$AAw?$AAn?$AA?5?$AAc?$AAm?$AAd?$AA?$CJ?$AA?$AA@ 000000014010cc08     ConEmu.obj
 0002:0000ec50       ??_C@_1EK@HMANDIOO@?$AAD?$AAo?$AAM?$AAi?$AAn?$AAi?$AAm?$AAi?$AAz?$AAe?$AAR?$AAe?$AAs?$AAt?$AAo?$AAr?$AAe?$AA?$CI?$AAs?$AAi?$AAh?$AA_?$AAQ?$AAu?$AAa?$AAk?$AAe?$AAS?$AAh?$AAo?$AAw?$AAH@ 000000014010cc50     ConEmu.obj
 0002:0000eca0       ??_C@_1EA@FPLJGANC@?$AAD?$AAo?$AAM?$AAi?$AAn?$AAi?$AAm?$AAi?$AAz?$AAe?$AAR?$AAe?$AAs?$AAt?$AAo?$AAr?$AAe?$AA?$CI?$AAs?$AAi?$AAh?$AA_?$AAA?$AAu?$AAt?$AAo?$AAH?$AAi?$AAd?$AAe?$AA?$CJ?$AA?$AA@ 000000014010cca0     ConEmu.obj
 0002:0000ece0       ??_C@_1EA@LNCADINO@?$AAD?$AAo?$AAM?$AAi?$AAn?$AAi?$AAm?$AAi?$AAz?$AAe?$AAR?$AAe?$AAs?$AAt?$AAo?$AAr?$AAe?$AA?$CI?$AAs?$AAi?$AAh?$AA_?$AAM?$AAi?$AAn?$AAi?$AAm?$AAi?$AAz?$AAe?$AA?$CJ?$AA?$AA@ 000000014010cce0     ConEmu.obj
 0002:0000ed20       ??_C@_1DO@FAKAMADP@?$AAD?$AAo?$AAM?$AAi?$AAn?$AAi?$AAm?$AAi?$AAz?$AAe?$AAR?$AAe?$AAs?$AAt?$AAo?$AAr?$AAe?$AA?$CI?$AAs?$AAi?$AAh?$AA_?$AAH?$AAi?$AAd?$AAe?$AAT?$AAS?$AAA?$AA?$CJ?$AA?$AA@ 000000014010cd20     ConEmu.obj
 0002:0000ed60       ??_C@_1EK@FLIEFLNL@?$AAD?$AAo?$AAM?$AAi?$AAn?$AAi?$AAm?$AAi?$AAz?$AAe?$AAR?$AAe?$AAs?$AAt?$AAo?$AAr?$AAe?$AA?$CI?$AAs?$AAi?$AAh?$AA_?$AAS?$AAe?$AAt?$AAF?$AAo?$AAr?$AAe?$AAg?$AAr?$AAo@ 000000014010cd60     ConEmu.obj
 0002:0000edb0       ??_C@_1DI@LFBFHKDF@?$AAD?$AAo?$AAM?$AAi?$AAn?$AAi?$AAm?$AAi?$AAz?$AAe?$AAR?$AAe?$AAs?$AAt?$AAo?$AAr?$AAe?$AA?$CI?$AAs?$AAi?$AAh?$AA_?$AAS?$AAh?$AAo?$AAw?$AA?$CJ?$AA?$AA@ 000000014010cdb0     ConEmu.obj
 0002:0000edf0       ??_C@_1EG@KOPCHFPO@?$AAD?$AAo?$AAM?$AAi?$AAn?$AAi?$AAm?$AAi?$AAz?$AAe?$AAR?$AAe?$AAs?$AAt?$AAo?$AAr?$AAe?$AA?$CI?$AAs?$AAi?$AAh?$AA_?$AAS?$AAh?$AAo?$AAw?$AAH?$AAi?$AAd?$AAe?$AAT?$AAS@ 000000014010cdf0     ConEmu.obj
 0002:0000ee40       ??_C@_1EI@NEMKGHIA@?$AAD?$AAo?$AAM?$AAi?$AAn?$AAi?$AAm?$AAi?$AAz?$AAe?$AAR?$AAe?$AAs?$AAt?$AAo?$AAr?$AAe?$AA?$CI?$AAs?$AAi?$AAh?$AA_?$AAS?$AAh?$AAo?$AAw?$AAM?$AAi?$AAn?$AAi?$AAm?$AAi@ 000000014010ce40     ConEmu.obj
 0002:0000ee88       ??_C@_1DI@EHMKCOFA@?$AAD?$AAo?$AAM?$AAi?$AAn?$AAi?$AAm?$AAi?$AAz?$AAe?$AAR?$AAe?$AAs?$AAt?$AAo?$AAr?$AAe?$AA?$CI?$AAs?$AAi?$AAh?$AA_?$AAN?$AAo?$AAn?$AAe?$AA?$CJ?$AA?$AA@ 000000014010ce88     ConEmu.obj
 0002:0000eec0       ??_C@_1FG@FHFEOAJI@?$AAD?$AAo?$AAM?$AAi?$AAn?$AAi?$AAm?$AAi?$AAz?$AAe?$AAR?$AAe?$AAs?$AAt?$AAo?$AAr?$AAe?$AA?5?$AAs?$AAk?$AAi?$AAp?$AAp?$AAe?$AAd?$AA?0?$AA?5?$AAd?$AAe?$AAl?$AAa?$AAy@ 000000014010cec0     ConEmu.obj
 0002:0000ef20       ??_C@_1HC@JPIFDKPB@?$AAD?$AAo?$AAM?$AAi?$AAn?$AAi?$AAm?$AAi?$AAz?$AAe?$AAR?$AAe?$AAs?$AAt?$AAo?$AAr?$AAe?$AA?$CI?$AA?$CF?$AAi?$AA?$CJ?$AA?5?$AAF?$AAo?$AAr?$AAe?$AA?$DN?$AAx?$AA?$CF?$AA0?$AA8?$AAX@ 000000014010cf20     ConEmu.obj
 0002:0000efc0       ??_C@_1EI@IFKKOCIB@?$AAC?$AAa?$AAn?$AA?8?$AAt?$AA?5?$AAs?$AAe?$AAt?$AA?5?$AAF?$AAu?$AAl?$AAl?$AAS?$AAc?$AAr?$AAe?$AAe?$AAn?$AA?5?$AAi?$AAn?$AA?5?$AAD?$AAe?$AAs?$AAk?$AAt?$AAo?$AAp?$AAM@ 000000014010cfc0     ConEmu.obj
 0002:0000f010       ??_C@_1EI@NEBLEBLO@?$AAS?$AAe?$AAt?$AAT?$AAi?$AAl?$AAe?$AAM?$AAo?$AAd?$AAe?$AA?5?$AAS?$AAK?$AAI?$AAP?$AAP?$AAE?$AAD?$AA?5?$AAd?$AAu?$AAe?$AA?5?$AAt?$AAo?$AA?5?$AAi?$AAs?$AAI?$AAc?$AAo@ 000000014010d010     ConEmu.obj
 0002:0000f060       ??_C@_1FA@NEOPHDGJ@?$AAS?$AAe?$AAt?$AAT?$AAi?$AAl?$AAe?$AAM?$AAo?$AAd?$AAe?$AA?5?$AAS?$AAK?$AAI?$AAP?$AAP?$AAE?$AAD?$AA?5?$AAd?$AAu?$AAe?$AA?5?$AAt?$AAo?$AA?5?$AAQ?$AAu?$AAa?$AAk?$AAe@ 000000014010d060     ConEmu.obj
 0002:0000f0b0       ??_C@_1JI@DLEHLDCH@?$AAr?$AAe?$AAs?$AAu?$AAl?$AAt?$AA?5?$AAo?$AAf?$AA?5?$AAS?$AAe?$AAt?$AAT?$AAi?$AAl?$AAe?$AAM?$AAo?$AAd?$AAe?$AA?$CI?$AA?$CF?$AAs?$AA?$CJ?$AA?5?$AA?9?$AA?$DO?$AA?5?$AA?$CF?$AAu?$AA?5@ 000000014010d0b0     ConEmu.obj
 0002:0000f150       ??_C@_1FA@BDCKNIMK@?$AAS?$AAe?$AAt?$AAT?$AAi?$AAl?$AAe?$AAM?$AAo?$AAd?$AAe?$AA?5?$AAS?$AAK?$AAI?$AAP?$AAP?$AAE?$AAD?$AA?5?$AAd?$AAu?$AAe?$AA?5?$AAt?$AAo?$AA?5?$AAi?$AAn?$AAv?$AAa?$AAl@ 000000014010d150     ConEmu.obj
 0002:0000f1a0       ??_C@_1CA@DPHKHKIF@?$AAS?$AAe?$AAt?$AAT?$AAi?$AAl?$AAe?$AAM?$AAo?$AAd?$AAe?$AA?$CI?$AA?$CF?$AAs?$AA?$CJ?$AA?$AA@ 000000014010d1a0     ConEmu.obj
 0002:0000f210       ??_C@_1MO@CICONHNK@?$AAF?$AAo?$AAc?$AAu?$AAs?$AA?5?$AAe?$AAv?$AAe?$AAn?$AAt?$AA?5?$AAs?$AAk?$AAi?$AAp?$AAp?$AAe?$AAd?$AA?0?$AA?5?$AAl?$AAb?$AAS?$AAe?$AAt?$AAF?$AAo?$AAc?$AAu?$AAs?$AA?$DN@ 000000014010d210     ConEmu.obj
 0002:0000f2e0       ??_C@_1JE@NPEGAHBN@?$AAM?$AAi?$AAn?$AAi?$AAm?$AAi?$AAz?$AAe?$AAO?$AAn?$AAF?$AAo?$AAc?$AAu?$AAs?$AAL?$AAo?$AAs?$AAe?$AA?3?$AA?5?$AAC?$AAl?$AAa?$AAs?$AAs?$AA?$DN?$AA?$CF?$AAs?$AA?0?$AA?5?$AAI@ 000000014010d2e0     ConEmu.obj
 0002:0000f378       ??_C@_1BM@OHAPGOLP@?$AAT?$AAr?$AAa?$AAy?$AAN?$AAo?$AAt?$AAi?$AAf?$AAy?$AAW?$AAn?$AAd?$AA?$AA@ 000000014010d378     ConEmu.obj
 0002:0000f3a0       ??_C@_1EK@CIABCJBA@?$AAm?$AAb?$AA_?$AAL?$AAa?$AAs?$AAt?$AAC?$AAo?$AAn?$AAE?$AAm?$AAu?$AAF?$AAo?$AAc?$AAu?$AAs?$AAS?$AAt?$AAa?$AAt?$AAe?$AA?5?$AAs?$AAe?$AAt?$AA?5?$AAt?$AAo?$AA?5?$AAF@ 000000014010d3a0     ConEmu.obj
 0002:0000f3f0       ??_C@_1EI@CKKGLDMP@?$AAm?$AAb?$AA_?$AAL?$AAa?$AAs?$AAt?$AAC?$AAo?$AAn?$AAE?$AAm?$AAu?$AAF?$AAo?$AAc?$AAu?$AAs?$AAS?$AAt?$AAa?$AAt?$AAe?$AA?5?$AAs?$AAe?$AAt?$AA?5?$AAt?$AAo?$AA?5?$AAT@ 000000014010d3f0     ConEmu.obj
 0002:0000f438       ??_C@_1DK@LJODAHJK@?$AAF?$AAo?$AAc?$AAu?$AAs?$AA?5?$AAw?$AAa?$AAs?$AA?5?$AAr?$AAe?$AAt?$AAu?$AAr?$AAn?$AAe?$AAd?$AA?5?$AAt?$AAo?$AA?5?$AAC?$AAo?$AAn?$AAE?$AAm?$AAu?$AA?$AA@ 000000014010d438     ConEmu.obj
 0002:0000f480       ??_C@_1EI@POKKMCAJ@?$AAW?$AAM?$AA_?$AAK?$AAI?$AAL?$AAL?$AAF?$AAO?$AAC?$AAU?$AAS?$AA?$CI?$AAT?$AAo?$AA?$DN?$AA0?$AAx?$AA?$CF?$AA0?$AA8?$AAX?$AA?$CJ?$AA?5?$AAO?$AAu?$AAr?$AAF?$AAo?$AAc?$AAu?$AAs@ 000000014010d480     ConEmu.obj
 0002:0000f4c8       ??_C@_1BK@HAJLOIDD@?$AAW?$AAM?$AA_?$AAK?$AAI?$AAL?$AAL?$AAF?$AAO?$AAC?$AAU?$AAS?$AA?$AA@ 000000014010d4c8     ConEmu.obj
 0002:0000f4e8       ??_C@_1BO@JJCCIHN@?$AAW?$AAM?$AA_?$AAA?$AAC?$AAT?$AAI?$AAV?$AAA?$AAT?$AAE?$AAA?$AAP?$AAP?$AA?$AA@ 000000014010d4e8     ConEmu.obj
 0002:0000f510       ??_C@_1EI@KMAGLCAG@?$AAW?$AAM?$AA_?$AAA?$AAC?$AAT?$AAI?$AAV?$AAA?$AAT?$AAE?$AAA?$AAP?$AAP?$AA?4?$AAA?$AAc?$AAt?$AAi?$AAv?$AAa?$AAt?$AAe?$AA?$CI?$AAF?$AAr?$AAo?$AAm?$AAT?$AAI?$AAD?$AA?$DN@ 000000014010d510     ConEmu.obj
 0002:0000f560       ??_C@_1GA@FCJHNIOA@?$AAW?$AAM?$AA_?$AAA?$AAC?$AAT?$AAI?$AAV?$AAA?$AAT?$AAE?$AAA?$AAP?$AAP?$AA?4?$AAD?$AAe?$AAa?$AAc?$AAt?$AAi?$AAv?$AAa?$AAt?$AAe?$AA?$CI?$AAT?$AAo?$AAT?$AAI?$AAD?$AA?$DN@ 000000014010d560     ConEmu.obj
 0002:0000f5c0       ??_C@_1BI@OFIJFMJ@?$AAW?$AAM?$AA_?$AAA?$AAC?$AAT?$AAI?$AAV?$AAA?$AAT?$AAE?$AA?$AA@ 000000014010d5c0     ConEmu.obj
 0002:0000f5e0       ??_C@_1FO@HGBBPIHF@?$AAW?$AAM?$AA_?$AAA?$AAC?$AAT?$AAI?$AAV?$AAA?$AAT?$AAE?$AA?4?$AAW?$AAA?$AA_?$AAI?$AAN?$AAA?$AAC?$AAT?$AAI?$AAV?$AAE?$AA?$CI?$AAT?$AAo?$AA?$DN?$AA0?$AAx?$AA?$CF?$AA0?$AA8@ 000000014010d5e0     ConEmu.obj
 0002:0000f640       ??_C@_1DC@HLHHLGPL@?$AAW?$AAM?$AA_?$AAA?$AAC?$AAT?$AAI?$AAV?$AAA?$AAT?$AAE?$AA?$CI?$AAF?$AAr?$AAo?$AAm?$AA?$DN?$AA0?$AAx?$AA?$CF?$AA0?$AA8?$AAX?$AA?$CJ?$AA?$AA@ 000000014010d640     ConEmu.obj
 0002:0000f678       ??_C@_1BI@CDJKCCHO@?$AAW?$AAM?$AA_?$AAS?$AAE?$AAT?$AAF?$AAO?$AAC?$AAU?$AAS?$AA?$AA@ 000000014010d678     ConEmu.obj
 0002:0000f690       ??_C@_1DC@HEJIINJD@?$AAW?$AAM?$AA_?$AAS?$AAE?$AAT?$AAF?$AAO?$AAC?$AAU?$AAS?$AA?$CI?$AAF?$AAr?$AAo?$AAm?$AA?$DN?$AA0?$AAx?$AA?$CF?$AA0?$AA8?$AAX?$AA?$CJ?$AA?$AA@ 000000014010d690     ConEmu.obj
 0002:0000f6c8       ??_C@_1BA@LEPJIIOK@?$AAU?$AAn?$AAk?$AAn?$AAo?$AAw?$AAn?$AA?$AA@ 000000014010d6c8     ConEmu.obj
 0002:0000f700       ??_C@_1GI@HPLHIOHJ@?$AAO?$AAn?$AAT?$AAi?$AAm?$AAe?$AAr?$AA_?$AAQ?$AAu?$AAa?$AAk?$AAe?$AAF?$AAo?$AAc?$AAu?$AAs?$AA?5?$AAs?$AAk?$AAi?$AAp?$AAp?$AAe?$AAd?$AA?0?$AA?5?$AAa?$AAl?$AAr?$AAe@ 000000014010d700     ConEmu.obj
 0002:0000f770       ??_C@_1EA@PDBGHMPL@?$AAO?$AAn?$AAT?$AAi?$AAm?$AAe?$AAr?$AA_?$AAQ?$AAu?$AAa?$AAk?$AAe?$AAF?$AAo?$AAc?$AAu?$AAs?$AA?0?$AA?5?$AAd?$AAe?$AAl?$AAa?$AAy?$AA?5?$AA?$CF?$AAu?$AA?5?$AAm?$AAs?$AA?$AA@ 000000014010d770     ConEmu.obj
 0002:0000f7d8       ??_C@_1CE@IBIMBDAN@?$AAP?$AAo?$AAs?$AAt?$AAC?$AAr?$AAe?$AAa?$AAt?$AAe?$AA?4?$AA?$CF?$AAi?$AA?4?$AAe?$AAn?$AAd?$AA?$AA@ 000000014010d7d8     ConEmu.obj
 0002:0000f800       ??_C@_1JK@EPCFOEME@?$AAS?$AAe?$AAt?$AA?5?$AAu?$AAp?$AA?5?$AA?$HL?$AAi?$AAs?$AAM?$AAu?$AAl?$AAt?$AAi?$AAL?$AAe?$AAa?$AAv?$AAe?$AAO?$AAn?$AAC?$AAl?$AAo?$AAs?$AAe?$AA?$DN?$AA1?$AA?5?$AA?$CG?$AA?$CG@ 000000014010d800     ConEmu.obj
 0002:0000f8a0       ??_C@_17DMCLHGNH@?$AA?$HM?$AA?$HM?$AA?$HM?$AA?$AA@ 000000014010d8a0     ConEmu.obj
 0002:0000f8b0       ??_C@_1GM@DLKJBGDO@?$AAP?$AAo?$AAs?$AAt?$AAC?$AAr?$AAe?$AAa?$AAt?$AAe?$AA?4?$AA?$CF?$AAu?$AA?4?$AAb?$AAe?$AAg?$AAi?$AAn?$AA?5?$AA?$CI?$AAL?$AAe?$AAa?$AAv?$AAe?$AAO?$AAn?$AAC?$AAl?$AAo?$AAs@ 000000014010d8b0     ConEmu.obj
 0002:0000f970       ??_C@_1BM@KPAEBCMB@?$AAD?$AAe?$AAs?$AAt?$AAr?$AAo?$AAy?$AAW?$AAi?$AAn?$AAd?$AAo?$AAw?$AA?$AA@ 000000014010d970     ConEmu.obj
 0002:0000f990       ??_C@_1CM@PCPIIIJP@?$AA?5?$AA?9?$AA?$DO?$AA?5?$AA?$CI?$AA?$HL?$AA?$CF?$AAi?$AA?9?$AA?$CF?$AAi?$AA?$HN?$AA?9?$AA?$HL?$AA?$CF?$AAi?$AA?9?$AA?$CF?$AAi?$AA?$HN?$AA?$CJ?$AA?$AA@ 000000014010d990     ConEmu.obj
 0002:0000f9c0       ??_C@_1DI@FODALDFN@?$AAW?$AAM?$AA_?$AAM?$AAO?$AAV?$AAI?$AAN?$AAG?$AA?5?$AA?$CI?$AA?$HL?$AA?$CF?$AAi?$AA?9?$AA?$CF?$AAi?$AA?$HN?$AA?9?$AA?$HL?$AA?$CF?$AAi?$AA?9?$AA?$CF?$AAi?$AA?$HN?$AA?$CJ?$AA?$AA@ 000000014010d9c0     ConEmu.obj
 0002:0000f9f8       ??_C@_1CO@HKAHIPFL@?$AA?5?$AA?9?$AA?$DO?$AA?5?$AA?$CI?$AA?$HL?$AA?$CF?$AAi?$AA?9?$AA?$CF?$AAi?$AA?$HN?$AA?9?$AA?$HL?$AA?$CF?$AAi?$AA?9?$AA?$CF?$AAi?$AA?$HN?$AA?$CJ?$AA?6?$AA?$AA@ 000000014010d9f8     ConEmu.obj
 0002:0000fa30       ??_C@_1EK@IECEJCPL@?$AAW?$AAM?$AA_?$AAS?$AAI?$AAZ?$AAI?$AAN?$AAG?$AA?5?$AA?$CI?$AAE?$AAd?$AAg?$AAe?$AA?$CF?$AAi?$AA?0?$AA?5?$AA?$HL?$AA?$CF?$AAi?$AA?9?$AA?$CF?$AAi?$AA?$HN?$AA?9?$AA?$HL?$AA?$CF?$AAi?$AA?9?$AA?$CF@ 000000014010da30     ConEmu.obj
 0002:0000fa80       ??_C@_1CI@HIBPEMNJ@?$AAA?$AAc?$AAt?$AAi?$AAv?$AAa?$AAt?$AAi?$AAo?$AAn?$AA?5?$AAb?$AAy?$AA?5?$AAm?$AAo?$AAu?$AAs?$AAe?$AA?$AA@ 000000014010da80     ConEmu.obj
 0002:0000faa8       ??_C@_1DC@KKBLOKOG@?$AAA?$AAp?$AAp?$AAl?$AAi?$AAc?$AAa?$AAt?$AAi?$AAo?$AAn?$AA?5?$AAd?$AAe?$AAa?$AAc?$AAt?$AAi?$AAv?$AAa?$AAt?$AAi?$AAn?$AAg?$AA?$AA@ 000000014010daa8     ConEmu.obj
 0002:0000fae0       ??_C@_1CO@MCFIELP@?$AAA?$AAp?$AAp?$AAl?$AAi?$AAc?$AAa?$AAt?$AAi?$AAo?$AAn?$AA?5?$AAa?$AAc?$AAt?$AAi?$AAv?$AAa?$AAt?$AAi?$AAn?$AAg?$AA?$AA@ 000000014010dae0     ConEmu.obj
 0002:0000fb10       ??_C@_1CO@GJFNJHJM@?$AAW?$AAi?$AAn?$AAd?$AAo?$AAw?$AA?5?$AAw?$AAa?$AAs?$AA?5?$AAd?$AAe?$AAa?$AAc?$AAt?$AAi?$AAv?$AAa?$AAt?$AAe?$AAd?$AA?$AA@ 000000014010db10     ConEmu.obj
 0002:0000fb40       ??_C@_1EI@KOMLOEKH@?$AAW?$AAi?$AAn?$AAd?$AAo?$AAw?$AA?5?$AAw?$AAa?$AAs?$AA?5?$AAa?$AAc?$AAt?$AAi?$AAv?$AAa?$AAt?$AAe?$AAd?$AA?5?$AAb?$AAy?$AA?5?$AAm?$AAo?$AAu?$AAs?$AAe?$AA?5?$AAc?$AAl@ 000000014010db40     ConEmu.obj
 0002:0000fb88       ??_C@_1CE@BIDBOELJ@?$AAW?$AAM?$AA_?$AAS?$AAH?$AAO?$AAW?$AAW?$AAI?$AAN?$AAD?$AAO?$AAW?$AA?4?$AAe?$AAn?$AAd?$AA?$AA@ 000000014010db88     ConEmu.obj
 0002:0000fbb0       ??_C@_1EI@CLPACCNC@?$AAC?$AAo?$AAn?$AAE?$AAm?$AAu?$AA?5?$AAw?$AAa?$AAs?$AA?5?$AAh?$AAi?$AAd?$AAd?$AAe?$AAn?$AA?5?$AAf?$AAr?$AAo?$AAm?$AA?5?$AAs?$AAo?$AAm?$AAe?$AA?5?$AAp?$AAr?$AAo?$AAg@ 000000014010dbb0     ConEmu.obj
 0002:0000fc00       ??_C@_1EK@PLLDBMNP@?$AAW?$AAM?$AA_?$AAS?$AAH?$AAO?$AAW?$AAW?$AAI?$AAN?$AAD?$AAO?$AAW?$AA?5?$AA?$CI?$AAS?$AAh?$AAo?$AAw?$AA?$DN?$AA?$CF?$AAi?$AA?0?$AA?5?$AAS?$AAt?$AAa?$AAt?$AAu?$AAs?$AA?$DN?$AA?$CF@ 000000014010dc00     ConEmu.obj
 0002:0000fc50       ??_C@_1DO@JMPKCPDO@?$AAF?$AAa?$AAi?$AAl?$AAe?$AAd?$AA?5?$AAt?$AAo?$AA?5?$AAr?$AAe?$AAg?$AAi?$AAs?$AAt?$AAe?$AAr?$AA?5?$AAc?$AAl?$AAa?$AAs?$AAs?$AA?5?$AAn?$AAa?$AAm?$AAe?$AAs?$AA?$AA@ 000000014010dc50     ConEmu.obj
 0002:0000fc90       ??_C@_1DE@NAEDJANL@?$AAC?$AAa?$AAn?$AA?8?$AAt?$AA?5?$AAc?$AAr?$AAe?$AAa?$AAt?$AAe?$AA?5?$AAm?$AAa?$AAi?$AAn?$AA?5?$AAw?$AAi?$AAn?$AAd?$AAo?$AAw?$AA?$CB?$AA?$AA@ 000000014010dc90     ConEmu.obj
 0002:0000fcd0       ??_C@_1LO@IEJHNKFB@?$AAC?$AAr?$AAe?$AAa?$AAt?$AAi?$AAn?$AAg?$AA?5?$AAm?$AAa?$AAi?$AAn?$AA?5?$AAw?$AAi?$AAn?$AAd?$AAo?$AAw?$AA?4?$AA?$CF?$AAs?$AA?$CF?$AAs?$AA?$CF?$AAs?$AA?5?$AAP?$AAa?$AAr?$AAe@ 000000014010dcd0     ConEmu.obj
 0002:0000fd90       ??_C@_1O@CGBEPONC@?$AA?5?$AAQ?$AAu?$AAa?$AAk?$AAe?$AA?$AA@ 000000014010dd90     ConEmu.obj
 0002:0000fda0       ??_C@_1BA@GHLALHAG@?$AA?5?$AAI?$AAn?$AAs?$AAi?$AAd?$AAe?$AA?$AA@ 000000014010dda0     ConEmu.obj
 0002:0000fdb0       ??_C@_1BC@PHMHPNEB@?$AA?5?$AAD?$AAe?$AAs?$AAk?$AAt?$AAo?$AAp?$AA?$AA@ 000000014010ddb0     ConEmu.obj
 0002:0000fdd0       ??_C@_1EI@KFOIGGLN@?$AAI?$AAn?$AAs?$AAi?$AAd?$AAe?$AA?3?$AA?5?$AAA?$AAt?$AAt?$AAa?$AAc?$AAh?$AAT?$AAh?$AAr?$AAe?$AAa?$AAd?$AAI?$AAn?$AAp?$AAu?$AAt?$AA?$CI?$AA?$CJ?$AA?5?$AAf?$AAa?$AAi?$AAl@ 000000014010ddd0     ConEmu.obj
 0002:0000fe20       ??_C@_1EE@IBFHNPN@?$AAE?$AAr?$AAr?$AAo?$AAr?$AA?3?$AA?5?$AAc?$AAl?$AAa?$AAs?$AAs?$AA?5?$AAn?$AAa?$AAm?$AAe?$AAs?$AA?5?$AAm?$AAu?$AAs?$AAt?$AA?5?$AAb?$AAe?$AA?5?$AAe?$AAq?$AAu?$AAa?$AAl@ 000000014010de20     ConEmu.obj
 0002:0000fe68       ??_C@_1O@CPGFLGKC@?$AA?2?$AA?$AN?$AA?6?$AA?7?$AA?$AH?$AA?$BL?$AA?$AA@ 000000014010de68     ConEmuApp.obj
 0002:0000fe78       ??_C@_1CO@BDIIIBO@?$AAV?$AAi?$AAr?$AAt?$AAu?$AAa?$AAl?$AAC?$AAo?$AAn?$AAs?$AAo?$AAl?$AAe?$AAC?$AAl?$AAa?$AAs?$AAs?$AAA?$AAp?$AAp?$AA?$AA@ 000000014010de78     ConEmuApp.obj
 0002:0000fea8       ??_C@_1DA@FGBLPHE@?$AAV?$AAi?$AAr?$AAt?$AAu?$AAa?$AAl?$AAC?$AAo?$AAn?$AAs?$AAo?$AAl?$AAe?$AAC?$AAl?$AAa?$AAs?$AAs?$AAB?$AAa?$AAc?$AAk?$AA?$AA@ 000000014010dea8     ConEmuApp.obj
 0002:0000fed8       ??_C@_1DA@BJOGDGNE@?$AAV?$AAi?$AAr?$AAt?$AAu?$AAa?$AAl?$AAC?$AAo?$AAn?$AAs?$AAo?$AAl?$AAe?$AAC?$AAl?$AAa?$AAs?$AAs?$AAW?$AAo?$AAr?$AAk?$AA?$AA@ 000000014010ded8     ConEmuApp.obj
 0002:0000ff08       ?gsClassName@@3QEB_WEB     000000014010df08     ConEmuApp.obj
 0002:0000ff10       ?gsClassNameParent@@3QEB_WEB 000000014010df10     ConEmuApp.obj
 0002:0000ff18       ?gsClassNameWork@@3QEB_WEB 000000014010df18     ConEmuApp.obj
 0002:0000ff20       ?gsClassNameBack@@3QEB_WEB 000000014010df20     ConEmuApp.obj
 0002:0000ff28       ?gsClassNameApp@@3QEB_WEB  000000014010df28     ConEmuApp.obj
 0002:0000ff30       ??_C@_1BA@PMNBCMFK@?$AAr?$AAn?$AAt?$AAa?$AAe?$AA?2?$AA?$CC?$AA?$AA@ 000000014010df30     ConEmuApp.obj
 0002:0000ff40       ??_C@_1BG@PGBNDIAE@?$AA0?$AA1?$AA2?$AA3?$AA4?$AA5?$AA6?$AA7?$AA8?$AA9?$AA?$AA@ 000000014010df40     ConEmuApp.obj
 0002:0000ff58       ??_C@_1BA@LKPHLHCB@?$AAc?$AAo?$AAn?$AAh?$AAo?$AAs?$AAt?$AA?$AA@ 000000014010df58     ConEmuApp.obj
 0002:0000ff68       ??_C@_1M@NMNBFPAD@?$AAc?$AAs?$AAr?$AAs?$AAs?$AA?$AA@ 000000014010df68     ConEmuApp.obj
 0002:0000ff78       ??_C@_1BE@LPDGKFE@?$AAC?$AAo?$AAn?$AAE?$AAm?$AAu?$AAC?$AA6?$AA4?$AA?$AA@ 000000014010df78     ConEmuApp.obj
 0002:0000ff90       ??_C@_1BA@OOOLGAEE@?$AAC?$AAo?$AAn?$AAE?$AAm?$AAu?$AAC?$AA?$AA@ 000000014010df90     ConEmuApp.obj
 0002:0000ffa0       ??_C@_1BI@KAPIDPND@?$AAc?$AAo?$AAn?$AAh?$AAo?$AAs?$AAt?$AA?4?$AAe?$AAx?$AAe?$AA?$AA@ 000000014010dfa0     ConEmuApp.obj
 0002:0000ffb8       ??_C@_1BE@OMGDNGEO@?$AAc?$AAs?$AAr?$AAs?$AAs?$AA?4?$AAe?$AAx?$AAe?$AA?$AA@ 000000014010dfb8     ConEmuApp.obj
 0002:0000ffd0       ??_C@_1FK@EJBEFDDM@?$AAS?$AAk?$AAi?$AAp?$AA?5?$AAw?$AAi?$AAn?$AAd?$AAo?$AAw?$AA?5?$AA0?$AAx?$AA?$CF?$AA0?$AA8?$AAX?$AA?5?$AAw?$AAa?$AAs?$AA?5?$AAc?$AAr?$AAe?$AAa?$AAt?$AAe?$AAd?$AA?5?$AAa@ 000000014010dfd0     ConEmuApp.obj
 0002:00010030       ??_C@_1CE@HFHHNENO@?$AAS?$AAk?$AAi?$AAp?$AAO?$AAn?$AAe?$AAS?$AAh?$AAo?$AAw?$AAW?$AAi?$AAn?$AAd?$AAo?$AAw?$AA?$AA@ 000000014010e030     ConEmuApp.obj
 0002:00010058       ??_C@_1CK@NJOPALMI@?$AAC?$AAo?$AAn?$AAE?$AAm?$AAu?$AAS?$AAk?$AAi?$AAp?$AAS?$AAh?$AAo?$AAw?$AAW?$AAi?$AAn?$AAd?$AAo?$AAw?$AA?$AA@ 000000014010e058     ConEmuApp.obj
 0002:000100b0       ??_C@_1CO@PFLFNCAD@?$AA?$CF?$AAs?$AA?6?$AAL?$AAa?$AAs?$AAt?$AAE?$AAr?$AAr?$AAo?$AAr?$AA?$DN?$AA0?$AAx?$AA?$CF?$AA0?$AA8?$AAX?$AA?6?$AA?$CF?$AAs?$AA?$AA@ 000000014010e0b0     ConEmuApp.obj
 0002:00010108       ??_C@_1BA@HOCKDCBA@?$AAc?$AAm?$AAd?$AAl?$AAi?$AAs?$AAt?$AA?$AA@ 000000014010e108     ConEmuApp.obj
 0002:00010118       ??_C@_19PMGJBEFM@?$AA?1?$AAc?$AAm?$AAd?$AA?$AA@ 000000014010e118     ConEmuApp.obj
 0002:00010128       ??_C@_1BG@CJACHCOE@?$AAC?$AAo?$AAn?$AAE?$AAm?$AAu?$AAA?$AAr?$AAg?$AAs?$AA?$AA@ 000000014010e128     ConEmuApp.obj
 0002:00010140       ??_C@_1FM@HEHDLGOM@?$AAI?$AAn?$AAv?$AAa?$AAl?$AAi?$AAd?$AA?5?$AAc?$AAo?$AAm?$AAm?$AAa?$AAn?$AAd?$AA?5?$AAl?$AAi?$AAn?$AAe?$AA?3?$AA?5?$AAq?$AAu?$AAa?$AAt?$AAe?$AAs?$AA?5?$AAa?$AAr?$AAe@ 000000014010e140     ConEmuApp.obj
 0002:000101a0       ??_C@_1CO@OGBNGAJB@?$AAC?$AAr?$AAe?$AAa?$AAt?$AAe?$AAI?$AAn?$AAN?$AAe?$AAw?$AAE?$AAn?$AAv?$AAi?$AAr?$AAo?$AAn?$AAm?$AAe?$AAn?$AAt?$AA?$AA@ 000000014010e1a0     ConEmuApp.obj
 0002:000101d0       ??_C@_1CK@KJOPMFFM@?$AAS?$AAo?$AAf?$AAt?$AAw?$AAa?$AAr?$AAe?$AA?2?$AAH?$AAo?$AAo?$AAp?$AAo?$AAe?$AAP?$AAG?$AA_?$AA2?$AAx?$AA?$AA@ 000000014010e1d0     ConEmuApp.obj
 0002:00010200       ??_C@_1BI@IOAKKLAC@?$AAC?$AAo?$AAn?$AAE?$AAm?$AAu?$AAH?$AAo?$AAo?$AAk?$AAs?$AA?$AA@ 000000014010e200     ConEmuApp.obj
 0002:00010218       ??_C@_1BK@BAOJANNO@?$AAC?$AAo?$AAn?$AAE?$AAm?$AAu?$AAF?$AAa?$AAk?$AAe?$AAD?$AAT?$AA?$AA@ 000000014010e218     ConEmuApp.obj
 0002:00010238       ??_C@_0BG@NMFAMDBH@GetConsoleHistoryInfo?$AA@ 000000014010e238     ConEmuApp.obj
 0002:00010250       ??_C@_1BI@CJGIOPAN@?$AAP?$AAr?$AAo?$AAd?$AAu?$AAc?$AAt?$AAN?$AAa?$AAm?$AAe?$AA?$AA@ 000000014010e250     ConEmuApp.obj
 0002:00010270       ??_C@_1FK@EDIIEKBJ@?$AAS?$AAO?$AAF?$AAT?$AAW?$AAA?$AAR?$AAE?$AA?2?$AAM?$AAi?$AAc?$AAr?$AAo?$AAs?$AAo?$AAf?$AAt?$AA?2?$AAW?$AAi?$AAn?$AAd?$AAo?$AAw?$AAs?$AA?5?$AAN?$AAT?$AA?2?$AAC?$AAu@ 000000014010e270     ConEmuApp.obj
 0002:000102d0       ??_C@_1BA@NCEIKAGC@?$AAR?$AAe?$AAa?$AAc?$AAt?$AAO?$AAS?$AA?$AA@ 000000014010e2d0     ConEmuApp.obj
 0002:000102e0       ??_C@_1IE@JANBOEOO@?$AAS?$AAO?$AAF?$AAT?$AAW?$AAA?$AAR?$AAE?$AA?2?$AAM?$AAi?$AAc?$AAr?$AAo?$AAs?$AAo?$AAf?$AAt?$AA?2?$AAW?$AAi?$AAn?$AAd?$AAo?$AAw?$AAs?$AA?5?$AAN?$AAT?$AA?2?$AAC?$AAu@ 000000014010e2e0     ConEmuApp.obj
 0002:00010368       ??_C@_19IJOJOJIB@?$AAP?$AAA?$AAT?$AAH?$AA?$AA@ 000000014010e368     ConEmuApp.obj
 0002:000103a0       ??_C@_1EE@PIKOALHA@?$AAA?$AAp?$AAp?$AA?5?$AAw?$AAi?$AAn?$AAd?$AAo?$AAw?$AA?5?$AAc?$AAr?$AAe?$AAa?$AAt?$AAe?$AAd?$AA?0?$AA?5?$AAH?$AAW?$AAN?$AAD?$AA?$DN?$AA0?$AAx?$AA?$CF?$AA0?$AA8?$AAX?$AA?$AN@ 000000014010e3a0     ConEmuApp.obj
 0002:000103f0       ??_C@_1EC@LKJHMHCB@?$AAC?$AAa?$AAn?$AA?8?$AAt?$AA?5?$AAc?$AAr?$AAe?$AAa?$AAt?$AAe?$AA?5?$AAa?$AAp?$AAp?$AAl?$AAi?$AAc?$AAa?$AAt?$AAi?$AAo?$AAn?$AA?5?$AAw?$AAi?$AAn?$AAd?$AAo?$AAw?$AA?$CB@ 000000014010e3f0     ConEmuApp.obj
 0002:00010438       ??_C@_1CI@FDHPDHMJ@?$AAC?$AAr?$AAe?$AAa?$AAt?$AAi?$AAn?$AAg?$AA?5?$AAa?$AAp?$AAp?$AA?5?$AAw?$AAi?$AAn?$AAd?$AAo?$AAw?$AA?$AA@ 000000014010e438     ConEmuApp.obj
 0002:00010460       _GUID_000214f9_0000_0000_c000_000000000046 000000014010e460     ConEmuApp.obj
 0002:00010470       _GUID_886d8eeb_8cf2_4446_8d02_cdba1dbdcf99 000000014010e470     ConEmuApp.obj
 0002:00010480       ??_C@_1EK@LNDMKJAN@?$AAI?$AAC?$AAu?$AAs?$AAt?$AAo?$AAm?$AAD?$AAe?$AAs?$AAt?$AAi?$AAn?$AAa?$AAt?$AAi?$AAo?$AAn?$AAL?$AAi?$AAs?$AAt?$AA?5?$AAc?$AAr?$AAe?$AAa?$AAt?$AAe?$AA?5?$AAf?$AAa@ 000000014010e480     ConEmuApp.obj
 0002:000104d0       ??_C@_1EA@MBPFDBN@?$AAI?$AAO?$AAb?$AAj?$AAe?$AAc?$AAt?$AAC?$AAo?$AAl?$AAl?$AAe?$AAc?$AAt?$AAi?$AAo?$AAn?$AA?5?$AAc?$AAr?$AAe?$AAa?$AAt?$AAe?$AA?5?$AAf?$AAa?$AAi?$AAl?$AAe?$AAd?$AA?$AA@ 000000014010e4d0     ConEmuApp.obj
 0002:00010510       ??_C@_1FO@JNLBDCBK@?$AAp?$AAo?$AAc?$AA?9?$AA?$DO?$AAQ?$AAu?$AAe?$AAr?$AAy?$AAI?$AAn?$AAt?$AAe?$AAr?$AAf?$AAa?$AAc?$AAe?$AA?$CI?$AAI?$AAI?$AAD?$AA_?$AAP?$AAP?$AAV?$AA_?$AAA?$AAR?$AAG?$AAS@ 000000014010e510     ConEmuApp.obj
 0002:00010570       ??_C@_1FG@BBAINEPE@?$AAT?$AAa?$AAs?$AAk?$AAb?$AAa?$AAr?$AA?5?$AAj?$AAu?$AAm?$AAp?$AA?5?$AAl?$AAi?$AAs?$AAt?$AA?5?$AAw?$AAa?$AAs?$AA?5?$AAu?$AAp?$AAd?$AAa?$AAt?$AAe?$AAd?$AA?5?$AAs?$AAu@ 000000014010e570     ConEmuApp.obj
 0002:000105c8       ??_C@_1DE@GKOHJMCO@?$AAp?$AAc?$AAd?$AAl?$AA?9?$AA?$DO?$AAC?$AAo?$AAm?$AAm?$AAi?$AAt?$AAL?$AAi?$AAs?$AAt?$AA?$CI?$AA?$CJ?$AA?5?$AAf?$AAa?$AAi?$AAl?$AAe?$AAd?$AA?$AA@ 000000014010e5c8     ConEmuApp.obj
 0002:00010600       ??_C@_1DO@LJFAJJGC@?$AAp?$AAc?$AAd?$AAl?$AA?9?$AA?$DO?$AAA?$AAd?$AAd?$AAU?$AAs?$AAe?$AAr?$AAT?$AAa?$AAs?$AAk?$AAs?$AA?$CI?$AAp?$AAo?$AAa?$AA?$CJ?$AA?5?$AAf?$AAa?$AAi?$AAl?$AAe?$AAd?$AA?$AA@ 000000014010e600     ConEmuApp.obj
 0002:00010640       ??_C@_1DK@OPBIHOJA@?$AAA?$AAd?$AAd?$AA?5?$AAt?$AAa?$AAs?$AAk?$AA?5?$AA?$CI?$AAp?$AAs?$AAz?$AAH?$AAi?$AAs?$AAt?$AAo?$AAr?$AAy?$AA?$CJ?$AA?5?$AAf?$AAa?$AAi?$AAl?$AAe?$AAd?$AA?$AA@ 000000014010e640     ConEmuApp.obj
 0002:00010680       ??_C@_1DI@IJOCGIIH@?$AAA?$AAd?$AAd?$AA?5?$AAt?$AAa?$AAs?$AAk?$AA?5?$AA?$CI?$AAp?$AAs?$AAz?$AAC?$AAu?$AAr?$AAC?$AAm?$AAd?$AA?$CJ?$AA?5?$AAf?$AAa?$AAi?$AAl?$AAe?$AAd?$AA?$AA@ 000000014010e680     ConEmuApp.obj
 0002:000106b8       ??_C@_1DG@FKJLKAIA@?$AAA?$AAd?$AAd?$AA?5?$AAt?$AAa?$AAs?$AAk?$AA?5?$AA?$CI?$AAC?$AAm?$AAd?$AAG?$AAr?$AAo?$AAu?$AAp?$AA?$CJ?$AA?5?$AAf?$AAa?$AAi?$AAl?$AAe?$AAd?$AA?$AA@ 000000014010e6b8     ConEmuApp.obj
 0002:000106f0       _GUID_5632b1a4_e38a_400a_928a_d4cd63230295 000000014010e6f0     ConEmuApp.obj
 0002:00010700       ??_C@_1CO@IMIOOIKN@?$AAp?$AAc?$AAd?$AAl?$AA?9?$AA?$DO?$AAB?$AAe?$AAg?$AAi?$AAn?$AAL?$AAi?$AAs?$AAt?$AA?5?$AAf?$AAa?$AAi?$AAl?$AAe?$AAd?$AA?$AA@ 000000014010e700     ConEmuApp.obj
 0002:00010730       _GUID_92ca9dcd_5622_4bba_a805_5e9f541bd8c9 000000014010e730     ConEmuApp.obj
 0002:00010740       ??_C@_1EA@IPCLFHGH@?$AAT?$AAo?$AAo?$AA?5?$AAl?$AAo?$AAn?$AAg?$AA?5?$AA?$CF?$AAs?$AA?5?$AAv?$AAa?$AAl?$AAu?$AAe?$AA?5?$AA?$CI?$AA?$CF?$AAi?$AA?5?$AAc?$AAh?$AAa?$AAr?$AAs?$AA?$CJ?$AA?4?$AA?$AN?$AA?6?$AA?$AA@ 000000014010e740     ConEmuApp.obj
 0002:00010780       ??_C@_1BM@PHJFNLIC@?$AAC?$AAh?$AAo?$AAo?$AAs?$AAe?$AA?5?$AAf?$AAo?$AAl?$AAd?$AAe?$AAr?$AA?$AA@ 000000014010e780     ConEmuApp.obj
 0002:000107a0       ??_C@_1BI@BNDDCHKC@?$AAC?$AAh?$AAo?$AAo?$AAs?$AAe?$AA?5?$AAf?$AAi?$AAl?$AAe?$AA?$AA@ 000000014010e7a0     ConEmuApp.obj
 0002:000107c0       ??_C@_1BHK@PKDIOCHP@?$AAA?$AAl?$AAl?$AA?5?$AAf?$AAi?$AAl?$AAe?$AAs?$AA?5?$AA?$CI?$AA?$CK?$AA?4?$AA?$CK?$AA?$CJ?$AA?$AA?$AA?$CK?$AA?4?$AA?$CK?$AA?$AA?$AAT?$AAe?$AAx?$AAt?$AA?5?$AAf?$AAi?$AAl?$AAe?$AAs?$AA?5?$AA?$CI@ 000000014010e7c0     ConEmuApp.obj
 0002:0001093c       ??_C@_15ODFHNFBK@?$AA6?$AA4?$AA?$AA@ 000000014010e93c     ConEmuApp.obj
 0002:00010950       ??_C@_1BDG@KACNIHHM@?$AA?$CF?$AAs?$AA?5?$AAw?$AAa?$AAs?$AA?5?$AAo?$AAc?$AAc?$AAu?$AAr?$AAr?$AAe?$AAd?$AA?5?$AA?$CI?$AA?$CF?$AAs?$AA?0?$AA?5?$AAP?$AAI?$AAD?$AA?$DN?$AA?$CF?$AAu?$AA?$CJ?$AA?$AN?$AA?6?$AAC?$AAo@ 000000014010e950     ConEmuApp.obj
 0002:00010a88       ??_C@_1BE@KHKHOMAB@?$AAA?$AAs?$AAs?$AAe?$AAr?$AAt?$AAi?$AAo?$AAn?$AA?$AA@ 000000014010ea88     ConEmuApp.obj
 0002:00010aa0       ??_C@_1CA@NMOJJOGM@?$AA?5?$AA?$CI?$AA?$CF?$AAs?$AA?5?$AAx?$AA?$CF?$AA0?$AA8?$AAX?$AA?$CF?$AA0?$AA8?$AAX?$AA?$CJ?$AA?$AA@ 000000014010eaa0     ConEmuApp.obj
 0002:00010ac0       ??_C@_19EGOFFLBD@?$AAD?$AAE?$AAP?$AA?5?$AA?$AA@ 000000014010eac0     ConEmuApp.obj
 0002:00010ad0       ??_C@_1O@FJBAHJAJ@?$AAW?$AAr?$AAi?$AAt?$AAe?$AA?5?$AA?$AA@ 000000014010ead0     ConEmuApp.obj
 0002:00010ae0       ??_C@_1M@EMLCHAGA@?$AAR?$AAe?$AAa?$AAd?$AA?5?$AA?$AA@ 000000014010eae0     ConEmuApp.obj
 0002:00010af0       ??_C@_1CC@PECGKLGB@?$AAE?$AAx?$AAc?$AAe?$AAp?$AAt?$AAi?$AAo?$AAn?$AA?5?$AA0?$AAx?$AA?$CF?$AA0?$AA8?$AAX?$AA?$AA@ 000000014010eaf0     ConEmuApp.obj
 0002:00010b20       ??_C@_1GK@GPIGFFNP@?$AAC?$AAr?$AAe?$AAa?$AAt?$AAe?$AAD?$AAu?$AAm?$AAp?$AAF?$AAo?$AAr?$AAR?$AAe?$AAp?$AAo?$AAr?$AAt?$AA?5?$AAc?$AAa?$AAl?$AAl?$AAe?$AAd?$AA?0?$AA?5?$AAM?$AAi?$AAn?$AAi@ 000000014010eb20     ConEmuApp.obj
 0002:00010b90       ??_C@_1HA@HFIBONBG@?$AAC?$AAr?$AAe?$AAa?$AAt?$AAe?$AAD?$AAu?$AAm?$AAp?$AAF?$AAo?$AAr?$AAR?$AAe?$AAp?$AAo?$AAr?$AAt?$AA?5?$AAc?$AAa?$AAl?$AAl?$AAe?$AAd?$AA?0?$AA?5?$AAM?$AAi?$AAn?$AAi@ 000000014010eb90     ConEmuApp.obj
 0002:00010c00       ??_C@_0BC@MNIKNFKD@MiniDumpWriteDump?$AA@ 000000014010ec00     ConEmuApp.obj
 0002:00010c20       ??_C@_1HI@BCMKOKEH@?$AAC?$AAr?$AAe?$AAa?$AAt?$AAe?$AAD?$AAu?$AAm?$AAp?$AAF?$AAo?$AAr?$AAR?$AAe?$AAp?$AAo?$AAr?$AAt?$AA?5?$AAc?$AAa?$AAl?$AAl?$AAe?$AAd?$AA?0?$AA?5?$AAL?$AAo?$AAa?$AAd@ 000000014010ec20     ConEmuApp.obj
 0002:00010c98       ??_C@_1BI@ILDGMMLK@?$AAD?$AAb?$AAg?$AAh?$AAe?$AAl?$AAp?$AA?4?$AAd?$AAl?$AAl?$AA?$AA@ 000000014010ec98     ConEmuApp.obj
 0002:00010cb0       ??_C@_1GI@IOMGKFIP@?$AAC?$AAr?$AAe?$AAa?$AAt?$AAe?$AAD?$AAu?$AAm?$AAp?$AAF?$AAo?$AAr?$AAR?$AAe?$AAp?$AAo?$AAr?$AAt?$AA?5?$AAc?$AAa?$AAl?$AAl?$AAe?$AAd?$AA?0?$AA?5?$AAc?$AAr?$AAe?$AAa@ 000000014010ecb0     ConEmuApp.obj
 0002:00010d18       ??_C@_1DI@KJCMEOD@?$AA?2?$AAT?$AAr?$AAa?$AAp?$AA?9?$AA?$CF?$AA0?$AA2?$AAu?$AA?$CF?$AA0?$AA2?$AAu?$AA?$CF?$AA0?$AA2?$AAu?$AA?$CF?$AAs?$AA?9?$AA?$CF?$AAu?$AA?4?$AAd?$AAm?$AAp?$AA?$AA@ 000000014010ed18     ConEmuApp.obj
 0002:00010d50       ??_C@_1BG@CMGJHELL@?$AAC?$AAo?$AAn?$AAE?$AAm?$AAu?$AAT?$AAr?$AAa?$AAp?$AA?$AA@ 000000014010ed50     ConEmuApp.obj
 0002:00010d70       ??_C@_1GM@PFCNAGFF@?$AAC?$AAr?$AAe?$AAa?$AAt?$AAe?$AAD?$AAu?$AAm?$AAp?$AAF?$AAo?$AAr?$AAR?$AAe?$AAp?$AAo?$AAr?$AAt?$AA?5?$AAc?$AAa?$AAl?$AAl?$AAe?$AAd?$AA?0?$AA?5?$AAg?$AAe?$AAt?$AA?5@ 000000014010ed70     ConEmuApp.obj
 0002:00010de0       ??_C@_19KLGIPDEL@?$AA?$AN?$AA?6?$AA?$AN?$AA?6?$AA?$AA@ 000000014010ede0     ConEmuApp.obj
 0002:00010df0       ??_C@_1EO@EEDHKLGC@?$AA?$AN?$AA?6?$AAP?$AAr?$AAe?$AAE?$AAr?$AAr?$AAo?$AAr?$AA?$DN?$AA?$CF?$AAi?$AA?0?$AA?5?$AAP?$AAo?$AAs?$AAt?$AAE?$AAr?$AAr?$AAo?$AAr?$AA?$DN?$AA?$CF?$AAi?$AA?0?$AA?5?$AAR?$AAe?$AAs@ 000000014010edf0     ConEmuApp.obj
 0002:00010e40       ??_C@_1BHE@DEHMFLIP@?$AAA?$AAs?$AAs?$AAe?$AAr?$AAt?$AAi?$AAo?$AAn?$AA?$AN?$AA?6?$AA?$CF?$AAs?$AA?$AN?$AA?6?$AAa?$AAt?$AA?$AN?$AA?6?$AA?$CF?$AAs?$AA?3?$AA?$CF?$AAi?$AA?$AN?$AA?6?$AA?$AN?$AA?6?$AAP?$AAr?$AAe?$AAs@ 000000014010ee40     ConEmuApp.obj
 0002:00010fb8       ??_C@_1BC@MBDILLDI@?$AA?$DP?$AAC?$AAo?$AAn?$AAE?$AAm?$AAu?$AA?$DP?$AA?$AA@ 000000014010efb8     ConEmuApp.obj
 0002:00010fd0       ??_C@_1JE@IJJHCOKF@?$AA?$AN?$AA?6?$AA?$AN?$AA?6?$AAP?$AAr?$AAe?$AAs?$AAs?$AA?5?$AA?$DM?$AAY?$AAe?$AAs?$AA?$DO?$AA?5?$AAt?$AAo?$AA?5?$AAc?$AAo?$AAp?$AAy?$AA?5?$AAt?$AAh?$AAi?$AAs?$AA?5?$AAt?$AAe?$AAx@ 000000014010efd0     ConEmuApp.obj
 0002:00011070       ??_C@_1EC@CAECOEFJ@?$AAE?$AAr?$AAr?$AAo?$AAr?$AA?5?$AAd?$AAe?$AAl?$AAe?$AAt?$AAi?$AAn?$AAg?$AA?5?$AAt?$AAh?$AAe?$AA?5?$AAT?$AAa?$AAs?$AAk?$AA?5?$AA?3?$AA?5?$AA0?$AAx?$AA?$CF?$AA0?$AA8?$AAX@ 000000014010f070     ConEmuApp.obj
 0002:000110b8       ??_C@_1BK@BNOCAHHB@?$AAC?$AAo?$AAn?$AAE?$AAm?$AAu?$AA6?$AA4?$AA?4?$AAe?$AAx?$AAe?$AA?$AA@ 000000014010f0b8     ConEmuApp.obj
 0002:000110d8       ??_C@_1BG@PIGCKNCG@?$AAC?$AAo?$AAn?$AAE?$AAm?$AAu?$AA?4?$AAe?$AAx?$AAe?$AA?$AA@ 000000014010f0d8     ConEmuApp.obj
 0002:000110f0       ??_C@_1FK@EJLJNGL@?$AAF?$AAa?$AAi?$AAl?$AAe?$AAd?$AA?5?$AAt?$AAo?$AA?5?$AAs?$AAt?$AAa?$AAr?$AAt?$AA?5?$AAt?$AAa?$AAs?$AAk?$AA?5?$AAi?$AAn?$AA?5?$AAu?$AAs?$AAe?$AAr?$AA?5?$AAm?$AAo?$AAd@ 000000014010f0f0     ConEmuApp.obj
 0002:00011150       ??_C@_1DO@BMJGGNNI@?$AAE?$AAr?$AAr?$AAo?$AAr?$AA?5?$AAs?$AAa?$AAv?$AAi?$AAn?$AAg?$AA?5?$AAt?$AAh?$AAe?$AA?5?$AAT?$AAa?$AAs?$AAk?$AA?5?$AA?3?$AA?5?$AA0?$AAx?$AA?$CF?$AA0?$AA8?$AAX?$AA?$AA@ 000000014010f150     ConEmuApp.obj
 0002:00011190       ??_C@_1GG@CHOIDHHH@?$AAC?$AAa?$AAn?$AAn?$AAo?$AAt?$AA?5?$AAs?$AAe?$AAt?$AA?5?$AAw?$AAo?$AAr?$AAk?$AAi?$AAn?$AAg?$AA?5?$AAd?$AAi?$AAr?$AAe?$AAc?$AAt?$AAo?$AAr?$AAy?$AA?5?$AAo?$AAf?$AA?5@ 000000014010f190     ConEmuApp.obj
 0002:00011200       ??_C@_1FG@IKLMJLJF@?$AAC?$AAa?$AAn?$AAn?$AAo?$AAt?$AA?5?$AAs?$AAe?$AAt?$AA?5?$AAa?$AAr?$AAg?$AAu?$AAm?$AAe?$AAn?$AAt?$AAs?$AA?5?$AAo?$AAf?$AA?5?$AAe?$AAx?$AAe?$AAc?$AAu?$AAt?$AAa?$AAb@ 000000014010f200     ConEmuApp.obj
 0002:00011260       ??_C@_1EM@HMIHIIJH@?$AAC?$AAa?$AAn?$AAn?$AAo?$AAt?$AA?5?$AAs?$AAe?$AAt?$AA?5?$AAp?$AAa?$AAt?$AAh?$AA?5?$AAo?$AAf?$AA?5?$AAe?$AAx?$AAe?$AAc?$AAu?$AAt?$AAa?$AAb?$AAl?$AAe?$AA?3?$AA?5?$AA0@ 000000014010f260     ConEmuApp.obj
 0002:000112b0       ??_C@_1EO@GBEEGDCG@?$AAp?$AAA?$AAc?$AAt?$AAi?$AAo?$AAn?$AA?9?$AA?$DO?$AAQ?$AAu?$AAe?$AAr?$AAy?$AAI?$AAn?$AAt?$AAe?$AAr?$AAf?$AAa?$AAc?$AAe?$AA?5?$AAf?$AAa?$AAi?$AAl?$AAe?$AAd?$AA?3?$AA?5@ 000000014010f2b0     ConEmuApp.obj
 0002:00011300       ??_C@_1FC@IKLIIOII@?$AAp?$AAA?$AAc?$AAt?$AAi?$AAo?$AAn?$AAC?$AAo?$AAl?$AAl?$AAe?$AAc?$AAt?$AAi?$AAo?$AAn?$AA?9?$AA?$DO?$AAC?$AAr?$AAe?$AAa?$AAt?$AAe?$AA?5?$AAf?$AAa?$AAi?$AAl?$AAe?$AAd@ 000000014010f300     ConEmuApp.obj
 0002:00011360       ??_C@_1FG@NMPFDFDK@?$AAC?$AAa?$AAn?$AAn?$AAo?$AAt?$AA?5?$AAg?$AAe?$AAt?$AA?5?$AAT?$AAa?$AAs?$AAk?$AA?5?$AAc?$AAo?$AAl?$AAl?$AAe?$AAc?$AAt?$AAi?$AAo?$AAn?$AA?5?$AAp?$AAo?$AAi?$AAn?$AAt@ 000000014010f360     ConEmuApp.obj
 0002:000113c0       ??_C@_1GG@DIPHBILD@?$AAC?$AAa?$AAn?$AAn?$AAo?$AAt?$AA?5?$AAa?$AAd?$AAd?$AA?5?$AAr?$AAe?$AAg?$AAi?$AAs?$AAt?$AAr?$AAa?$AAt?$AAi?$AAo?$AAn?$AA?5?$AAt?$AAr?$AAi?$AAg?$AAg?$AAe?$AAr?$AA?5@ 000000014010f3c0     ConEmuApp.obj
 0002:00011430       ??_C@_1EM@MJFOEGNJ@?$AAC?$AAa?$AAn?$AAn?$AAo?$AAt?$AA?5?$AAg?$AAe?$AAt?$AA?5?$AAt?$AAr?$AAi?$AAg?$AAg?$AAe?$AAr?$AA?5?$AAc?$AAo?$AAl?$AAl?$AAe?$AAc?$AAt?$AAi?$AAo?$AAn?$AA?3?$AA?5?$AA0@ 000000014010f430     ConEmuApp.obj
 0002:00011480       ??_C@_1EO@POAKNNDD@?$AAC?$AAa?$AAn?$AAn?$AAo?$AAt?$AA?5?$AAg?$AAe?$AAt?$AA?5?$AAR?$AAo?$AAo?$AAt?$AA?5?$AAF?$AAo?$AAl?$AAd?$AAe?$AAr?$AA?5?$AAp?$AAo?$AAi?$AAn?$AAt?$AAe?$AAr?$AA?3?$AA?5@ 000000014010f480     ConEmuApp.obj
 0002:000114d0       ??_C@_1EK@NNBMKICB@?$AAI?$AAT?$AAa?$AAs?$AAk?$AAS?$AAe?$AAr?$AAv?$AAi?$AAc?$AAe?$AA?3?$AA?3?$AAC?$AAo?$AAn?$AAn?$AAe?$AAc?$AAt?$AA?5?$AAf?$AAa?$AAi?$AAl?$AAe?$AAd?$AA?3?$AA?5?$AA0?$AAx@ 000000014010f4d0     ConEmuApp.obj
 0002:00011520       ??_C@_1IA@KHIGBJHM@?$AAF?$AAa?$AAi?$AAl?$AAe?$AAd?$AA?5?$AAt?$AAo?$AA?5?$AAC?$AAo?$AAC?$AAr?$AAe?$AAa?$AAt?$AAe?$AA?5?$AAa?$AAn?$AA?5?$AAi?$AAn?$AAs?$AAt?$AAa?$AAn?$AAc?$AAe?$AA?5?$AAo@ 000000014010f520     ConEmuApp.obj
 0002:000115a0       ??_C@_1EI@FPPOACLG@?$AAC?$AAo?$AAI?$AAn?$AAi?$AAt?$AAi?$AAa?$AAl?$AAi?$AAz?$AAe?$AAS?$AAe?$AAc?$AAu?$AAr?$AAi?$AAt?$AAy?$AA?5?$AAf?$AAa?$AAi?$AAl?$AAe?$AAd?$AA?3?$AA?5?$AA0?$AAx?$AA?$CF@ 000000014010f5a0     ConEmuApp.obj
 0002:000115e8       ??_C@_1DM@GKBBBACK@?$AAC?$AAo?$AAI?$AAn?$AAi?$AAt?$AAi?$AAa?$AAl?$AAi?$AAz?$AAe?$AAE?$AAx?$AA?5?$AAf?$AAa?$AAi?$AAl?$AAe?$AAd?$AA?3?$AA?5?$AA0?$AAx?$AA?$CF?$AA0?$AA8?$AAX?$AA?$AA@ 000000014010f5e8     ConEmuApp.obj
 0002:00011628       ??_C@_1BK@BLIGKOHI@?$AAS?$AA?9?$AA1?$AA?9?$AA5?$AA?9?$AA3?$AA2?$AA?9?$AA5?$AA4?$AA5?$AA?$AA@ 000000014010f628     ConEmuApp.obj
 0002:00011650       ??_C@_1FG@GJLHBNBH@?$AAC?$AAo?$AAn?$AAE?$AAm?$AAu?$AA?5?$AA?$CF?$AA0?$AA2?$AAu?$AA?$CF?$AA0?$AA2?$AAu?$AA?$CF?$AA0?$AA2?$AAu?$AA?$CF?$AAs?$AA?5?$AAs?$AAt?$AAa?$AAr?$AAt?$AAe?$AAr?$AA?5?$AAP?$AAa@ 000000014010f650     ConEmuApp.obj
 0002:000116b0       ??_C@_1FA@PPEOOFFA@?$AAI?$AAn?$AAv?$AAa?$AAl?$AAi?$AAd?$AA?5?$AAc?$AAm?$AAd?$AA?5?$AAl?$AAi?$AAn?$AAe?$AA?4?$AA?5?$AAE?$AAx?$AAe?$AAc?$AAu?$AAt?$AAa?$AAb?$AAl?$AAe?$AA?5?$AAn?$AAo?$AAt@ 000000014010f6b0     ConEmuApp.obj
 0002:00011700       ??_C@_1DA@ILNPKOKJ@?$AAl?$AAp?$AAA?$AAp?$AAp?$AAl?$AAi?$AAc?$AAa?$AAt?$AAi?$AAo?$AAn?$AAN?$AAa?$AAm?$AAe?$AA?$DN?$AA?$DN?$AAN?$AAU?$AAL?$AAL?$AA?$AA@ 000000014010f700     ConEmuApp.obj
 0002:00011730       ??_C@_1BM@HICPJIPM@?$AAC?$AAo?$AAn?$AAE?$AAm?$AAu?$AAA?$AAp?$AAp?$AA?4?$AAc?$AAp?$AAp?$AA?$AA@ 000000014010f730     ConEmuApp.obj
 0002:00011750       ??_C@_1EE@GMMCLILL@?$AAP?$AAa?$AAs?$AAs?$AAe?$AAd?$AA?5?$AAt?$AAo?$AA?5?$AAf?$AAi?$AAr?$AAs?$AAt?$AA?5?$AAi?$AAn?$AAs?$AAt?$AAa?$AAn?$AAc?$AAe?$AA?0?$AA?5?$AAe?$AAx?$AAi?$AAt?$AAi?$AAn@ 000000014010f750     ConEmuApp.obj
 0002:00011798       ??_C@_1BO@DDGNJIMI@?$AAg?$AAp?$AAC?$AAo?$AAn?$AAE?$AAm?$AAu?$AA?9?$AA?$DO?$AAI?$AAn?$AAi?$AAt?$AA?$AA@ 000000014010f798     ConEmuApp.obj
 0002:000117b8       ??_C@_1DM@LFPPKIOJ@?$AAW?$AAa?$AAi?$AAt?$AAi?$AAn?$AAg?$AA?5?$AAf?$AAo?$AAr?$AA?5?$AAR?$AAu?$AAn?$AAS?$AAi?$AAn?$AAg?$AAl?$AAe?$AAI?$AAn?$AAs?$AAt?$AAa?$AAn?$AAc?$AAe?$AA?$AA@ 000000014010f7b8     ConEmuApp.obj
 0002:000117f8       ??_C@_1CA@FJLILGBF@?$AAi?$AAs?$AAF?$AAi?$AAr?$AAs?$AAt?$AAI?$AAn?$AAs?$AAt?$AAa?$AAn?$AAc?$AAe?$AA?$AA@ 000000014010f7f8     ConEmuApp.obj
 0002:00011818       ??_C@_1CG@GJOIFHFC@?$AAT?$AAH?$AA3?$AA2?$AAC?$AAS?$AA_?$AAS?$AAN?$AAA?$AAP?$AAP?$AAR?$AAO?$AAC?$AAE?$AAS?$AAS?$AA?$AA@ 000000014010f818     ConEmuApp.obj
 0002:00011840       ??_C@_1CE@LJKOAKNM@?$AAS?$AAi?$AAn?$AAg?$AAl?$AAe?$AAI?$AAn?$AAs?$AAt?$AAa?$AAn?$AAc?$AAe?$AAA?$AAr?$AAg?$AA?$AA@ 000000014010f840     ConEmuApp.obj
 0002:00011868       ??_C@_1CE@EAIDAJBO@?$AAR?$AAe?$AAg?$AAi?$AAs?$AAt?$AAe?$AAr?$AAi?$AAn?$AAg?$AA?5?$AAf?$AAo?$AAn?$AAt?$AAs?$AA?$AA@ 000000014010f868     ConEmuApp.obj
 0002:00011890       ??_C@_1BG@EDKOADAI@?$AAc?$AAo?$AAn?$AAm?$AAa?$AAn?$AA?4?$AAe?$AAx?$AAe?$AA?$AA@ 000000014010f890     ConEmuApp.obj
 0002:000118a8       ??_C@_1BO@BHAFBLHP@?$AAS?$AAe?$AAt?$AAt?$AAi?$AAn?$AAg?$AAs?$AAL?$AAo?$AAa?$AAd?$AAe?$AAd?$AA?$AA@ 000000014010f8a8     ConEmuApp.obj
 0002:000118c8       ??_C@_1DI@GNDABEIM@?$AAU?$AAn?$AAk?$AAn?$AAo?$AAw?$AAn?$AA?5?$AAs?$AAw?$AAi?$AAt?$AAc?$AAh?$AA?5?$AAs?$AAp?$AAe?$AAc?$AAi?$AAf?$AAi?$AAe?$AAd?$AA?3?$AA?$AN?$AA?6?$AA?$AA@ 000000014010f8c8     ConEmuApp.obj
 0002:00011900       ??_C@_1BA@GNCLADGG@?$AAA?$AAu?$AAt?$AAo?$AAR?$AAu?$AAn?$AA?$AA@ 000000014010f900     ConEmuApp.obj
 0002:00011910       ??_C@_1BG@MMENACNN@?$AA?$CC?$AA?$CF?$AAs?$AA?$CC?$AA?$CF?$AAs?$AA?$CF?$AAs?$AA?$CF?$AAs?$AA?$AA@ 000000014010f910     ConEmuApp.obj
 0002:00011928       ??_C@_15EDKKDMNP@?$AA?5?$AA?$CC?$AA?$AA@ 000000014010f928     ConEmuApp.obj
 0002:00011930       ??_C@_1EK@LALODNMK@?$AAS?$AAo?$AAf?$AAt?$AAw?$AAa?$AAr?$AAe?$AA?2?$AAM?$AAi?$AAc?$AAr?$AAo?$AAs?$AAo?$AAf?$AAt?$AA?2?$AAC?$AAo?$AAm?$AAm?$AAa?$AAn?$AAd?$AA?5?$AAP?$AAr?$AAo?$AAc?$AAe@ 000000014010f930     ConEmuApp.obj
 0002:00011980       ??_C@_1FO@POGLPOKC@?$AAI?$AAn?$AAv?$AAa?$AAl?$AAi?$AAd?$AA?5?$AAc?$AAm?$AAd?$AA?5?$AAl?$AAi?$AAn?$AAe?$AA?4?$AA?5?$AA?8?$AA?1?$AAb?$AAy?$AAp?$AAa?$AAs?$AAs?$AA?8?$AA?5?$AAe?$AAx?$AAi?$AAs@ 000000014010f980     ConEmuApp.obj
 0002:000119e0       ??_C@_1FO@FEFIABMH@?$AAI?$AAn?$AAv?$AAa?$AAl?$AAi?$AAd?$AA?5?$AAc?$AAm?$AAd?$AA?5?$AAl?$AAi?$AAn?$AAe?$AA?4?$AA?5?$AA?8?$AA?1?$AAd?$AAe?$AAm?$AAo?$AAt?$AAe?$AA?8?$AA?5?$AAe?$AAx?$AAi?$AAs@ 000000014010f9e0     ConEmuApp.obj
 0002:00011a40       ??_C@_1M@KALNPIPP@?$AA?1?$AAh?$AAe?$AAl?$AAp?$AA?$AA@ 000000014010fa40     ConEmuApp.obj
 0002:00011a4c       ??_C@_15EGFFDGFD@?$AA?1?$AAh?$AA?$AA@ 000000014010fa4c     ConEmuApp.obj
 0002:00011a54       ??_C@_15BAIPABEI@?$AA?1?$AA?$DP?$AA?$AA@ 000000014010fa54     ConEmuApp.obj
 0002:00011a60       ??_C@_1BK@JECCKHKH@?$AA?1?$AAF?$AAi?$AAn?$AAd?$AAB?$AAu?$AAg?$AAM?$AAo?$AAd?$AAe?$AA?$AA@ 000000014010fa60     ConEmuApp.obj
 0002:00011a80       ??_C@_1O@PMOPFDKF@?$AA?1?$AAT?$AAi?$AAt?$AAl?$AAe?$AA?$AA@ 000000014010fa80     ConEmuApp.obj
 0002:00011a90       ??_C@_1M@CCAPFCIB@?$AA?1?$AAE?$AAx?$AAi?$AAt?$AA?$AA@ 000000014010fa90     ConEmuApp.obj
 0002:00011aa0       ??_C@_1BI@EPHOPOMO@?$AA?1?$AAS?$AAe?$AAt?$AAD?$AAe?$AAf?$AAT?$AAe?$AAr?$AAm?$AA?$AA@ 000000014010faa0     ConEmuApp.obj
 0002:00011ab8       ??_C@_1BK@EOABDGKP@?$AA?1?$AAS?$AAa?$AAv?$AAe?$AAC?$AAf?$AAg?$AAF?$AAi?$AAl?$AAe?$AA?$AA@ 000000014010fab8     ConEmuApp.obj
 0002:00011ad8       ??_C@_1BK@PHBNIFIM@?$AA?1?$AAL?$AAo?$AAa?$AAd?$AAC?$AAf?$AAg?$AAF?$AAi?$AAl?$AAe?$AA?$AA@ 000000014010fad8     ConEmuApp.obj
 0002:00011af8       ??_C@_1BC@EEJBLDOA@?$AA?1?$AAP?$AAa?$AAl?$AAe?$AAt?$AAt?$AAe?$AA?$AA@ 000000014010faf8     ConEmuApp.obj
 0002:00011b10       ??_C@_1BA@LNCPIFGJ@?$AA?1?$AAC?$AAo?$AAn?$AAf?$AAi?$AAg?$AA?$AA@ 000000014010fb10     ConEmuApp.obj
 0002:00011b20       ??_C@_1BM@CLIDOLHB@?$AA?1?$AAB?$AAu?$AAf?$AAf?$AAe?$AAr?$AAH?$AAe?$AAi?$AAg?$AAh?$AAt?$AA?$AA@ 000000014010fb20     ConEmuApp.obj
 0002:00011b40       ??_C@_1BA@MFNNEGKA@?$AA?1?$AAB?$AAu?$AAf?$AAf?$AAe?$AAr?$AA?$AA@ 000000014010fb40     ConEmuApp.obj
 0002:00011b50       ??_C@_1BK@GCNEDNAD@?$AA?1?$AAd?$AAo?$AAn?$AAt?$AAc?$AAa?$AAs?$AAc?$AAa?$AAd?$AAe?$AA?$AA@ 000000014010fb50     ConEmuApp.obj
 0002:00011b70       ??_C@_1BG@MPBIECNL@?$AA?1?$AAn?$AAo?$AAc?$AAa?$AAs?$AAc?$AAa?$AAd?$AAe?$AA?$AA@ 000000014010fb70     ConEmuApp.obj
 0002:00011b88       ??_C@_1O@GLEPEHMD@?$AA?1?$AAb?$AAa?$AAs?$AAi?$AAc?$AA?$AA@ 000000014010fb88     ConEmuApp.obj
 0002:00011b98       ??_C@_1BM@PDCHNMIK@?$AA?1?$AAr?$AAe?$AAs?$AAe?$AAt?$AAd?$AAe?$AAf?$AAa?$AAu?$AAl?$AAt?$AA?$AA@ 000000014010fb98     ConEmuApp.obj
 0002:00011bb8       ??_C@_1O@NELAKFBI@?$AA?1?$AAr?$AAe?$AAs?$AAe?$AAt?$AA?$AA@ 000000014010fbb8     ConEmuApp.obj
 0002:00011bc8       ??_C@_1BK@CBIBLOPH@?$AA?1?$AAs?$AAh?$AAo?$AAw?$AAh?$AAi?$AAd?$AAe?$AAT?$AAS?$AAA?$AA?$AA@ 000000014010fbc8     ConEmuApp.obj
 0002:00011be8       ??_C@_1BE@OHGHPJHH@?$AA?1?$AAs?$AAh?$AAo?$AAw?$AAh?$AAi?$AAd?$AAe?$AA?$AA@ 000000014010fbe8     ConEmuApp.obj
 0002:00011c00       ??_C@_1BE@JKDPOBEK@?$AA?1?$AAn?$AAo?$AAs?$AAi?$AAn?$AAg?$AAl?$AAe?$AA?$AA@ 000000014010fc00     ConEmuApp.obj
 0002:00011c18       ??_C@_1BA@MPKKDNJL@?$AA?1?$AAs?$AAi?$AAn?$AAg?$AAl?$AAe?$AA?$AA@ 000000014010fc18     ConEmuApp.obj
 0002:00011c28       ??_C@_1M@EGCHHLOE@?$AA?1?$AAl?$AAo?$AAg?$AA4?$AA?$AA@ 000000014010fc28     ConEmuApp.obj
 0002:00011c38       ??_C@_1M@NLPAEDFN@?$AA?1?$AAl?$AAo?$AAg?$AA3?$AA?$AA@ 000000014010fc38     ConEmuApp.obj
 0002:00011c48       ??_C@_1M@GDEMCEDI@?$AA?1?$AAl?$AAo?$AAg?$AA2?$AA?$AA@ 000000014010fc48     ConEmuApp.obj
 0002:00011c58       ??_C@_1M@HBPJILNG@?$AA?1?$AAl?$AAo?$AAg?$AA1?$AA?$AA@ 000000014010fc58     ConEmuApp.obj
 0002:00011c68       ??_C@_1M@MJEFOMLD@?$AA?1?$AAl?$AAo?$AAg?$AA0?$AA?$AA@ 000000014010fc68     ConEmuApp.obj
 0002:00011c78       ??_C@_19HKDEAIBF@?$AA?1?$AAl?$AAo?$AAg?$AA?$AA@ 000000014010fc78     ConEmuApp.obj
 0002:00011c88       ??_C@_1CA@CKHKNLGJ@?$AA?1?$AAu?$AAp?$AAd?$AAa?$AAt?$AAe?$AAj?$AAu?$AAm?$AAp?$AAl?$AAi?$AAs?$AAt?$AA?$AA@ 000000014010fc88     ConEmuApp.obj
 0002:00011ca8       ??_C@_1BG@MCBNHKJK@?$AA?1?$AAi?$AAn?$AAs?$AAi?$AAd?$AAe?$AAw?$AAn?$AAd?$AA?$AA@ 000000014010fca8     ConEmuApp.obj
 0002:00011cc0       ??_C@_1BG@NFNNEDDL@?$AA?1?$AAi?$AAn?$AAs?$AAi?$AAd?$AAe?$AAp?$AAi?$AAd?$AA?$AA@ 000000014010fcc0     ConEmuApp.obj
 0002:00011cd8       ??_C@_1BC@OAFOBJHA@?$AA?1?$AAi?$AAn?$AAs?$AAi?$AAd?$AAe?$AA?$DN?$AA?$AA@ 000000014010fcd8     ConEmuApp.obj
 0002:00011cf0       ??_C@_1BA@CEDOKIOE@?$AA?1?$AAi?$AAn?$AAs?$AAi?$AAd?$AAe?$AA?$AA@ 000000014010fcf0     ConEmuApp.obj
 0002:00011d00       ??_C@_1BI@DGGKGDFO@?$AA?1?$AAn?$AAo?$AAr?$AAe?$AAg?$AAf?$AAo?$AAn?$AAt?$AAs?$AA?$AA@ 000000014010fd00     ConEmuApp.obj
 0002:00011d18       ??_C@_1BG@CLHIHOKG@?$AA?1?$AAn?$AAo?$AAr?$AAe?$AAg?$AAf?$AAo?$AAn?$AAt?$AA?$AA@ 000000014010fd18     ConEmuApp.obj
 0002:00011d30       ??_C@_1BG@OOPFPCFL@?$AA?1?$AAn?$AAo?$AAd?$AAe?$AAf?$AAt?$AAe?$AAr?$AAm?$AA?$AA@ 000000014010fd30     ConEmuApp.obj
 0002:00011d48       ??_C@_1BE@IBMBAHFP@?$AA?1?$AAn?$AAo?$AAd?$AAe?$AAf?$AAt?$AAr?$AAm?$AA?$AA@ 000000014010fd48     ConEmuApp.obj
 0002:00011d60       ??_C@_1BG@HHGHICGB@?$AA?1?$AAn?$AAo?$AAh?$AAo?$AAt?$AAk?$AAe?$AAy?$AAs?$AA?$AA@ 000000014010fd60     ConEmuApp.obj
 0002:00011d78       ??_C@_1BE@GGLPOKK@?$AA?1?$AAn?$AAo?$AAh?$AAo?$AAt?$AAk?$AAe?$AAy?$AA?$AA@ 000000014010fd78     ConEmuApp.obj
 0002:00011d90       ??_C@_1BC@DEEICHG@?$AA?1?$AAn?$AAo?$AAm?$AAa?$AAc?$AAr?$AAo?$AA?$AA@ 000000014010fd90     ConEmuApp.obj
 0002:00011da8       ??_C@_1BK@BLHEFHOF@?$AA?1?$AAn?$AAo?$AAk?$AAe?$AAy?$AAb?$AAh?$AAo?$AAo?$AAk?$AAs?$AA?$AA@ 000000014010fda8     ConEmuApp.obj
 0002:00011dc8       ??_C@_1BI@JMCPODPH@?$AA?1?$AAn?$AAo?$AAk?$AAe?$AAy?$AAb?$AAh?$AAo?$AAo?$AAk?$AA?$AA@ 000000014010fdc8     ConEmuApp.obj
 0002:00011de0       ??_C@_1BI@JKPICNIJ@?$AA?1?$AAn?$AAo?$AAk?$AAe?$AAy?$AAh?$AAo?$AAo?$AAk?$AAs?$AA?$AA@ 000000014010fde0     ConEmuApp.obj
 0002:00011df8       ??_C@_1BG@CIOCNENL@?$AA?1?$AAn?$AAo?$AAk?$AAe?$AAy?$AAh?$AAo?$AAo?$AAk?$AA?$AA@ 000000014010fdf8     ConEmuApp.obj
 0002:00011e10       ??_C@_1BE@MNIEGECJ@?$AA?1?$AAn?$AAo?$AAu?$AAp?$AAd?$AAa?$AAt?$AAe?$AA?$AA@ 000000014010fe10     ConEmuApp.obj
 0002:00011e28       ??_C@_1BE@KMKFONGG@?$AA?1?$AAd?$AAe?$AAt?$AAa?$AAc?$AAh?$AAe?$AAd?$AA?$AA@ 000000014010fe28     ConEmuApp.obj
 0002:00011e40       ??_C@_1M@CKMHPNPP@?$AA?1?$AAt?$AAr?$AAa?$AAy?$AA?$AA@ 000000014010fe40     ConEmuApp.obj
 0002:00011e50       ??_C@_19IEBFLPLH@?$AA?1?$AAt?$AAs?$AAa?$AA?$AA@ 000000014010fe50     ConEmuApp.obj
 0002:00011e60       ??_C@_1BA@ONFFEFKG@?$AA?1?$AAm?$AAi?$AAn?$AAt?$AAs?$AAa?$AA?$AA@ 000000014010fe60     ConEmuApp.obj
 0002:00011e70       ??_C@_19BNMPKEBM@?$AA?1?$AAm?$AAi?$AAn?$AA?$AA@ 000000014010fe70     ConEmuApp.obj
 0002:00011e80       ??_C@_19IEOOCODC@?$AA?1?$AAm?$AAa?$AAx?$AA?$AA@ 000000014010fe80     ConEmuApp.obj
 0002:00011e90       ??_C@_17BNKMLDFJ@?$AA?1?$AAf?$AAs?$AA?$AA@ 000000014010fe90     ConEmuApp.obj
 0002:00011e98       ??_C@_1BE@MIMMLNKF@?$AA?1?$AAf?$AAo?$AAn?$AAt?$AAf?$AAi?$AAl?$AAe?$AA?$AA@ 000000014010fe98     ConEmuApp.obj
 0002:00011eb0       ??_C@_1M@JKBENBIE@?$AA?1?$AAs?$AAi?$AAz?$AAe?$AA?$AA@ 000000014010feb0     ConEmuApp.obj
 0002:00011ec0       ??_C@_1M@ONBOOCNI@?$AA?1?$AAf?$AAo?$AAn?$AAt?$AA?$AA@ 000000014010fec0     ConEmuApp.obj
 0002:00011ed0       ??_C@_19DGNGBHHB@?$AA?1?$AAc?$AAt?$AA2?$AA?$AA@ 000000014010fed0     ConEmuApp.obj
 0002:00011ee0       ??_C@_19CEGDLIJP@?$AA?1?$AAc?$AAt?$AA1?$AA?$AA@ 000000014010fee0     ConEmuApp.obj
 0002:00011ef0       ??_C@_19JMNPNPPK@?$AA?1?$AAc?$AAt?$AA0?$AA?$AA@ 000000014010fef0     ConEmuApp.obj
 0002:00011f00       ??_C@_1BG@KJJAEMBN@?$AA?1?$AAc?$AAl?$AAe?$AAa?$AAr?$AAt?$AAy?$AAp?$AAe?$AA?$AA@ 000000014010ff00     ConEmuApp.obj
 0002:00011f18       ??_C@_17NALGBKFD@?$AA?1?$AAc?$AAt?$AA?$AA@ 000000014010ff18     ConEmuApp.obj
 0002:00011f20       ??_C@_1BC@CIHJFBG@?$AA?1?$AAv?$AAi?$AAs?$AAi?$AAb?$AAl?$AAe?$AA?$AA@ 000000014010ff20     ConEmuApp.obj
 0002:00011f38       ??_C@_1BC@HBDANIJ@?$AA?1?$AAn?$AAo?$AAm?$AAu?$AAl?$AAt?$AAi?$AA?$AA@ 000000014010ff38     ConEmuApp.obj
 0002:00011f50       ??_C@_1O@ECPACLIG@?$AA?1?$AAm?$AAu?$AAl?$AAt?$AAi?$AA?$AA@ 000000014010ff50     ConEmuApp.obj
 0002:00011f60       ??_C@_1BA@BOIIMGPG@?$AA?1?$AAd?$AAe?$AAm?$AAo?$AAt?$AAe?$AA?$AA@ 000000014010ff60     ConEmuApp.obj
 0002:00011f70       ??_C@_1BA@EAPFANKM@?$AA?1?$AAb?$AAy?$AAp?$AAa?$AAs?$AAs?$AA?$AA@ 000000014010ff70     ConEmuApp.obj
 0002:00011f80       ??_C@_1BG@MJOMABJN@?$AA?1?$AAa?$AAu?$AAt?$AAo?$AAs?$AAe?$AAt?$AAu?$AAp?$AA?$AA@ 000000014010ff80     ConEmuApp.obj
 0002:00011f98       ??_C@_1BG@PJNLOCNJ@?$AA?2?$AA?1?$AA?1?$AA?$HM?$AA?4?$AA?$CG?$AA?$DM?$AA?$DO?$AA?3?$AA?$FO?$AA?$AA@ 000000014010ff98     ConEmuApp.obj
 0002:00011fb0       ??_C@_1BO@GJHIEJBL@?$AAC?$AAo?$AAn?$AAe?$AAm?$AAu?$AA?5?$AAs?$AAt?$AAa?$AAr?$AAt?$AAe?$AAd?$AA?$AA@ 000000014010ffb0     ConEmuApp.obj
 0002:00011fd0       ??_C@_1O@MGPOCGFL@?$AA?1?$AAd?$AAe?$AAb?$AAu?$AAg?$AA?$AA@ 000000014010ffd0     ConEmuApp.obj
 0002:00011fe0       ??_C@_1BC@GCGFGEDI@?$AAS?$AAe?$AAg?$AAo?$AAe?$AA?5?$AAU?$AAI?$AA?$AA@ 000000014010ffe0     ConEmuApp.obj
 0002:00011ff8       ??_C@_1BC@HGFMMHCE@?$AAC?$AAo?$AAn?$AAs?$AAo?$AAl?$AAa?$AAs?$AA?$AA@ 000000014010fff8     ConEmuApp.obj
 0002:00012010       ??_C@_1CA@EMIAOLLM@?$AAL?$AAi?$AAb?$AAe?$AAr?$AAa?$AAt?$AAi?$AAo?$AAn?$AA?5?$AAM?$AAo?$AAn?$AAo?$AA?$AA@ 0000000140110010     ConEmuApp.obj
 0002:00012030       ??_C@_0BF@PIPEOHKL@GetRealConsoleWindow?$AA@ 0000000140110030     ConEmuCheck.obj
 0002:00012048       ??_C@_1CO@ELKEEMPJ@?$AAC?$AAo?$AAn?$AAE?$AAm?$AAu?$AAF?$AAi?$AAl?$AAe?$AAM?$AAa?$AAp?$AAp?$AAi?$AAn?$AAg?$AA?4?$AA?$CF?$AA0?$AA8?$AAX?$AA?$AA@ 0000000140110048     ConEmuCheck.obj
 0002:00012080       ??_C@_1GG@MCIOAMLH@?$AA?$CF?$AAs?$AA?4?$AA?$CF?$AAu?$AA?3?$AA?5?$AAC?$AAr?$AAe?$AAa?$AAt?$AAe?$AAF?$AAi?$AAl?$AAe?$AA?$CI?$AA?$CF?$AAs?$AA?$CJ?$AA?5?$AAf?$AAa?$AAi?$AAl?$AAe?$AAd?$AA?0?$AA?5?$AAc?$AAo@ 0000000140110080     ConEmuCheck.obj
 0002:000120f0       ??_C@_1FE@MIBHLLLF@?$AA?$CF?$AAs?$AA?4?$AA?$CF?$AAu?$AA?3?$AA?5?$AAC?$AAr?$AAe?$AAa?$AAt?$AAe?$AAF?$AAi?$AAl?$AAe?$AA?$CI?$AA?$CF?$AAs?$AA?$CJ?$AA?5?$AAf?$AAa?$AAi?$AAl?$AAe?$AAd?$AA?0?$AA?5?$AAc?$AAo@ 00000001401100f0     ConEmuCheck.obj
 0002:00012148       ??_C@_0M@DLDCCGNP@MessageBoxW?$AA@ 0000000140110148     ConEmuCheck.obj
 0002:00012158       ??_C@_1BG@GACMCKCK@?$AAU?$AAs?$AAe?$AAr?$AA3?$AA2?$AA?4?$AAd?$AAl?$AAl?$AA?$AA@ 0000000140110158     ConEmuCheck.obj
 0002:00012170       ??_C@_1CM@KHMDALMN@?$AA?2?$AA?2?$AA?$CF?$AAs?$AA?2?$AAp?$AAi?$AAp?$AAe?$AA?2?$AAC?$AAo?$AAn?$AAE?$AAm?$AAu?$AAG?$AAu?$AAi?$AA?$CF?$AAu?$AA?$AA@ 0000000140110170     ConEmuCheck.obj
 0002:000121a0       ??_C@_1CM@OPJKOFLA@?$AA?2?$AA?2?$AA?$CF?$AAs?$AA?2?$AAp?$AAi?$AAp?$AAe?$AA?2?$AAC?$AAo?$AAn?$AAE?$AAm?$AAu?$AAS?$AAr?$AAv?$AA?$CF?$AAu?$AA?$AA@ 00000001401101a0     ConEmuCheck.obj
 0002:000121f8       ??_C@_1M@JLDCNMKN@?$AAS?$AAh?$AAe?$AAl?$AAl?$AA?$AA@ 00000001401101f8     ConEmuCheck.obj
 0002:00012208       ??_7CConEmuCtrl@@6B@       0000000140110208     ConEmuCtrl.obj
 0002:00012288       __real@3ff3333333333333    0000000140110288     ConEmuCtrl.obj
 0002:00012290       ??_C@_1CK@EJJAAFBH@?$AAP?$AAi?$AAc?$AAV?$AAi?$AAe?$AAw?$AA?3?$AAH?$AAa?$AAs?$AAS?$AAl?$AAi?$AAd?$AAe?$AAS?$AAh?$AAo?$AAw?$AA?$AA@ 0000000140110290     ConEmuCtrl.obj
 0002:000122c0       ??_C@_1BC@EAFIBIHC@?$AAT?$AAa?$AAs?$AAk?$AA?$CI?$AA?$CF?$AAi?$AA?$CJ?$AA?$AA@ 00000001401102c0     ConEmuCtrl.obj
 0002:00012328       ??_C@_1DI@NNFHPNFB@?$AAC?$AAr?$AAe?$AAa?$AAt?$AAi?$AAn?$AAg?$AA?5?$AAs?$AAc?$AAr?$AAe?$AAe?$AAn?$AAs?$AAh?$AAo?$AAt?$AA?5?$AAf?$AAa?$AAi?$AAl?$AAe?$AAd?$AA?$CB?$AA?$AA@ 0000000140110328     ConEmuCtrl.obj
 0002:00012360       ??_C@_1EA@JAIECLLO@?$AAW?$AAi?$AAn?$AAd?$AAo?$AAw?$AA?5?$AAo?$AAu?$AAt?$AA?5?$AAo?$AAf?$AA?5?$AAm?$AAo?$AAn?$AAi?$AAt?$AAo?$AAr?$AA?5?$AAr?$AAe?$AAc?$AAt?$AAa?$AAn?$AAg?$AAl?$AAe?$AA?$AA@ 0000000140110360     ConEmuCtrl.obj
 0002:000123a0       ??_C@_1DA@EMFPFDDK@?$AAG?$AAe?$AAt?$AAM?$AAo?$AAn?$AAi?$AAt?$AAo?$AAr?$AAI?$AAn?$AAf?$AAo?$AA?$CI?$AA?$CJ?$AA?5?$AAf?$AAa?$AAi?$AAl?$AAe?$AAd?$AA?$AA@ 00000001401103a0     ConEmuCtrl.obj
 0002:000123d0       ??_C@_1DM@GDOKDPK@?$AAG?$AAe?$AAt?$AAF?$AAo?$AAr?$AAe?$AAg?$AAr?$AAo?$AAu?$AAn?$AAd?$AAW?$AAi?$AAn?$AAd?$AAo?$AAw?$AA?$CI?$AA?$CJ?$AA?5?$AA?$DN?$AA?$DN?$AA?5?$AAN?$AAU?$AAL?$AAL?$AA?$AA@ 00000001401103d0     ConEmuCtrl.obj
 0002:00012410       ??_C@_1BE@JMLIJMCL@?$AA?$FL?$AA?$CF?$AAi?$AA?1?$AA?$CF?$AAi?$AA?$FN?$AA?$CF?$AAs?$AA?$AA@ 0000000140110410     ConEmuCtrl.obj
 0002:00012428       ??_C@_1BG@HLDBCNOL@?$AA?$FL?$AA?$CF?$AAi?$AA?1?$AA?$CG?$AA?$CF?$AAi?$AA?$FN?$AA?$CF?$AAs?$AA?$AA@ 0000000140110428     ConEmuCtrl.obj
 0002:00012440       ??_C@_17BJEOAGBE@?$AA?5?$AAV?$AA?5?$AA?$AA@ 0000000140110440     ConEmuCtrl.obj
 0002:00012448       ??_C@_17JMAMHGCB@?$AA?5?$AAE?$AA?5?$AA?$AA@ 0000000140110448     ConEmuCtrl.obj
 0002:00012450       ??_C@_17GFKOMLKO@?$AA?5?$AA?$CK?$AA?5?$AA?$AA@ 0000000140110450     ConEmuCtrl.obj
 0002:00012458       ??_C@_17MEDFOIMI@?$AA?5?$AA?5?$AA?5?$AA?$AA@ 0000000140110458     ConEmuCtrl.obj
 0002:00012460       ??_C@_1DC@PFNEMDKA@?$AA?2?$AA?2?$AA?$CF?$AAs?$AA?2?$AAp?$AAi?$AAp?$AAe?$AA?2?$AAC?$AAo?$AAn?$AAE?$AAm?$AAu?$AAP?$AAl?$AAu?$AAg?$AAi?$AAn?$AA?$CF?$AAu?$AA?$AA@ 0000000140110460     ConEmuPipe.obj
 0002:00012498       ??_C@_1DC@IBOFCEEC@?$AAI?$AAn?$AAv?$AAa?$AAl?$AAi?$AAd?$AA?5?$AAc?$AAo?$AAm?$AAm?$AAa?$AAn?$AAd?$AA?5?$AAi?$AAd?$AA?5?$AA?$CI?$AA?$CF?$AAi?$AA?$CJ?$AA?$CB?$AA?$AA@ 0000000140110498     ConEmuPipe.obj
 0002:000124d0       ??_C@_1EA@BGHNCKAH@?$AAE?$AAm?$AAp?$AAt?$AAy?$AA?5?$AAd?$AAa?$AAt?$AAa?$AA?5?$AAr?$AAe?$AAc?$AAi?$AAe?$AAv?$AAe?$AAd?$AA?5?$AAf?$AAr?$AAo?$AAm?$AA?5?$AAs?$AAe?$AAr?$AAv?$AAe?$AAr?$AA?$AA@ 00000001401104d0     ConEmuPipe.obj
 0002:00012510       ??_C@_1HI@ICHKHBKP@?$AAP?$AAi?$AAp?$AAe?$AA?3?$AA?5?$AAT?$AAr?$AAa?$AAn?$AAs?$AAa?$AAc?$AAt?$AAN?$AAa?$AAm?$AAe?$AAd?$AAP?$AAi?$AAp?$AAe?$AA?5?$AAf?$AAa?$AAi?$AAl?$AAe?$AAd?$AA?0?$AA?5@ 0000000140110510     ConEmuPipe.obj
 0002:00012590       ??_C@_1GE@GJELALIG@?$AAP?$AAi?$AAp?$AAe?$AA?3?$AA?5?$AAC?$AAa?$AAn?$AA?8?$AAt?$AA?5?$AAa?$AAl?$AAl?$AAo?$AAc?$AAa?$AAt?$AAe?$AA?5?$AAm?$AAe?$AAm?$AAo?$AAr?$AAy?$AA?5?$AA?$CI?$AA?$CF?$AAi?$AA?$CJ@ 0000000140110590     ConEmuPipe.obj
 0002:00012620       ??_C@_1JO@NEPKEHEN@?$AA?$AN?$AA?6?$AAP?$AAr?$AAe?$AAs?$AAs?$AA?5?$AAb?$AAu?$AAt?$AAt?$AAo?$AAn?$AA?5?$AA?$DM?$AAN?$AAo?$AA?$DO?$AA?5?$AAt?$AAo?$AA?5?$AAc?$AAl?$AAo?$AAs?$AAe?$AA?5?$AAa?$AAc?$AAt@ 0000000140110620     ConfirmDlg.obj
 0002:000126c0       ??_C@_1DK@FHJLFDDK@?$AAU?$AAn?$AAs?$AAa?$AAv?$AAe?$AAd?$AA?5?$AAe?$AAd?$AAi?$AAt?$AAo?$AAr?$AA?5?$AAw?$AAi?$AAn?$AAd?$AAo?$AAw?$AAs?$AA?3?$AA?5?$AA?$CF?$AAi?$AA?$AN?$AA?6?$AA?$AA@ 00000001401106c0     ConfirmDlg.obj
 0002:00012700       ??_C@_1DI@HIABAENC@?$AAI?$AAn?$AAc?$AAo?$AAm?$AAp?$AAl?$AAe?$AAt?$AAe?$AA?5?$AAo?$AAp?$AAe?$AAr?$AAa?$AAt?$AAi?$AAo?$AAn?$AAs?$AA?3?$AA?5?$AA?$CF?$AAi?$AA?$AN?$AA?6?$AA?$AA@ 0000000140110700     ConfirmDlg.obj
 0002:00012738       ??_C@_1DO@GCAAGIJJ@?$AAA?$AAb?$AAo?$AAu?$AAt?$AA?5?$AAt?$AAo?$AA?5?$AAc?$AAl?$AAo?$AAs?$AAe?$AA?5?$AA?$CF?$AAu?$AA?5?$AAc?$AAo?$AAn?$AAs?$AAo?$AAl?$AAe?$AA?$CF?$AAs?$AA?4?$AA?$AN?$AA?6?$AA?$AA@ 0000000140110738     ConfirmDlg.obj
 0002:00012778       ??_C@_0BD@MLKENMFK@TaskDialogIndirect?$AA@ 0000000140110778     ConfirmDlg.obj
 0002:00012790       ??_C@_1BK@JKBHGHPP@?$AAc?$AAo?$AAm?$AAc?$AAt?$AAl?$AA3?$AA2?$AA?4?$AAd?$AAl?$AAl?$AA?$AA@ 0000000140110790     ConfirmDlg.obj
 0002:000127b0       ??_C@_1DI@DEOOFDAL@?$AAC?$AAa?$AAn?$AAc?$AAe?$AAl?$AA?6?$AAD?$AAo?$AAn?$AA?8?$AAt?$AA?5?$AAc?$AAl?$AAo?$AAs?$AAe?$AA?5?$AAa?$AAn?$AAy?$AAt?$AAh?$AAi?$AAn?$AAg?$AA?$AA@ 00000001401107b0     ConfirmDlg.obj
 0002:000127e8       ??_C@_1O@NLMLIJDO@?$AA?6?$AA?$CD?$AA?$CF?$AAu?$AA?3?$AA?5?$AA?$AA@ 00000001401107e8     ConfirmDlg.obj
 0002:000127f8       ??_C@_1DE@PDHKCLIG@?$AAC?$AAl?$AAo?$AAs?$AAe?$AA?5?$AAa?$AAc?$AAt?$AAi?$AAv?$AAe?$AA?5?$AAc?$AAo?$AAn?$AAs?$AAo?$AAl?$AAe?$AA?5?$AAo?$AAn?$AAl?$AAy?$AA?$AA@ 00000001401107f8     ConfirmDlg.obj
 0002:00012830       ??_C@_1DI@FLAMMCLF@?$AA?6?$AAU?$AAn?$AAs?$AAa?$AAv?$AAe?$AAd?$AA?5?$AAe?$AAd?$AAi?$AAt?$AAo?$AAr?$AA?5?$AAw?$AAi?$AAn?$AAd?$AAo?$AAw?$AAs?$AA?3?$AA?5?$AA?$CF?$AAi?$AA?$AA@ 0000000140110830     ConfirmDlg.obj
 0002:00012868       ??_C@_1DG@IPHJFCFF@?$AA?6?$AAI?$AAn?$AAc?$AAo?$AAm?$AAp?$AAl?$AAe?$AAt?$AAe?$AA?5?$AAo?$AAp?$AAe?$AAr?$AAa?$AAt?$AAi?$AAo?$AAn?$AAs?$AA?3?$AA?5?$AA?$CF?$AAi?$AA?$AA@ 0000000140110868     ConfirmDlg.obj
 0002:000128a0       ??_C@_1DA@JMNNGODI@?$AAC?$AAl?$AAo?$AAs?$AAe?$AA?5?$AAa?$AAl?$AAl?$AA?5?$AA?$CF?$AAu?$AA?5?$AAc?$AAo?$AAn?$AAs?$AAo?$AAl?$AAe?$AA?$CF?$AAs?$AA?4?$AA?$AA@ 00000001401108a0     ConfirmDlg.obj
 0002:000128d0       ??_C@_1CK@PNMCDDPF@?$AAC?$AAl?$AAo?$AAs?$AAe?$AA?5?$AA?$CI?$AA?$CF?$AAu?$AA?5?$AAc?$AAo?$AAn?$AAs?$AAo?$AAl?$AAe?$AA?$CF?$AAs?$AA?$CJ?$AA?$AA@ 00000001401108d0     ConfirmDlg.obj
 0002:00012900       ??_C@_1DG@BHNOIKBC@?$AAC?$AAl?$AAo?$AAs?$AAe?$AA?5?$AAg?$AAr?$AAo?$AAu?$AAp?$AA?5?$AA?$CI?$AA?$CF?$AAu?$AA?5?$AAc?$AAo?$AAn?$AAs?$AAo?$AAl?$AAe?$AA?$CF?$AAs?$AA?$CJ?$AA?$AA@ 0000000140110900     ConfirmDlg.obj
 0002:00012938       ??_C@_19CDHEALNP@?$AAY?$AAe?$AAs?$AA?6?$AA?$AA@ 0000000140110938     ConfirmDlg.obj
 0002:00012948       ??_C@_1CI@OMPNBNHD@?$AA?$DM?$AAa?$AA?5?$AAh?$AAr?$AAe?$AAf?$AA?$DN?$AA?$CC?$AA?$CF?$AAs?$AA?$CC?$AA?$DO?$AA?$CF?$AAs?$AA?$DM?$AA?1?$AAa?$AA?$DO?$AA?$AA@ 0000000140110948     ConfirmDlg.obj
 0002:00012970       ??_C@_1CC@CFMIMEGN@?$AAC?$AAo?$AAn?$AAf?$AAi?$AAr?$AAm?$AA?5?$AAc?$AAl?$AAo?$AAs?$AAi?$AAn?$AAg?$AA?$DP?$AA?$AA@ 0000000140110970     ConfirmDlg.obj
 0002:00012998       ??_C@_1CC@EKCNOACB@?$AAC?$AAo?$AAn?$AAf?$AAi?$AAr?$AAm?$AA?5?$AAk?$AAi?$AAl?$AAl?$AAi?$AAn?$AAg?$AA?$DP?$AA?$AA@ 0000000140110998     ConfirmDlg.obj
 0002:000129bc       ??_C@_13KHDBCPJB@?$AAs?$AA?$AA@ 00000001401109bc     ConfirmDlg.obj
 0002:000129c0       ??_7CustomFont@@6B@        00000001401109c0     CustomFonts.obj
 0002:00012a18       ??_C@_05MIGFPFHF@FONT?5?$AA@ 0000000140110a18     CustomFonts.obj
 0002:00012a20       ??_C@_0O@GBPKPBJG@FAMILY_NAME?5?$CC?$AA@ 0000000140110a20     CustomFonts.obj
 0002:00012a30       ??_C@_1GO@FCOFDJDK@?$AAS?$AAu?$AAr?$AAf?$AAa?$AAc?$AAe?$AA?5?$AAc?$AAr?$AAe?$AAa?$AAt?$AAe?$AAd?$AA?5?$AAB?$AAM?$AAP?$AA?$CI?$AA?$CF?$AAi?$AA?0?$AA?$CF?$AAi?$AA?0?$AAC?$AAo?$AAm?$AAp?$AAa?$AAt@ 0000000140110a30     CustomFonts.obj
 0002:00012aa0       ??_C@_1KA@JBFPOBKF@?$AAW?$AAa?$AAr?$AAn?$AAi?$AAn?$AAg?$AA?$CB?$AA?5?$AAC?$AAo?$AAl?$AAo?$AAr?$AA?5?$AAd?$AAe?$AAp?$AAt?$AAh?$AA?5?$AAo?$AAf?$AA?5?$AAy?$AAo?$AAu?$AAr?$AA?5?$AAd?$AAi?$AAs@ 0000000140110aa0     CustomFonts.obj
 0002:00012b40       ??_C@_1EI@LAPCLNKI@?$AAS?$AAu?$AAr?$AAf?$AAa?$AAc?$AAe?$AA?5?$AAc?$AAr?$AAe?$AAa?$AAt?$AAe?$AAd?$AA?5?$AAD?$AAI?$AAB?$AA?$CI?$AA?$CF?$AAi?$AA?0?$AA?$CF?$AAi?$AA?0?$AA?$CF?$AAi?$AA?$CJ?$AA?$DN?$AAx?$AA?$CF@ 0000000140110b40     CustomFonts.obj
 0002:00012b90       ??_C@_1FI@FJFFMIHO@?$AA?$CI?$AAh?$AAD?$AAC?$AA?$CB?$AA?$DN?$AAN?$AAU?$AAL?$AAL?$AA?$CJ?$AA?5?$AA?$CG?$AA?$CG?$AA?5?$AA?$CC?$AAC?$AAr?$AAe?$AAa?$AAt?$AAe?$AAC?$AAo?$AAm?$AAp?$AAa?$AAt?$AAi?$AAb?$AAl?$AAe@ 0000000140110b90     CustomFonts.obj
 0002:00012be8       ??_C@_1CA@GKEDPPCE@?$AAC?$AAu?$AAs?$AAt?$AAo?$AAm?$AAF?$AAo?$AAn?$AAt?$AAs?$AA?4?$AAc?$AAp?$AAp?$AA?$AA@ 0000000140110be8     CustomFonts.obj
 0002:00012c10       ??_7BDFFont@@6B@           0000000140110c10     CustomFonts.obj
 0002:00012c90       ??_C@_06PGFOEMDN@BITMAP?$AA@ 0000000140110c90     CustomFonts.obj
 0002:00012c98       ??_C@_03OONKDOKH@BBX?$AA@  0000000140110c98     CustomFonts.obj
 0002:00012ca0       ??_C@_08LEFKDKKN@ENCODING?$AA@ 0000000140110ca0     CustomFonts.obj
 0002:00012cb0       ??_C@_0BA@PIDAKDPC@FONTBOUNDINGBOX?$AA@ 0000000140110cb0     CustomFonts.obj
 0002:00012cc0       ??_C@_08EPMDDEMF@?$CCnormal?$CC?$AA@ 0000000140110cc0     CustomFonts.obj
 0002:00012cd0       ??_C@_09CLOCBPMF@?$CCregular?$CC?$AA@ 0000000140110cd0     CustomFonts.obj
 0002:00012ce0       ??_C@_08JLIKIBNB@?$CCmedium?$CC?$AA@ 0000000140110ce0     CustomFonts.obj
 0002:00012cf0       ??_C@_0M@FCJHKPGH@WEIGHT_NAME?$AA@ 0000000140110cf0     CustomFonts.obj
 0002:00012d00       ??_C@_1CG@FKNHJCOB@?$AA?$CC?$AA?$CF?$AAs?$AA?2?$AA?$CF?$AAs?$AA?$CC?$AA?5?$AA?1?$AAD?$AAE?$AAF?$AAT?$AAR?$AAM?$AA?$DN?$AA?$CF?$AAu?$AA?$AA@ 0000000140110d00     DefaultTerm.obj
 0002:00012d28       ??_C@_1CM@GFJGOPP@?$AAC?$AAo?$AAn?$AAE?$AAm?$AAu?$AAD?$AAe?$AAf?$AAa?$AAu?$AAl?$AAt?$AAT?$AAe?$AAr?$AAm?$AAi?$AAn?$AAa?$AAl?$AA?$AA@ 0000000140110d28     DefaultTerm.obj
 0002:00012d60       ??_C@_1FM@OEMODDEO@?$AAS?$AAo?$AAf?$AAt?$AAw?$AAa?$AAr?$AAe?$AA?2?$AAM?$AAi?$AAc?$AAr?$AAo?$AAs?$AAo?$AAf?$AAt?$AA?2?$AAW?$AAi?$AAn?$AAd?$AAo?$AAw?$AAs?$AA?2?$AAC?$AAu?$AAr?$AAr?$AAe@ 0000000140110d60     DefaultTerm.obj
 0002:00012dc0       ??_C@_1JI@EHANAHGI@?$AAF?$AAa?$AAi?$AAl?$AAe?$AAd?$AA?5?$AAt?$AAo?$AA?5?$AAo?$AAp?$AAe?$AAn?$AA?5?$AAH?$AAK?$AAC?$AAU?$AA?2?$AAS?$AAo?$AAf?$AAt?$AAw?$AAa?$AAr?$AAe?$AA?2?$AAM?$AAi?$AAc@ 0000000140110dc0     DefaultTerm.obj
 0002:00012e60       ??_C@_1MK@PBGJEDME@?$AAF?$AAa?$AAi?$AAl?$AAe?$AAd?$AA?5?$AAt?$AAo?$AA?5?$AAr?$AAe?$AAm?$AAo?$AAv?$AAe?$AA?5?$AAC?$AAo?$AAn?$AAE?$AAm?$AAu?$AAD?$AAe?$AAf?$AAa?$AAu?$AAl?$AAt?$AAT?$AAe@ 0000000140110e60     DefaultTerm.obj
 0002:00012f30       ??_C@_1MA@POIDPMIA@?$AAF?$AAa?$AAi?$AAl?$AAe?$AAd?$AA?5?$AAt?$AAo?$AA?5?$AAs?$AAe?$AAt?$AA?5?$AAC?$AAo?$AAn?$AAE?$AAm?$AAu?$AAD?$AAe?$AAf?$AAa?$AAu?$AAl?$AAt?$AAT?$AAe?$AAr?$AAm?$AAi@ 0000000140110f30     DefaultTerm.obj
 0002:00012ff0       ??_C@_1EK@LGDCDADG@?$AA?$CC?$AA?$CF?$AAs?$AA?$CC?$AA?5?$AA?1?$AAS?$AAe?$AAt?$AAD?$AAe?$AAf?$AAT?$AAe?$AAr?$AAm?$AA?5?$AA?1?$AAD?$AAe?$AAt?$AAa?$AAc?$AAh?$AAe?$AAd?$AA?5?$AA?1?$AAM?$AAi?$AAn?$AAT@ 0000000140110ff0     DefaultTerm.obj
 0002:00013040       ??_C@_1O@EFAFJFPB@?$AA?5?$AA?1?$AAE?$AAx?$AAi?$AAt?$AA?$AA@ 0000000140111040     DefaultTerm.obj
 0002:00013080       ??_C@_1KK@MIPDLOGK@?$AAF?$AAa?$AAi?$AAl?$AAe?$AAd?$AA?5?$AAt?$AAo?$AA?5?$AAs?$AAt?$AAa?$AAr?$AAt?$AA?5?$AAh?$AAo?$AAo?$AAk?$AAi?$AAn?$AAg?$AA?5?$AAa?$AAp?$AAp?$AAl?$AAi?$AAc?$AAa?$AAt@ 0000000140111080     DefaultTerm.obj
 0002:00013130       ??_C@_1KK@MPHAKPGE@?$AAD?$AAe?$AAf?$AAa?$AAu?$AAl?$AAt?$AA?5?$AAt?$AAe?$AAr?$AAm?$AAi?$AAn?$AAa?$AAl?$AA?5?$AAf?$AAe?$AAa?$AAt?$AAu?$AAr?$AAe?$AA?5?$AAw?$AAa?$AAs?$AA?5?$AAb?$AAl?$AAo@ 0000000140111130     DefaultTerm.obj
 0002:000131e0       ??_C@_1EE@DHIMAJGC@?$AAF?$AAa?$AAi?$AAl?$AAe?$AAd?$AA?5?$AAt?$AAo?$AA?5?$AAs?$AAt?$AAa?$AAr?$AAt?$AA?5?$AAP?$AAo?$AAs?$AAt?$AAC?$AAr?$AAe?$AAa?$AAt?$AAe?$AAd?$AAT?$AAh?$AAr?$AAe?$AAa@ 00000001401111e0     DefaultTerm.obj
 0002:00013230       ??_C@_1GC@MPJFGBA@?$AAP?$AAo?$AAs?$AAt?$AAC?$AAr?$AAe?$AAa?$AAt?$AAe?$AAd?$AAT?$AAh?$AAr?$AAe?$AAa?$AAd?$AA?5?$AAw?$AAa?$AAs?$AA?5?$AAn?$AAo?$AAt?$AA?5?$AAf?$AAi?$AAn?$AAi?$AAs?$AAh@ 0000000140111230     DefaultTerm.obj
 0002:000132a0       ??_C@_1HG@JJDDAECE@?$AAP?$AAr?$AAe?$AAv?$AAi?$AAo?$AAu?$AAs?$AA?5?$AAD?$AAe?$AAf?$AAa?$AAu?$AAl?$AAt?$AA?5?$AAT?$AAe?$AAr?$AAm?$AAi?$AAn?$AAa?$AAl?$AA?5?$AAs?$AAe?$AAt?$AAu?$AAp?$AA?5@ 00000001401112a0     DefaultTerm.obj
 0002:00013320       ??_C@_1EI@OBDOIPID@?$AAC?$AAa?$AAn?$AA?8?$AAt?$AA?5?$AAd?$AAr?$AAo?$AAp?$AA?5?$AAf?$AAi?$AAl?$AAe?$AA?$CB?$AA?5?$AAF?$AAi?$AAl?$AAe?$AAn?$AAa?$AAm?$AAe?$AA?5?$AAi?$AAs?$AA?5?$AAe?$AAm?$AAp@ 0000000140111320     DragDrop.obj
 0002:00013370       ??_C@_1KG@IJBKKKAF@?$AAF?$AAi?$AAl?$AAe?$AA?5?$AAa?$AAl?$AAr?$AAe?$AAa?$AAd?$AAy?$AA?5?$AAe?$AAx?$AAi?$AAs?$AAt?$AAs?$AA?$CB?$AA?6?$AA?6?$AA?$CF?$AAs?$AA?6?$AAS?$AAi?$AAz?$AAe?$AA?3?$AA?5?$AA?$CF@ 0000000140111370     DragDrop.obj
 0002:00013420       ??_C@_1FK@JPDKGPEM@?$AAC?$AAa?$AAn?$AA?8?$AAt?$AA?5?$AAc?$AAr?$AAe?$AAa?$AAt?$AAe?$AA?5?$AAf?$AAi?$AAl?$AAe?$AA?$CB?$AA?5?$AAS?$AAa?$AAm?$AAe?$AA?5?$AAn?$AAa?$AAm?$AAe?$AA?5?$AAf?$AAo?$AAl@ 0000000140111420     DragDrop.obj
 0002:00013480       ??_C@_1GA@LHPGIMML@?$AAC?$AAa?$AAn?$AA?8?$AAt?$AA?5?$AAc?$AAr?$AAe?$AAa?$AAt?$AAe?$AA?5?$AAd?$AAi?$AAr?$AAe?$AAc?$AAt?$AAo?$AAr?$AAy?$AA?$CB?$AA?5?$AAS?$AAa?$AAm?$AAe?$AA?5?$AAn?$AAa?$AAm@ 0000000140111480     DragDrop.obj
 0002:000134e0       ??_C@_1GG@BBCMFPAA@?$AA?$CI?$AAn?$AAT?$AAo?$AAt?$AAa?$AAl?$AA?5?$AA?$DO?$AA?5?$AA0?$AA?$CJ?$AA?5?$AA?$CG?$AA?$CG?$AA?5?$AA?$CI?$AAp?$AAs?$AAz?$AAF?$AAu?$AAl?$AAl?$AAN?$AAa?$AAm?$AAe?$AA?$FL?$AAn?$AAT?$AAo@ 00000001401114e0     DragDrop.obj
 0002:00013548       ??_C@_1BK@CDLDDGNG@?$AAD?$AAr?$AAa?$AAg?$AAD?$AAr?$AAo?$AAp?$AA?4?$AAc?$AAp?$AAp?$AA?$AA@ 0000000140111548     DragDrop.obj
 0002:00013568       ??_C@_17DLOIEBPL@?$AAU?$AAN?$AAC?$AA?$AA@ 0000000140111568     DragDrop.obj
 0002:00013570       ??_C@_1FG@BNEMCNOC@?$AAC?$AAa?$AAn?$AA?8?$AAt?$AA?5?$AAd?$AAr?$AAo?$AAp?$AA?5?$AAf?$AAi?$AAl?$AAe?$AA?$CB?$AA?5?$AAM?$AAe?$AAm?$AAo?$AAr?$AAy?$AA?5?$AAa?$AAl?$AAl?$AAo?$AAc?$AAa?$AAt?$AAi@ 0000000140111570     DragDrop.obj
 0002:000135d0       ??_C@_1FA@CIMPPJKB@?$AAC?$AAa?$AAn?$AA?8?$AAt?$AA?5?$AAd?$AAr?$AAo?$AAp?$AA?5?$AAf?$AAi?$AAl?$AAe?$AA?$CB?$AA?5?$AAF?$AAi?$AAl?$AAe?$AAn?$AAa?$AAm?$AAe?$AA?5?$AAi?$AAs?$AA?5?$AAe?$AAm?$AAp@ 00000001401115d0     DragDrop.obj
 0002:00013620       ??_C@_1CI@FGNPMGFE@?$AAC?$AAa?$AAn?$AA?8?$AAt?$AA?5?$AAc?$AAr?$AAe?$AAa?$AAt?$AAe?$AA?5?$AAf?$AAi?$AAl?$AAe?$AA?$CB?$AA?6?$AA?$AA@ 0000000140111620     DragDrop.obj
 0002:00013648       ??_C@_1DA@LBDEDCJH@?$AAC?$AAo?$AAp?$AAy?$AAi?$AAn?$AAg?$AA?5?$AA?$CF?$AAi?$AA?5?$AAo?$AAf?$AA?5?$AA?$CF?$AAi?$AA?5?$AA?$CI?$AA?$CF?$AAu?$AA?$CF?$AAc?$AA?$CJ?$AA?$AA@ 0000000140111648     DragDrop.obj
 0002:000136a0       ??_C@_1CI@PGKDLIPH@?$AAD?$AAn?$AAD?$AA?3?$AA?5?$AAN?$AAo?$AA?5?$AAA?$AAc?$AAt?$AAi?$AAv?$AAe?$AA?5?$AAV?$AAC?$AAo?$AAn?$AA?$AA@ 00000001401116a0     DragDrop.obj
 0002:000136c8       ??_C@_1CG@MLFIOKII@?$AAD?$AAn?$AAD?$AA?3?$AA?5?$AAD?$AAr?$AAo?$AAp?$AA?5?$AAd?$AAi?$AAs?$AAa?$AAb?$AAl?$AAe?$AAd?$AA?$AA@ 00000001401116c8     DragDrop.obj
 0002:00013718       ??_C@_17LBOLAHJL@?$AAt?$AAx?$AAt?$AA?$AA@ 0000000140111718     DragDrop.obj
 0002:00013720       ??_C@_1DI@NABEEPGA@?$AAC?$AAr?$AAe?$AAa?$AAt?$AAe?$AA?5?$AAD?$AAr?$AAa?$AAg?$AA?5?$AAa?$AAn?$AAd?$AA?5?$AAD?$AAr?$AAo?$AAp?$AA?5?$AAr?$AAe?$AAp?$AAo?$AAr?$AAt?$AA?$AA@ 0000000140111720     DragDrop.obj
 0002:00013758       ??_C@_1DA@MKKOPKMM@?$AAR?$AAe?$AAp?$AAo?$AAr?$AAt?$AAs?$AA?5?$AA?$CI?$AA?$CK?$AA?4?$AAt?$AAx?$AAt?$AA?$CJ?$AA?$AA?$AA?$CK?$AA?4?$AAt?$AAx?$AAt?$AA?$AA?$AA?$AA?$AA?$AA@ 0000000140111758     DragDrop.obj
 0002:00013790       ??_C@_1FO@ODLLKNFE@?$AA?6?$AA?6?$AAP?$AAr?$AAe?$AAs?$AAs?$AA?5?$AA?8?$AAR?$AAe?$AAt?$AAr?$AAy?$AA?8?$AA?5?$AAt?$AAo?$AA?5?$AAc?$AAr?$AAe?$AAa?$AAt?$AAe?$AA?5?$AAr?$AAe?$AAp?$AAo?$AAr?$AAt@ 0000000140111790     DragDrop.obj
 0002:00013820       ??_C@_1EM@HKBBPHGA@?$AAD?$AAr?$AAo?$AAp?$AA?5?$AAo?$AAp?$AAe?$AAr?$AAa?$AAt?$AAi?$AAo?$AAn?$AA?5?$AAi?$AAs?$AA?5?$AAt?$AAo?$AAo?$AA?5?$AAl?$AAo?$AAn?$AAg?$AA?4?$AA?5?$AAC?$AAo?$AAn?$AAt@ 0000000140111820     DragDrop.obj
 0002:00013870       ??_C@_1M@HDBFLJFN@?$AAv?$AAi?$AAe?$AAw?$AA?3?$AA?$AA@ 0000000140111870     DragDrop.obj
 0002:00013880       ??_C@_1M@CMFGGKAA@?$AAe?$AAd?$AAi?$AAt?$AA?3?$AA?$AA@ 0000000140111880     DragDrop.obj
 0002:00013890       ??_C@_1M@LGCCNJMK@?$AAg?$AAo?$AAt?$AAo?$AA?3?$AA?$AA@ 0000000140111890     DragDrop.obj
 0002:0001389c       ??_C@_15DPEKPBGF@?$AA?2?$AA?$CC?$AA?$AA@ 000000014011189c     DragDrop.obj
 0002:000138a8       ??_C@_1BE@GEEPJPJK@?$AA?5?$AA?5?$AA?5?$AA?5?$AA?5?$AA?5?$AA?5?$AA?5?$AA?5?$AA?$AA@ 00000001401118a8     DragDrop.obj
 0002:000138c0       ??_C@_1O@LNALLFHA@?$AA$?$AAT?$AAe?$AAx?$AAt?$AA?5?$AA?$AA@ 00000001401118c0     DragDrop.obj
 0002:000138d0       ??_C@_1BK@FMPLNBEF@?$AA?$CG?$AAV?$AAi?$AAe?$AAw?$AA?5?$AAp?$AAr?$AAe?$AAf?$AAi?$AAx?$AA?$AA@ 00000001401118d0     DragDrop.obj
 0002:000138f0       ??_C@_1BK@LAPEDGBJ@?$AA?$CG?$AAE?$AAd?$AAi?$AAt?$AA?5?$AAp?$AAr?$AAe?$AAf?$AAi?$AAx?$AA?$AA@ 00000001401118f0     DragDrop.obj
 0002:00013910       ??_C@_1BK@GMBHPDKI@?$AA?$CG?$AAG?$AAo?$AAt?$AAo?$AA?5?$AAp?$AAr?$AAe?$AAf?$AAi?$AAx?$AA?$AA@ 0000000140111910     DragDrop.obj
 0002:00013930       ??_C@_1CC@IJMLICP@?$AAP?$AAa?$AAs?$AAt?$AAe?$AA?5?$AA?$CG?$AAn?$AAo?$AA?5?$AAp?$AAr?$AAe?$AAf?$AAi?$AAx?$AA?$AA@ 0000000140111930     DragDrop.obj
 0002:00013980       ??_C@_1CG@GMBFLOLC@?$AAC?$AAa?$AAn?$AA?8?$AAt?$AA?5?$AAc?$AAr?$AAe?$AAa?$AAt?$AAe?$AA?5?$AAl?$AAi?$AAn?$AAk?$AA?$CB?$AA?$AA@ 0000000140111980     DragDrop.obj
 0002:000139d0       ??_C@_1CO@OMHANBDG@?$AAS?$AAh?$AAe?$AAl?$AAl?$AA?5?$AAo?$AAp?$AAe?$AAr?$AAa?$AAt?$AAi?$AAo?$AAn?$AA?5?$AAf?$AAa?$AAi?$AAl?$AAe?$AAd?$AA?$AA@ 00000001401119d0     DragDrop.obj
 0002:00013a00       ??_C@_1DM@PGKJNILA@?$AAS?$AAh?$AAe?$AAl?$AAl?$AA?5?$AAo?$AAp?$AAe?$AAr?$AAa?$AAt?$AAi?$AAo?$AAn?$AA?5?$AAw?$AAa?$AAs?$AA?5?$AAc?$AAa?$AAn?$AAc?$AAe?$AAl?$AAl?$AAe?$AAd?$AA?$AA@ 0000000140111a00     DragDrop.obj
 0002:00013a70       ??_7CDragDrop@@6B@         0000000140111a70     DragDrop.obj
 0002:00013ae0       ??_C@_1LK@PDHKBMEP@?$AAN?$AAo?$AAt?$AA?5?$AAa?$AAl?$AAl?$AA?5?$AAs?$AAh?$AAe?$AAl?$AAl?$AA?5?$AAo?$AAp?$AAe?$AAr?$AAa?$AAt?$AAi?$AAo?$AAn?$AAs?$AA?5?$AAw?$AAa?$AAs?$AA?5?$AAf?$AAi?$AAn@ 0000000140111ae0     DragDrop.obj
 0002:00013ba0       ??_C@_1CG@GFEGPAGH@?$AAD?$AAn?$AAD?$AA?3?$AA?5?$AAD?$AAr?$AAa?$AAg?$AA?5?$AAd?$AAi?$AAs?$AAa?$AAb?$AAl?$AAe?$AAd?$AA?$AA@ 0000000140111ba0     DragDrop.obj
 0002:00013bc8       ??_C@_1DE@IJDPNHEN@?$AAD?$AAn?$AAD?$AA?3?$AA?5?$AAA?$AAl?$AAr?$AAe?$AAa?$AAd?$AAy?$AA?5?$AAi?$AAn?$AA?5?$AAD?$AAr?$AAa?$AAg?$AA?5?$AAl?$AAo?$AAo?$AAp?$AA?$AA@ 0000000140111bc8     DragDrop.obj
 0002:00013c00       ??_C@_1BA@LBKEDGFK@?$AA?5?$AA?$CI?$AAS?$AA_?$AAO?$AAK?$AA?$CJ?$AA?$AA@ 0000000140111c00     DragDrop.obj
 0002:00013c10       ??_C@_1CG@FHEEENIF@?$AA?5?$AA?$CI?$AAD?$AAR?$AAA?$AAG?$AAD?$AAR?$AAO?$AAP?$AA_?$AAS?$AA_?$AAD?$AAR?$AAO?$AAP?$AA?$CJ?$AA?$AA@ 0000000140111c10     DragDrop.obj
 0002:00013c38       ??_C@_1CK@FBCNBONN@?$AA?5?$AA?$CI?$AAD?$AAR?$AAA?$AAG?$AAD?$AAR?$AAO?$AAP?$AA_?$AAS?$AA_?$AAC?$AAA?$AAN?$AAC?$AAE?$AAL?$AA?$CJ?$AA?$AA@ 0000000140111c38     DragDrop.obj
 0002:00013c70       ??_C@_1EC@FNNPDDMO@?$AAD?$AAo?$AAD?$AAr?$AAa?$AAg?$AAD?$AAr?$AAo?$AAp?$AA?5?$AAf?$AAi?$AAn?$AAi?$AAs?$AAh?$AAe?$AAd?$AA?0?$AA?5?$AAC?$AAo?$AAd?$AAe?$AA?$DN?$AA0?$AAx?$AA?$CF?$AA0?$AA8?$AAX@ 0000000140111c70     DragDrop.obj
 0002:00013cc0       ??_C@_1GM@NKBICLGJ@?$AAE?$AAx?$AAc?$AAe?$AAp?$AAt?$AAi?$AAo?$AAn?$AA?5?$AAi?$AAn?$AA?5?$AAD?$AAo?$AAD?$AAr?$AAa?$AAg?$AAD?$AAr?$AAo?$AAp?$AA?6?$AAC?$AAo?$AAn?$AAE?$AAm?$AAu?$AA?5?$AAr@ 0000000140111cc0     DragDrop.obj
 0002:00013d30       ??_C@_1HG@OJHAGIOB@?$AAD?$AAo?$AAD?$AAr?$AAa?$AAg?$AAD?$AAr?$AAo?$AAp?$AA?$CI?$AAE?$AAf?$AAf?$AA?$DN?$AA0?$AAx?$AA?$CF?$AAX?$AA?0?$AA?5?$AAD?$AAa?$AAt?$AAa?$AAO?$AAb?$AAj?$AAe?$AAc?$AAt?$AA?$DN@ 0000000140111d30     DragDrop.obj
 0002:00013db0       ??_C@_1HO@NINJFIOF@?$AAC?$AAa?$AAn?$AA?8?$AAt?$AA?5?$AAc?$AAr?$AAe?$AAa?$AAt?$AAe?$AA?5?$AAd?$AAi?$AAr?$AAe?$AAc?$AAt?$AAo?$AAr?$AAy?$AA?5?$AAf?$AAo?$AAr?$AA?5?$AAd?$AAr?$AAa?$AAg?$AA?5@ 0000000140111db0     DragDrop.obj
 0002:00013e30       ??_C@_1FM@DIEBKECP@?$AAD?$AAr?$AAa?$AAg?$AA?5?$AAi?$AAt?$AAe?$AAm?$AA?5?$AA?$CD?$AA?$CF?$AAi?$AA?5?$AAd?$AAo?$AAe?$AAs?$AA?5?$AAn?$AAo?$AAt?$AA?5?$AAc?$AAo?$AAn?$AAt?$AAa?$AAi?$AAn?$AAs?$AA?5@ 0000000140111e30     DragDrop.obj
 0002:00013e90       ??_C@_1CG@MAAJANDL@?$AAC?$AAa?$AAn?$AA?8?$AAt?$AA?5?$AAr?$AAe?$AAa?$AAd?$AA?5?$AAm?$AAe?$AAd?$AAi?$AAu?$AAm?$AA?$CB?$AA?$AA@ 0000000140111e90     DragDrop.obj
 0002:00013ec0       ??_C@_1EK@BLKGOHHJ@?$AAD?$AAr?$AAa?$AAg?$AA?5?$AAi?$AAt?$AAe?$AAm?$AA?5?$AA?$CD?$AA?$CF?$AAi?$AA?5?$AAh?$AAa?$AAs?$AA?5?$AAi?$AAn?$AAv?$AAa?$AAl?$AAi?$AAd?$AA?5?$AAf?$AAi?$AAl?$AAe?$AA?5?$AAn@ 0000000140111ec0     DragDrop.obj
 0002:00013f10       ??_C@_1CG@CEEMOMCH@?$AAp?$AAs?$AAz?$AAN?$AAe?$AAw?$AAF?$AAo?$AAl?$AAd?$AAe?$AAr?$AA?$CB?$AA?$DN?$AAN?$AAU?$AAL?$AAL?$AA?$AA@ 0000000140111f10     DragDrop.obj
 0002:00013f40       ??_C@_1EM@DMKGANAC@?$AAD?$AAr?$AAa?$AAg?$AA?5?$AAi?$AAt?$AAe?$AAm?$AA?5?$AA?$CD?$AA?$CF?$AAi?$AA?5?$AAc?$AAo?$AAn?$AAt?$AAa?$AAi?$AAn?$AAs?$AA?5?$AAt?$AAo?$AAo?$AA?5?$AAl?$AAo?$AAn?$AAg?$AA?5@ 0000000140111f40     DragDrop.obj
 0002:00013f90       ??_C@_1BK@BPLEJIIK@?$AAF?$AAi?$AAl?$AAe?$AAC?$AAo?$AAn?$AAt?$AAe?$AAn?$AAt?$AAs?$AA?$AA@ 0000000140111f90     DragDrop.obj
 0002:00013fb0       ??_C@_1FK@GDIJJJAL@?$AAD?$AAr?$AAa?$AAg?$AA?5?$AAo?$AAb?$AAj?$AAe?$AAc?$AAt?$AA?5?$AAd?$AAo?$AAe?$AAs?$AA?5?$AAn?$AAo?$AAt?$AA?5?$AAc?$AAo?$AAn?$AAt?$AAa?$AAi?$AAn?$AAs?$AA?5?$AAk?$AAn@ 0000000140111fb0     DragDrop.obj
 0002:00014010       ??_C@_1CI@CEGIFMP@?$AAF?$AAi?$AAl?$AAe?$AAG?$AAr?$AAo?$AAu?$AAp?$AAD?$AAe?$AAs?$AAc?$AAr?$AAi?$AAp?$AAt?$AAo?$AAr?$AA?$AA@ 0000000140112010     DragDrop.obj
 0002:00014038       ??_C@_1CK@IHGKIJHD@?$AAF?$AAi?$AAl?$AAe?$AAG?$AAr?$AAo?$AAu?$AAp?$AAD?$AAe?$AAs?$AAc?$AAr?$AAi?$AAp?$AAt?$AAo?$AAr?$AAW?$AA?$AA@ 0000000140112038     DragDrop.obj
 0002:00014090       ??_C@_1MI@KEPFFBII@?$AAD?$AAr?$AAa?$AAg?$AA?5?$AAo?$AAb?$AAj?$AAe?$AAc?$AAt?$AA?5?$AAd?$AAo?$AAe?$AAs?$AA?5?$AAn?$AAo?$AAt?$AA?5?$AAc?$AAo?$AAn?$AAt?$AAa?$AAi?$AAn?$AAs?$AA?5?$AAr?$AAe@ 0000000140112090     DragDrop.obj
 0002:00014160       ??_C@_1EK@KFBDBNMB@?$AAC?$AAa?$AAn?$AA?8?$AAt?$AA?5?$AAc?$AAr?$AAe?$AAa?$AAt?$AAe?$AA?5?$AAs?$AAh?$AAe?$AAl?$AAl?$AA?5?$AAo?$AAp?$AAe?$AAr?$AAa?$AAt?$AAi?$AAo?$AAn?$AA?5?$AAt?$AAh?$AAr@ 0000000140112160     DragDrop.obj
 0002:000141b0       ??_C@_1DM@MOGIJPOE@?$AAD?$AAn?$AAD?$AA?3?$AA?5?$AAS?$AAh?$AAe?$AAl?$AAl?$AA?5?$AAo?$AAp?$AAe?$AAr?$AAa?$AAt?$AAi?$AAo?$AAn?$AA?5?$AAs?$AAt?$AAa?$AAr?$AAt?$AAi?$AAn?$AAg?$AA?$AA@ 00000001401121b0     DragDrop.obj
 0002:000141f0       ??_C@_1M@BLEPENGK@?$AA?$CF?$AAs?$AA?2?$AA?$AA?$AA?$AA?$AA?$AA@ 00000001401121f0     DragDrop.obj
 0002:00014200       ??_C@_1CG@NMAKHBI@?$AAD?$AAn?$AAD?$AA?3?$AA?5?$AAD?$AAr?$AAo?$AAp?$AA?5?$AAs?$AAt?$AAa?$AAr?$AAt?$AAi?$AAn?$AAg?$AA?$AA@ 0000000140112200     DragDrop.obj
 0002:00014228       ??_C@_1BK@BGCKAOHF@?$AAF?$AAi?$AAl?$AAe?$AAN?$AAa?$AAm?$AAe?$AAM?$AAa?$AAp?$AAW?$AA?$AA@ 0000000140112228     DragDrop.obj
 0002:00014248       ??_C@_1DG@EIDOHBIB@?$AAC?$AAa?$AAn?$AA?8?$AAt?$AA?5?$AAr?$AAe?$AAg?$AAi?$AAs?$AAt?$AAe?$AAr?$AA?5?$AAD?$AAr?$AAo?$AAp?$AA?5?$AAt?$AAa?$AAr?$AAg?$AAe?$AAt?$AA?$AA@ 0000000140112248     DragDropData.obj
 0002:00014280       ??_C@_1BE@GKFOCBDP@?$AAF?$AAi?$AAl?$AAe?$AAN?$AAa?$AAm?$AAe?$AAW?$AA?$AA@ 0000000140112280     DragDropData.obj
 0002:00014298       ??_C@_1CG@IIPINHGK@?$AAS?$AAh?$AAe?$AAl?$AAl?$AA?5?$AAI?$AAD?$AAL?$AAi?$AAs?$AAt?$AA?5?$AAA?$AAr?$AAr?$AAa?$AAy?$AA?$AA@ 0000000140112298     DragDropData.obj
 0002:000142c0       ??_C@_1EE@EBFMHKFL@?$AAD?$AAn?$AAD?$AA?3?$AA?5?$AAF?$AAa?$AAi?$AAl?$AAe?$AAd?$AA?5?$AAt?$AAo?$AA?5?$AAc?$AAr?$AAe?$AAa?$AAt?$AAe?$AA?5?$AAS?$AAh?$AAe?$AAl?$AAl?$AAI?$AAd?$AAL?$AAi?$AAs@ 00000001401122c0     DragDropData.obj
 0002:00014308       ??_C@_1DA@JLGLDMIN@?$AAD?$AAn?$AAD?$AA?3?$AA?5?$AAE?$AAx?$AAc?$AAe?$AAp?$AAt?$AAi?$AAo?$AAn?$AA?5?$AAi?$AAn?$AA?5?$AAs?$AAh?$AAe?$AAl?$AAl?$AA?$AA@ 0000000140112308     DragDropData.obj
 0002:00014338       ??_C@_1DE@IMLHPHKA@?$AAD?$AAn?$AAD?$AA?3?$AA?5?$AAC?$AAa?$AAn?$AA?8?$AAt?$AA?5?$AAa?$AAl?$AAl?$AAo?$AAc?$AAa?$AAt?$AAe?$AA?5?$AAC?$AAI?$AAD?$AAA?$AA?$CK?$AA?$AA@ 0000000140112338     DragDropData.obj
 0002:00014370       ??_C@_1CK@BOCFEOCJ@?$AAP?$AAr?$AAe?$AAf?$AAe?$AAr?$AAr?$AAe?$AAd?$AA?5?$AAD?$AAr?$AAo?$AAp?$AAE?$AAf?$AAf?$AAe?$AAc?$AAt?$AA?$AA@ 0000000140112370     DragDropData.obj
 0002:000143a0       ??_C@_1CA@HDKIDFEG@?$AAI?$AAn?$AAS?$AAh?$AAe?$AAl?$AAl?$AAD?$AAr?$AAa?$AAg?$AAL?$AAo?$AAo?$AAp?$AA?$AA@ 00000001401123a0     DragDropData.obj
 0002:000143c0       ??_C@_1DO@DEHKBIGM@?$AAD?$AAn?$AAD?$AA?3?$AA?5?$AAM?$AAe?$AAm?$AAo?$AAr?$AAy?$AA?5?$AAa?$AAl?$AAl?$AAo?$AAc?$AAa?$AAt?$AAi?$AAo?$AAn?$AA?5?$AAf?$AAa?$AAi?$AAl?$AAe?$AAd?$AA?$CB?$AA?$AA@ 00000001401123c0     DragDropData.obj
 0002:00014428       ??_C@_04MKKKFEPL@?$CFi?3?5?$AA@ 0000000140112428     DragDropData.obj
 0002:00014430       ??_C@_1O@FPBPJIKI@?$AAT?$AAa?$AAh?$AAo?$AAm?$AAa?$AA?$AA@ 0000000140112430     DragDropData.obj
 0002:00014468       ??_C@_1CC@ICOMOEKO@?$AAD?$AAr?$AAa?$AAg?$AAD?$AAr?$AAo?$AAp?$AAD?$AAa?$AAt?$AAa?$AA?4?$AAc?$AAp?$AAp?$AA?$AA@ 0000000140112468     DragDropData.obj
 0002:00014490       ??_C@_1BM@KNOFLCBN@?$AAS?$AAU?$AAC?$AAC?$AAE?$AAE?$AAD?$AAE?$AAD?$AA?$CI?$AAh?$AAr?$AA?$CJ?$AA?$AA@ 0000000140112490     DragDropData.obj
 0002:000144b0       ??_C@_1FE@MLLEILLJ@?$AAS?$AAU?$AAC?$AAC?$AAE?$AAE?$AAD?$AAE?$AAD?$AA?$CI?$AAh?$AAr?$AA?$CJ?$AA?5?$AA?$HM?$AA?$HM?$AA?5?$AA?$CI?$AAD?$AAr?$AAa?$AAg?$AAF?$AAu?$AAl?$AAl?$AAW?$AAi?$AAn?$AAd?$AAo?$AAw@ 00000001401124b0     DragDropData.obj
 0002:00014510       ??_C@_1EK@EIFFHACB@?$AA?0?$AA?5?$AAC?$AAa?$AAn?$AA?8?$AAt?$AA?5?$AAg?$AAe?$AAt?$AA?5?$AAT?$AAY?$AAM?$AAE?$AAD?$AA_?$AAH?$AAG?$AAL?$AAO?$AAB?$AAA?$AAL?$AA?0?$AA?5?$AAr?$AAc?$AA?$DN?$AA0?$AAx@ 0000000140112510     DragDropData.obj
 0002:00014560       ??_C@_1HK@OKPJNHI@?$AA?0?$AA?5?$AAE?$AAr?$AAr?$AAo?$AAr?$AA?5?$AAi?$AAn?$AA?5?$AAs?$AAo?$AAu?$AAr?$AAc?$AAe?$AA?$CB?$AA?5?$AAT?$AAY?$AAM?$AAE?$AAD?$AA_?$AAH?$AAG?$AAL?$AAO?$AAB?$AAA?$AAL@ 0000000140112560     DragDropData.obj
 0002:000145e0       ??_C@_1II@DLEMCGBP@?$AA?0?$AA?5?$AAE?$AAr?$AAr?$AAo?$AAr?$AA?5?$AAi?$AAn?$AA?5?$AAs?$AAo?$AAu?$AAr?$AAc?$AAe?$AA?$CB?$AA?5?$AAT?$AAY?$AAM?$AAE?$AAD?$AA_?$AAH?$AAG?$AAL?$AAO?$AAB?$AAA?$AAL@ 00000001401125e0     DragDropData.obj
 0002:00014670       ??_C@_1IK@IOJDBOEH@?$AA?0?$AA?5?$AAE?$AAr?$AAr?$AAo?$AAr?$AA?5?$AAi?$AAn?$AA?5?$AAs?$AAo?$AAu?$AAr?$AAc?$AAe?$AA?$CB?$AA?5?$AAT?$AAY?$AAM?$AAE?$AAD?$AA_?$AAH?$AAG?$AAL?$AAO?$AAB?$AAA?$AAL@ 0000000140112670     DragDropData.obj
 0002:00014700       ??_C@_1IE@HLKCIJGE@?$AA?0?$AA?5?$AAE?$AAr?$AAr?$AAo?$AAr?$AA?5?$AAi?$AAn?$AA?5?$AAs?$AAo?$AAu?$AAr?$AAc?$AAe?$AA?$CB?$AA?5?$AAT?$AAY?$AAM?$AAE?$AAD?$AA_?$AAH?$AAG?$AAL?$AAO?$AAB?$AAA?$AAL@ 0000000140112700     DragDropData.obj
 0002:00014790       ??_C@_1IO@GDPAMADH@?$AA?0?$AA?5?$AAE?$AAr?$AAr?$AAo?$AAr?$AA?5?$AAi?$AAn?$AA?5?$AAs?$AAo?$AAu?$AAr?$AAc?$AAe?$AA?$CB?$AA?5?$AAT?$AAY?$AAM?$AAE?$AAD?$AA_?$AAH?$AAG?$AAL?$AAO?$AAB?$AAA?$AAL@ 0000000140112790     DragDropData.obj
 0002:00014820       ??_C@_1IM@FDFFCPJL@?$AA?0?$AA?5?$AAE?$AAr?$AAr?$AAo?$AAr?$AA?5?$AAi?$AAn?$AA?5?$AAs?$AAo?$AAu?$AAr?$AAc?$AAe?$AA?$CB?$AA?5?$AAT?$AAY?$AAM?$AAE?$AAD?$AA_?$AAH?$AAG?$AAL?$AAO?$AAB?$AAA?$AAL@ 0000000140112820     DragDropData.obj
 0002:000148b0       ??_C@_1IG@BNDFKJNG@?$AA?0?$AA?5?$AAE?$AAr?$AAr?$AAo?$AAr?$AA?5?$AAi?$AAn?$AA?5?$AAs?$AAo?$AAu?$AAr?$AAc?$AAe?$AA?$CB?$AA?5?$AAT?$AAY?$AAM?$AAE?$AAD?$AA_?$AAH?$AAG?$AAL?$AAO?$AAB?$AAA?$AAL@ 00000001401128b0     DragDropData.obj
 0002:00014938       ??_C@_1DA@GHCJOPIH@?$AA?0?$AA?5?$AAh?$AAG?$AAl?$AAo?$AAb?$AAa?$AAl?$AA?5?$AAn?$AAo?$AAt?$AA?5?$AAa?$AAv?$AAa?$AAi?$AAl?$AAa?$AAb?$AAl?$AAe?$AA?$AA@ 0000000140112938     DragDropData.obj
 0002:00014968       ??_C@_1CE@EMHNOJAP@?$AA?0?$AA?5?$AAD?$AAa?$AAt?$AAa?$AA?$DN?$AA0?$AAx?$AA?$CF?$AA0?$AA8?$AAX?$AA?$CF?$AA0?$AA8?$AAX?$AA?$AA@ 0000000140112968     DragDropData.obj
 0002:00014990       ??_C@_1BM@OFODHFAF@?$AA?0?$AA?5?$AAD?$AAa?$AAt?$AAa?$AA?$DN?$AA0?$AAx?$AA?$CF?$AA0?$AA8?$AAX?$AA?$AA@ 0000000140112990     DragDropData.obj
 0002:000149b0       ??_C@_1BM@EEHIFGGD@?$AA?0?$AA?5?$AAD?$AAa?$AAt?$AAa?$AA?$DN?$AA0?$AAx?$AA?$CF?$AA0?$AA2?$AAX?$AA?$AA@ 00000001401129b0     DragDropData.obj
 0002:000149d0       ??_C@_1BM@GLCGDIJL@?$AA?0?$AA?5?$AAD?$AAa?$AAt?$AAa?$AAS?$AAi?$AAz?$AAe?$AA?$DN?$AA?$CF?$AAi?$AA?$AA@ 00000001401129d0     DragDropData.obj
 0002:000149f0       ??_C@_1BO@JMGPEBAG@?$AA?0?$AA?5?$AAt?$AAy?$AAm?$AAe?$AAd?$AA?$DN?$AA0?$AAx?$AA?$CF?$AA0?$AA2?$AAX?$AA?$AA@ 00000001401129f0     DragDropData.obj
 0002:00014a10       ??_C@_1CA@JENEDDCH@?$AAC?$AAl?$AAi?$AAp?$AAF?$AAo?$AAr?$AAm?$AAa?$AAt?$AAI?$AAD?$AA?$DN?$AA?$CF?$AAi?$AA?$AA@ 0000000140112a10     DragDropData.obj
 0002:00014a30       ??_C@_1CE@NBHENIHO@?$AAC?$AAF?$AA_?$AAD?$AAS?$AAP?$AAE?$AAN?$AAH?$AAM?$AAE?$AAT?$AAA?$AAF?$AAI?$AAL?$AAE?$AA?$AA@ 0000000140112a30     DragDropData.obj
 0002:00014a58       ??_C@_1CG@LNEPHJMK@?$AAC?$AAF?$AA_?$AAD?$AAS?$AAP?$AAM?$AAE?$AAT?$AAA?$AAF?$AAI?$AAL?$AAE?$AAP?$AAI?$AAC?$AAT?$AA?$AA@ 0000000140112a58     DragDropData.obj
 0002:00014a80       ??_C@_1BK@ICMLPJFM@?$AAC?$AAF?$AA_?$AAD?$AAS?$AAP?$AAB?$AAI?$AAT?$AAM?$AAA?$AAP?$AA?$AA@ 0000000140112a80     DragDropData.obj
 0002:00014aa0       ??_C@_1BG@JPAEIDKI@?$AAC?$AAF?$AA_?$AAD?$AAS?$AAP?$AAT?$AAE?$AAX?$AAT?$AA?$AA@ 0000000140112aa0     DragDropData.obj
 0002:00014ab8       ??_C@_1CA@PAADDBND@?$AAC?$AAF?$AA_?$AAO?$AAW?$AAN?$AAE?$AAR?$AAD?$AAI?$AAS?$AAP?$AAL?$AAA?$AAY?$AA?$AA@ 0000000140112ab8     DragDropData.obj
 0002:00014ad8       ??_C@_1BC@ODMPPLMJ@?$AAC?$AAF?$AA_?$AAD?$AAI?$AAB?$AAV?$AA5?$AA?$AA@ 0000000140112ad8     DragDropData.obj
 0002:00014af0       ??_C@_1BE@PFGILIIA@?$AAC?$AAF?$AA_?$AAL?$AAO?$AAC?$AAA?$AAL?$AAE?$AA?$AA@ 0000000140112af0     DragDropData.obj
 0002:00014b08       ??_C@_1BC@EHKBFILB@?$AAC?$AAF?$AA_?$AAH?$AAD?$AAR?$AAO?$AAP?$AA?$AA@ 0000000140112b08     DragDropData.obj
 0002:00014b20       ??_C@_1BO@LGFMPOLN@?$AAC?$AAF?$AA_?$AAE?$AAN?$AAH?$AAM?$AAE?$AAT?$AAA?$AAF?$AAI?$AAL?$AAE?$AA?$AA@ 0000000140112b20     DragDropData.obj
 0002:00014b40       ??_C@_1BO@CAGMCBJN@?$AAC?$AAF?$AA_?$AAU?$AAN?$AAI?$AAC?$AAO?$AAD?$AAE?$AAT?$AAE?$AAX?$AAT?$AA?$AA@ 0000000140112b40     DragDropData.obj
 0002:00014b60       ??_C@_1BA@CLIEJDDP@?$AAC?$AAF?$AA_?$AAW?$AAA?$AAV?$AAE?$AA?$AA@ 0000000140112b60     DragDropData.obj
 0002:00014b70       ??_C@_1BA@PCLOOLL@?$AAC?$AAF?$AA_?$AAR?$AAI?$AAF?$AAF?$AA?$AA@ 0000000140112b70     DragDropData.obj
 0002:00014b80       ??_C@_1BG@GFKKFAEN@?$AAC?$AAF?$AA_?$AAP?$AAE?$AAN?$AAD?$AAA?$AAT?$AAA?$AA?$AA@ 0000000140112b80     DragDropData.obj
 0002:00014b98       ??_C@_1BG@MEMGICOP@?$AAC?$AAF?$AA_?$AAP?$AAA?$AAL?$AAE?$AAT?$AAT?$AAE?$AA?$AA@ 0000000140112b98     DragDropData.obj
 0002:00014bb0       ??_C@_1O@DAEAJMMC@?$AAC?$AAF?$AA_?$AAD?$AAI?$AAB?$AA?$AA@ 0000000140112bb0     DragDropData.obj
 0002:00014bc0       ??_C@_1BG@MJBIDDNN@?$AAC?$AAF?$AA_?$AAO?$AAE?$AAM?$AAT?$AAE?$AAX?$AAT?$AA?$AA@ 0000000140112bc0     DragDropData.obj
 0002:00014bd8       ??_C@_1BA@CDFJOPM@?$AAC?$AAF?$AA_?$AAT?$AAI?$AAF?$AAF?$AA?$AA@ 0000000140112bd8     DragDropData.obj
 0002:00014be8       ??_C@_1O@LPCCALJF@?$AAC?$AAF?$AA_?$AAD?$AAI?$AAF?$AA?$AA@ 0000000140112be8     DragDropData.obj
 0002:00014bf8       ??_C@_1BA@MPKDEPBF@?$AAC?$AAF?$AA_?$AAS?$AAY?$AAL?$AAK?$AA?$AA@ 0000000140112bf8     DragDropData.obj
 0002:00014c08       ??_C@_1CA@IPJFBPJC@?$AAC?$AAF?$AA_?$AAM?$AAE?$AAT?$AAA?$AAF?$AAI?$AAL?$AAE?$AAP?$AAI?$AAC?$AAT?$AA?$AA@ 0000000140112c08     DragDropData.obj
 0002:00014c28       ??_C@_1BE@JIEKHDEN@?$AAC?$AAF?$AA_?$AAB?$AAI?$AAT?$AAM?$AAA?$AAP?$AA?$AA@ 0000000140112c28     DragDropData.obj
 0002:00014c40       ??_C@_1BA@JGFGHHEM@?$AAC?$AAF?$AA_?$AAT?$AAE?$AAX?$AAT?$AA?$AA@ 0000000140112c40     DragDropData.obj
 0002:00014c50       ??_C@_1EE@NBBCBJKN@?$AAD?$AAr?$AAa?$AAg?$AA?5?$AAo?$AAb?$AAj?$AAe?$AAc?$AAt?$AA?5?$AAc?$AAo?$AAn?$AAt?$AAa?$AAi?$AAn?$AAs?$AA?5?$AA?$CF?$AAi?$AA?5?$AAf?$AAo?$AAr?$AAm?$AAa?$AAt?$AAs?$AA?6@ 0000000140112c50     DragDropData.obj
 0002:00014c94       ??_C@_02DEBJNODD@?$PP?$PO?$AA@ 0000000140112c94     DragDropData.obj
 0002:00014c98       ??_C@_13BBDEGPLJ@?$AA?$CK?$AA?$AA@ 0000000140112c98     DragDropData.obj
 0002:00014cc8       ??_C@_1DC@EJFPKKGH@?$AAC?$AAD?$AAr?$AAa?$AAg?$AAD?$AAr?$AAo?$AAp?$AAD?$AAa?$AAt?$AAa?$AA?3?$AA?3?$AAD?$AAr?$AAa?$AAg?$AAE?$AAn?$AAt?$AAe?$AAr?$AA?$AA@ 0000000140112cc8     DragDropData.obj
 0002:00014d00       ??_C@_1DA@EDNKMEOM@?$AAD?$AAn?$AAD?$AA?3?$AA?5?$AAD?$AAr?$AAa?$AAg?$AAE?$AAn?$AAt?$AAe?$AAr?$AA?5?$AAs?$AAt?$AAa?$AAr?$AAt?$AAi?$AAn?$AAg?$AA?$AA@ 0000000140112d00     DragDropData.obj
 0002:00014d30       ??_C@_1EK@FICBBOHA@?$AAD?$AAn?$AAD?$AA?3?$AA?5?$AAF?$AAa?$AAr?$AA?5?$AAi?$AAs?$AA?5?$AAn?$AAo?$AAt?$AA?5?$AAa?$AAl?$AAi?$AAv?$AAe?$AA?0?$AA?5?$AAd?$AAr?$AAo?$AAp?$AA?5?$AAd?$AAi?$AAs?$AAa@ 0000000140112d30     DragDropData.obj
 0002:00014da8       ??_C@_1CG@NBEPCHNH@?$AAD?$AAn?$AAD?$AA?3?$AA?5?$AAD?$AAa?$AAt?$AAa?$AA?5?$AAi?$AAs?$AA?5?$AAe?$AAm?$AAp?$AAt?$AAy?$AA?$AA@ 0000000140112da8     DragDropData.obj
 0002:00014dd0       ??_C@_1CO@DBLNPNNC@?$AAD?$AAn?$AAD?$AA?3?$AA?5?$AAR?$AAe?$AAc?$AAi?$AAe?$AAv?$AAi?$AAn?$AAg?$AA?5?$AAd?$AAa?$AAt?$AAa?$AA?4?$AA?4?$AA?4?$AA?$AA@ 0000000140112dd0     DragDropData.obj
 0002:00014e00       ??_C@_1CI@HBGKNAEJ@?$AAD?$AAn?$AAD?$AA?3?$AA?5?$AAR?$AAe?$AAc?$AAi?$AAe?$AAv?$AAi?$AAn?$AAg?$AA?5?$AAd?$AAa?$AAt?$AAa?$AA?$AA@ 0000000140112e00     DragDropData.obj
 0002:00014e28       ??_C@_1CI@FEFNLIMG@?$AAC?$AAD?$AAr?$AAa?$AAg?$AAD?$AAr?$AAo?$AAp?$AAD?$AAa?$AAt?$AAa?$AA?3?$AA?3?$AAD?$AAr?$AAa?$AAg?$AA?$AA@ 0000000140112e28     DragDropData.obj
 0002:00014e80       ??_C@_1GI@JHEJKBAA@?$AAD?$AAn?$AAD?$AA?3?$AA?5?$AAR?$AAe?$AAt?$AAr?$AAi?$AAe?$AAv?$AAe?$AAD?$AAr?$AAa?$AAg?$AAF?$AAr?$AAo?$AAm?$AAI?$AAn?$AAf?$AAo?$AA?0?$AA?5?$AAC?$AAo?$AAd?$AAe?$AA?$DN@ 0000000140112e80     DragDropData.obj
 0002:00014ee8       ??_C@_1DM@ODLFMIIL@?$AAD?$AAn?$AAD?$AA?3?$AA?5?$AAC?$AAr?$AAe?$AAa?$AAt?$AAe?$AAD?$AAa?$AAt?$AAa?$AAO?$AAb?$AAj?$AAe?$AAc?$AAt?$AA?5?$AAf?$AAa?$AAi?$AAl?$AAe?$AAd?$AA?$CB?$AA?$AA@ 0000000140112ee8     DragDropData.obj
 0002:00014f28       ??_7CDwmHelper@@6B@        0000000140112f28     DwmHelper.obj
 0002:00014f48       ??_C@_0BA@HFOMBDCC@DrawThemeTextEx?$AA@ 0000000140112f48     DwmHelper.obj
 0002:00014f58       ??_C@_0BB@NPPKODNL@EndBufferedPaint?$AA@ 0000000140112f58     DwmHelper.obj
 0002:00014f70       ??_C@_0BG@MNAPCAHN@BufferedPaintSetAlpha?$AA@ 0000000140112f70     DwmHelper.obj
 0002:00014f88       ??_C@_0BD@JGPJLPDJ@BeginBufferedPaint?$AA@ 0000000140112f88     DwmHelper.obj
 0002:00014fa0       ??_C@_0BE@KCPMMHOK@BufferedPaintUnInit?$AA@ 0000000140112fa0     DwmHelper.obj
 0002:00014fb8       ??_C@_0BC@MLEEIMPA@BufferedPaintInit?$AA@ 0000000140112fb8     DwmHelper.obj
 0002:00014fd0       ??_C@_0BG@JLOFEIHP@SetThemeAppProperties?$AA@ 0000000140112fd0     DwmHelper.obj
 0002:00014fe8       ??_C@_0BO@LGILCFAC@GetThemeBackgroundContentRect?$AA@ 0000000140112fe8     DwmHelper.obj
 0002:00015008       ??_C@_0BA@OBCECKBH@GetThemeSysSize?$AA@ 0000000140113008     DwmHelper.obj
 0002:00015018       ??_C@_0BB@IJLPOJPC@GetThemePosition?$AA@ 0000000140113018     DwmHelper.obj
 0002:00015030       ??_C@_0BB@PPCKKHF@GetThemePartSize?$AA@ 0000000140113030     DwmHelper.obj
 0002:00015048       ??_C@_0BA@EEGOKIDP@GetThemeMargins?$AA@ 0000000140113048     DwmHelper.obj
 0002:00015058       ??_C@_0O@MEEFLNLN@DrawThemeEdge?$AA@ 0000000140113058     DwmHelper.obj
 0002:00015068       ??_C@_0BE@PPLLOBHO@DrawThemeBackground?$AA@ 0000000140113068     DwmHelper.obj
 0002:00015080       ??_C@_0P@HCLGHJBF@CloseThemeData?$AA@ 0000000140113080     DwmHelper.obj
 0002:00015090       ??_C@_0O@ENCOPDIF@OpenThemeData?$AA@ 0000000140113090     DwmHelper.obj
 0002:000150a0       ??_C@_0O@HPIAPJGK@IsThemeActive?$AA@ 00000001401130a0     DwmHelper.obj
 0002:000150b0       ??_C@_0M@IHIFIOMA@IsAppThemed?$AA@ 00000001401130b0     DwmHelper.obj
 0002:000150c0       ??_C@_1BI@BHLLLOBP@?$AAU?$AAx?$AAT?$AAh?$AAe?$AAm?$AAe?$AA?4?$AAd?$AAl?$AAl?$AA?$AA@ 00000001401130c0     DwmHelper.obj
 0002:000150d8       ??_C@_0BK@HMMKMEOH@DwmEnableBlurBehindWindow?$AA@ 00000001401130d8     DwmHelper.obj
 0002:000150f8       ??_C@_0BL@KMCIAGNE@DwmInvalidateIconicBitmaps?$AA@ 00000001401130f8     DwmHelper.obj
 0002:00015118       ??_C@_0BO@BHLCKLGK@DwmSetIconicLivePreviewBitmap?$AA@ 0000000140113118     DwmHelper.obj
 0002:00015138       ??_C@_0BG@DFHPONBK@DwmSetIconicThumbnail?$AA@ 0000000140113138     DwmHelper.obj
 0002:00015150       ??_C@_0BB@CLIHOJAP@DwmDefWindowProc?$AA@ 0000000140113150     DwmHelper.obj
 0002:00015168       ??_C@_0BN@ODJPPEDL@DwmExtendFrameIntoClientArea?$AA@ 0000000140113168     DwmHelper.obj
 0002:00015188       ??_C@_0BG@FLICLKDI@DwmGetWindowAttribute?$AA@ 0000000140113188     DwmHelper.obj
 0002:000151a0       ??_C@_0BG@KBKIIMNA@DwmSetWindowAttribute?$AA@ 00000001401131a0     DwmHelper.obj
 0002:000151b8       ??_C@_0BI@KJPLJBHH@DwmIsCompositionEnabled?$AA@ 00000001401131b8     DwmHelper.obj
 0002:000151d0       ??_C@_1BG@LAAOHFHJ@?$AAd?$AAw?$AAm?$AAa?$AAp?$AAi?$AA?4?$AAd?$AAl?$AAl?$AA?$AA@ 00000001401131d0     DwmHelper.obj
 0002:000151e8       ??_C@_0BK@MCKCJCIG@ChangeWindowMessageFilter?$AA@ 00000001401131e8     DwmHelper.obj
 0002:00015208       ??_C@_19IGNAGDCF@?$AA?4?$AAb?$AAt?$AAm?$AA?$AA@ 0000000140113208     Execute.obj
 0002:00015218       ??_C@_19PINKOIBI@?$AA?4?$AAb?$AAa?$AAt?$AA?$AA@ 0000000140113218     Execute.obj
 0002:00015228       ??_C@_19BDKLHPGC@?$AA?4?$AAc?$AAm?$AAd?$AA?$AA@ 0000000140113228     Execute.obj
 0002:00015288       ??_C@_1DM@KIFNEMII@?$AAC?$AAa?$AAn?$AA?8?$AAt?$AA?5?$AAc?$AAr?$AAe?$AAa?$AAt?$AAe?$AA?5?$AAF?$AAi?$AAn?$AAd?$AA?5?$AAt?$AAe?$AAx?$AAt?$AA?5?$AAd?$AAi?$AAa?$AAl?$AAo?$AAg?$AA?$AA@ 0000000140113288     FindDlg.obj
 0002:000152c8       ??_7CFrameHolder@@6B@      00000001401132c8     FrameHolder.obj
 0002:000152f0       ??_C@_1EG@EEGMMBLF@?$AAC?$AAF?$AAr?$AAa?$AAm?$AAe?$AAH?$AAo?$AAl?$AAd?$AAe?$AAr?$AA?3?$AA?3?$AAO?$AAn?$AAN?$AAc?$AAA?$AAc?$AAt?$AAi?$AAv?$AAa?$AAt?$AAe?$AA?$CI?$AA?$CF?$AAu?$AA?0?$AAx?$AA?$CF@ 00000001401132f0     FrameHolder.obj
 0002:00015338       ??_C@_0BH@NKDFNFDD@CloseGestureInfoHandle?$AA@ 0000000140113338     GestureEngine.obj
 0002:00015350       ??_C@_0BB@EFKILFBP@SetGestureConfig?$AA@ 0000000140113350     GestureEngine.obj
 0002:00015368       ??_C@_0P@DJPHANID@GetGestureInfo?$AA@ 0000000140113368     GestureEngine.obj
 0002:00015378       ??_7CGestures@@6B@         0000000140113378     GestureEngine.obj
 0002:000153d8       __real@3ff0000000000000    00000001401133d8     GestureEngine.obj
 0002:000153e0       __real@3fefae147ae147ae    00000001401133e0     GestureEngine.obj
 0002:000153e8       __real@3ff028f5c28f5c29    00000001401133e8     GestureEngine.obj
 0002:000153f0       __real@0000000000000000    00000001401133f0     GestureEngine.obj
 0002:00015420       ??_C@_15BCDOKMG@?$AA?$CJ?$AA?6?$AA?$AA@ 0000000140113420     GestureEngine.obj
 0002:00015428       ??_C@_1BC@OOHKPJLF@?$AA?5?$AA?$HL?$AA?$CF?$AAi?$AA?0?$AA?$CF?$AAi?$AA?$HN?$AA?$AA@ 0000000140113428     GestureEngine.obj
 0002:00015440       ??_C@_1BI@GIGADGPB@?$AA?5?$AAG?$AAF?$AA_?$AAI?$AAN?$AAE?$AAR?$AAT?$AAI?$AAA?$AA?$AA@ 0000000140113440     GestureEngine.obj
 0002:00015458       ??_C@_1BA@PHBHDFMM@?$AA?5?$AAG?$AAF?$AA_?$AAE?$AAN?$AAD?$AA?$AA@ 0000000140113458     GestureEngine.obj
 0002:00015468       ??_C@_1BE@GJAKPENN@?$AA?5?$AAG?$AAF?$AA_?$AAB?$AAE?$AAG?$AAI?$AAN?$AA?$AA@ 0000000140113468     GestureEngine.obj
 0002:00015480       ??_C@_17HCOEGOMM@?$AA?5?$AA?$CF?$AAi?$AA?$AA@ 0000000140113480     GestureEngine.obj
 0002:00015488       ??_C@_1BM@NELLDLIN@?$AA?5?$AAD?$AAi?$AAs?$AAt?$AA?$DN?$AA?$HL?$AA?$CF?$AAi?$AA?0?$AA?$CF?$AAi?$AA?$HN?$AA?$AA@ 0000000140113488     GestureEngine.obj
 0002:000154a8       ??_C@_1DC@NBMLKDHG@?$AAG?$AAe?$AAs?$AAt?$AAu?$AAr?$AAe?$AA?$CI?$AAx?$AA?$CF?$AA0?$AA8?$AAX?$AA?5?$AA?$HL?$AA?$CF?$AAi?$AA?0?$AA?$CF?$AAi?$AA?$HN?$AA?5?$AA?$CF?$AAs?$AA?$AA@ 00000001401134a8     GestureEngine.obj
 0002:000154e0       ??_C@_1BM@FONKEKE@?$AAG?$AAI?$AAD?$AA_?$AA?$DM?$AAU?$AAN?$AAK?$AAN?$AAO?$AAW?$AAN?$AA?$DO?$AA?$AA@ 00000001401134e0     GestureEngine.obj
 0002:00015500       ??_C@_1CA@GGNNPHDJ@?$AAG?$AAI?$AAD?$AA_?$AAP?$AAR?$AAE?$AAS?$AAS?$AAA?$AAN?$AAD?$AAT?$AAA?$AAP?$AA?$AA@ 0000000140113500     GestureEngine.obj
 0002:00015520       ??_C@_1CC@OEIKJNC@?$AAG?$AAI?$AAD?$AA_?$AAT?$AAW?$AAO?$AAF?$AAI?$AAN?$AAG?$AAE?$AAR?$AAT?$AAA?$AAP?$AA?$AA@ 0000000140113520     GestureEngine.obj
 0002:00015548       ??_C@_1BG@CIBMDHFM@?$AAG?$AAI?$AAD?$AA_?$AAR?$AAO?$AAT?$AAA?$AAT?$AAE?$AA?$AA@ 0000000140113548     GestureEngine.obj
 0002:00015560       ??_C@_1BA@LOLPOGNP@?$AAG?$AAI?$AAD?$AA_?$AAP?$AAA?$AAN?$AA?$AA@ 0000000140113560     GestureEngine.obj
 0002:00015570       ??_C@_1BC@OPEDPBJM@?$AAG?$AAI?$AAD?$AA_?$AAZ?$AAO?$AAO?$AAM?$AA?$AA@ 0000000140113570     GestureEngine.obj
 0002:00015588       ??_C@_1BA@BEAPILCB@?$AAG?$AAI?$AAD?$AA_?$AAE?$AAN?$AAD?$AA?$AA@ 0000000140113588     GestureEngine.obj
 0002:00015598       ??_C@_1BE@DJMHJFLJ@?$AAG?$AAI?$AAD?$AA_?$AAB?$AAE?$AAG?$AAI?$AAN?$AA?$AA@ 0000000140113598     GestureEngine.obj
 0002:000155b0       ??_C@_1EM@KKFIGMCB@?$AAE?$AAr?$AAr?$AAo?$AAr?$AA?5?$AAi?$AAn?$AA?5?$AAe?$AAx?$AAe?$AAc?$AAu?$AAt?$AAi?$AAo?$AAn?$AA?5?$AAo?$AAf?$AA?5?$AA_?$AAG?$AAe?$AAt?$AAG?$AAe?$AAs?$AAt?$AAu?$AAr@ 00000001401135b0     GestureEngine.obj
 0002:00015600       ??_C@_1CC@IIFKNGJK@?$AAu?$AAM?$AAs?$AAg?$AA?$DN?$AA?$DN?$AAW?$AAM?$AA_?$AAG?$AAE?$AAS?$AAT?$AAU?$AAR?$AAE?$AA?$AA@ 0000000140113600     GestureEngine.obj
 0002:00015628       ??_C@_1CE@DMLLEHHG@?$AAG?$AAe?$AAs?$AAt?$AAu?$AAr?$AAe?$AAE?$AAn?$AAg?$AAi?$AAn?$AAe?$AA?4?$AAc?$AAp?$AAp?$AA?$AA@ 0000000140113628     GestureEngine.obj
 0002:00015650       ??_C@_1EO@NJLBFNJA@?$AAE?$AAr?$AAr?$AAo?$AAr?$AA?5?$AAi?$AAn?$AA?5?$AAe?$AAx?$AAe?$AAc?$AAu?$AAt?$AAi?$AAo?$AAn?$AA?5?$AAo?$AAf?$AA?5?$AAS?$AAe?$AAt?$AAG?$AAe?$AAs?$AAt?$AAu?$AAr?$AAe@ 0000000140113650     GestureEngine.obj
 0002:000156a0       ??_C@_1DE@CPDFOMGH@?$AAS?$AAe?$AAt?$AAG?$AAe?$AAs?$AAt?$AAu?$AAr?$AAe?$AAC?$AAo?$AAn?$AAf?$AAi?$AAg?$AA?5?$AA?9?$AA?$DO?$AA?5?$AA?$CF?$AAu?$AA?0?$AA?$CF?$AAu?$AA?$AA@ 00000001401136a0     GestureEngine.obj
 0002:000156e0       ??_C@_1GG@CPKHDOEE@?$AAG?$AAe?$AAs?$AAt?$AAu?$AAr?$AAe?$AA?5?$AAm?$AAe?$AAs?$AAs?$AAa?$AAg?$AAe?$AA?5?$AAr?$AAe?$AAc?$AAe?$AAi?$AAv?$AAe?$AAd?$AA?5?$AAb?$AAu?$AAt?$AA?5?$AAn?$AAo?$AAt@ 00000001401136e0     GestureEngine.obj
 0002:00015750       ??_C@_1FG@DJFPBHJF@?$AAP?$AAi?$AAp?$AAe?$AAS?$AAe?$AAr?$AAv?$AAe?$AAr?$AAE?$AAr?$AAr?$AAo?$AAr?$AA?0?$AA?5?$AAP?$AAI?$AAD?$AA?$DN?$AA?$CF?$AAu?$AA?0?$AA?5?$AAT?$AAI?$AAD?$AA?$DN?$AA?$CF?$AAu?$AA?6@ 0000000140113750     GuiServer.obj
 0002:000157b0       ??_C@_1EA@JFONKNJK@?$AAP?$AAi?$AAp?$AAe?$AAS?$AAe?$AAr?$AAv?$AAe?$AAr?$AAE?$AAr?$AAr?$AAo?$AAr?$AA?0?$AA?5?$AAP?$AAI?$AAD?$AA?$DN?$AA?$CF?$AAu?$AA?0?$AA?5?$AAT?$AAI?$AAD?$AA?$DN?$AA?$CF?$AAu?$AA?$AA@ 00000001401137b0     GuiServer.obj
 0002:000157f0       ??_C@_1M@KGONCMNM@?$AA?$CF?$AAs?$AA?6?$AA?$CF?$AAs?$AA?$AA@ 00000001401137f0     GuiServer.obj
 0002:00015800       ??_C@_1HG@LHMKOAMG@?$AAP?$AAi?$AAp?$AAe?$AAS?$AAe?$AAr?$AAv?$AAe?$AAr?$AAT?$AAh?$AAr?$AAe?$AAa?$AAd?$AA?3?$AAW?$AAa?$AAi?$AAt?$AAF?$AAo?$AAr?$AAM?$AAu?$AAl?$AAt?$AAi?$AAp?$AAl?$AAe@ 0000000140113800     GuiServer.obj
 0002:00015880       ??_C@_1HA@EGHGJDPG@?$AAP?$AAi?$AAp?$AAe?$AAS?$AAe?$AAr?$AAv?$AAe?$AAr?$AAT?$AAh?$AAr?$AAe?$AAa?$AAd?$AA?3?$AAG?$AAe?$AAt?$AAO?$AAv?$AAe?$AAr?$AAl?$AAa?$AAp?$AAp?$AAe?$AAd?$AAR?$AAe@ 0000000140113880     GuiServer.obj
 0002:000158f0       ??_C@_1GG@PAGGIEEF@?$AAS?$AAt?$AAa?$AAr?$AAt?$AAP?$AAi?$AAp?$AAe?$AAI?$AAn?$AAs?$AAt?$AAa?$AAn?$AAc?$AAe?$AA?3?$AAC?$AAr?$AAe?$AAa?$AAt?$AAe?$AAT?$AAh?$AAr?$AAe?$AAa?$AAd?$AA?5?$AAf@ 00000001401138f0     GuiServer.obj
 0002:00015960       ??_C@_1GC@MCEAIMAO@?$AAS?$AAt?$AAa?$AAr?$AAt?$AAP?$AAi?$AAp?$AAe?$AAI?$AAn?$AAs?$AAt?$AAa?$AAn?$AAc?$AAe?$AA?3?$AAC?$AAr?$AAe?$AAa?$AAt?$AAe?$AAE?$AAv?$AAe?$AAn?$AAt?$AA?5?$AAf?$AAa@ 0000000140113960     GuiServer.obj
 0002:000159d0       ??_C@_1GK@OLPCHMBE@?$AAP?$AAi?$AAp?$AAe?$AAS?$AAe?$AAr?$AAv?$AAe?$AAr?$AAT?$AAh?$AAr?$AAe?$AAa?$AAd?$AA?3?$AAC?$AAo?$AAn?$AAn?$AAe?$AAc?$AAt?$AAN?$AAa?$AAm?$AAe?$AAd?$AAP?$AAi?$AAp@ 00000001401139d0     GuiServer.obj
 0002:00015a40       ??_C@_1EI@IDJFNECA@?$AAm?$AAp?$AA_?$AAG?$AAu?$AAi?$AAS?$AAe?$AAr?$AAv?$AAe?$AAr?$AA?9?$AA?$DO?$AAS?$AAt?$AAo?$AAp?$AAP?$AAi?$AAp?$AAe?$AAS?$AAe?$AAr?$AAv?$AAe?$AAr?$AA?5?$AA?9?$AA?5?$AAd@ 0000000140113a40     GuiServer.obj
 0002:00015a88       ??_C@_1DK@BBKMCNID@?$AAm?$AAp?$AA_?$AAG?$AAu?$AAi?$AAS?$AAe?$AAr?$AAv?$AAe?$AAr?$AA?9?$AA?$DO?$AAS?$AAt?$AAo?$AAp?$AAP?$AAi?$AAp?$AAe?$AAS?$AAe?$AAr?$AAv?$AAe?$AAr?$AA?$AA@ 0000000140113a88     GuiServer.obj
 0002:00015af0       ??_C@_1HG@IACCEODG@?$AAC?$AAE?$AAC?$AAM?$AAD?$AA_?$AAN?$AAE?$AAW?$AAC?$AAM?$AAD?$AA?3?$AA?5?$AAW?$AAn?$AAd?$AA?$DN?$AAx?$AA?$CF?$AA0?$AA8?$AAX?$AA?0?$AA?5?$AAA?$AAc?$AAt?$AA?$DN?$AA?$CF?$AAu?$AA?0@ 0000000140113af0     GuiServer.obj
 0002:00015b70       ??_C@_1EG@LCAPLABN@?$AAC?$AAh?$AAa?$AAn?$AAg?$AAi?$AAn?$AAg?$AA?5?$AAl?$AAo?$AAg?$AA?5?$AAl?$AAe?$AAv?$AAe?$AAl?$AA?$CB?$AA?5?$AAO?$AAl?$AAd?$AA?$DN?$AA?$CF?$AAu?$AA?0?$AA?5?$AAN?$AAe?$AAw?$AA?$DN@ 0000000140113b70     GuiServer.obj
 0002:00015bc0       ??_C@_1FM@LPOPCJG@?$AAS?$AAt?$AAa?$AAr?$AAt?$AAP?$AAi?$AAp?$AAe?$AAS?$AAe?$AAr?$AAv?$AAe?$AAr?$AA?3?$AAa?$AAp?$AAf?$AAn?$AAP?$AAi?$AAp?$AAe?$AAS?$AAe?$AAr?$AAv?$AAe?$AAr?$AAC?$AAo@ 0000000140113bc0     GuiServer.obj
 0002:00015c70       ??_C@_1BM@DODLPGBN@?$AAS?$AAe?$AAl?$AAe?$AAc?$AAt?$AA?$CI?$AA1?$AA?0?$AA0?$AA?0?$AA1?$AA?$CJ?$AA?$AA@ 0000000140113c70     Hotkeys.obj
 0002:00015c90       ??_C@_1BO@LCBJEBCI@?$AAS?$AAe?$AAl?$AAe?$AAc?$AAt?$AA?$CI?$AA1?$AA?0?$AA0?$AA?0?$AA?9?$AA1?$AA?$CJ?$AA?$AA@ 0000000140113c90     Hotkeys.obj
 0002:00015cb0       ??_C@_1CA@CJIKHEMC@?$AAS?$AAe?$AAl?$AAe?$AAc?$AAt?$AA?$CI?$AA0?$AA?0?$AA1?$AA?0?$AA0?$AA?0?$AA1?$AA?$CJ?$AA?$AA@ 0000000140113cb0     Hotkeys.obj
 0002:00015cd0       ??_C@_1CE@NAAGGKFL@?$AAS?$AAe?$AAl?$AAe?$AAc?$AAt?$AA?$CI?$AA0?$AA?0?$AA?9?$AA1?$AA?0?$AA0?$AA?0?$AA?9?$AA1?$AA?$CJ?$AA?$AA@ 0000000140113cd0     Hotkeys.obj
 0002:00015cf8       ??_C@_1BI@ICINFCEK@?$AAS?$AAe?$AAl?$AAe?$AAc?$AAt?$AA?$CI?$AA0?$AA?0?$AA1?$AA?$CJ?$AA?$AA@ 0000000140113cf8     Hotkeys.obj
 0002:00015d10       ??_C@_1BK@JGFIFBPM@?$AAS?$AAe?$AAl?$AAe?$AAc?$AAt?$AA?$CI?$AA0?$AA?0?$AA?9?$AA1?$AA?$CJ?$AA?$AA@ 0000000140113d10     Hotkeys.obj
 0002:00015d30       ??_C@_1BG@MAFCOAEK@?$AAW?$AAn?$AAd?$AAD?$AAr?$AAa?$AAg?$AAK?$AAe?$AAy?$AA?$AA@ 0000000140113d30     Hotkeys.obj
 0002:00015d48       ??_C@_1BA@CABHKDI@?$AAD?$AAn?$AAd?$AAR?$AAK?$AAe?$AAy?$AA?$AA@ 0000000140113d48     Hotkeys.obj
 0002:00015d58       ??_C@_1BA@DLGGMLGD@?$AAD?$AAn?$AAd?$AAL?$AAK?$AAe?$AAy?$AA?$AA@ 0000000140113d58     Hotkeys.obj
 0002:00015d68       ??_C@_1CA@NBOBBHGB@?$AAF?$AAa?$AAr?$AAG?$AAo?$AAt?$AAo?$AAE?$AAd?$AAi?$AAt?$AAo?$AAr?$AAV?$AAk?$AA?$AA@ 0000000140113d68     Hotkeys.obj
 0002:00015d88       ??_C@_1BK@JNCFDNMH@?$AAC?$AAT?$AAS?$AA?4?$AAV?$AAk?$AAP?$AAr?$AAo?$AAm?$AAp?$AAt?$AA?$AA@ 0000000140113d88     Hotkeys.obj
 0002:00015da8       ??_C@_1BE@GHNIKLDJ@?$AAC?$AAT?$AAS?$AA?4?$AAV?$AAk?$AAA?$AAc?$AAt?$AA?$AA@ 0000000140113da8     Hotkeys.obj
 0002:00015dc0       ??_C@_1BG@NLPHCEJJ@?$AAC?$AAT?$AAS?$AA?4?$AAV?$AAk?$AAT?$AAe?$AAx?$AAt?$AA?$AA@ 0000000140113dc0     Hotkeys.obj
 0002:00015dd8       ??_C@_1BI@HDKBHLA@?$AAC?$AAT?$AAS?$AA?4?$AAV?$AAk?$AAB?$AAl?$AAo?$AAc?$AAk?$AA?$AA@ 0000000140113dd8     Hotkeys.obj
 0002:00015df0       ??_C@_1BG@GCNHIMKA@?$AAK?$AAe?$AAy?$AAM?$AAa?$AAc?$AAr?$AAo?$AA3?$AA2?$AA?$AA@ 0000000140113df0     Hotkeys.obj
 0002:00015e08       ??_C@_1BG@HAGCCDEO@?$AAK?$AAe?$AAy?$AAM?$AAa?$AAc?$AAr?$AAo?$AA3?$AA1?$AA?$AA@ 0000000140113e08     Hotkeys.obj
 0002:00015e20       ??_C@_1BG@MINOEECL@?$AAK?$AAe?$AAy?$AAM?$AAa?$AAc?$AAr?$AAo?$AA3?$AA0?$AA?$AA@ 0000000140113e20     Hotkeys.obj
 0002:00015e38       ??_C@_1BG@HOIKNIAE@?$AAK?$AAe?$AAy?$AAM?$AAa?$AAc?$AAr?$AAo?$AA2?$AA9?$AA?$AA@ 0000000140113e38     Hotkeys.obj
 0002:00015e50       ??_C@_1BG@MGDGLPGB@?$AAK?$AAe?$AAy?$AAM?$AAa?$AAc?$AAr?$AAo?$AA2?$AA8?$AA?$AA@ 0000000140113e50     Hotkeys.obj
 0002:00015e68       ??_C@_1BG@JOFFKPDH@?$AAK?$AAe?$AAy?$AAM?$AAa?$AAc?$AAr?$AAo?$AA2?$AA7?$AA?$AA@ 0000000140113e68     Hotkeys.obj
 0002:00015e80       ??_C@_1BG@CGOJMIFC@?$AAK?$AAe?$AAy?$AAM?$AAa?$AAc?$AAr?$AAo?$AA2?$AA6?$AA?$AA@ 0000000140113e80     Hotkeys.obj
 0002:00015e98       ??_C@_1BG@DEFMGHLM@?$AAK?$AAe?$AAy?$AAM?$AAa?$AAc?$AAr?$AAo?$AA2?$AA5?$AA?$AA@ 0000000140113e98     Hotkeys.obj
 0002:00015eb0       ??_C@_1BG@IMOAAANJ@?$AAK?$AAe?$AAy?$AAM?$AAa?$AAc?$AAr?$AAo?$AA2?$AA4?$AA?$AA@ 0000000140113eb0     Hotkeys.obj
 0002:00015ec8       ??_C@_1BG@BBDHDIGA@?$AAK?$AAe?$AAy?$AAM?$AAa?$AAc?$AAr?$AAo?$AA2?$AA3?$AA?$AA@ 0000000140113ec8     Hotkeys.obj
 0002:00015ee0       ??_C@_1BG@KJILFPAF@?$AAK?$AAe?$AAy?$AAM?$AAa?$AAc?$AAr?$AAo?$AA2?$AA2?$AA?$AA@ 0000000140113ee0     Hotkeys.obj
 0002:00015ef8       ??_C@_1BG@LLDOPAOL@?$AAK?$AAe?$AAy?$AAM?$AAa?$AAc?$AAr?$AAo?$AA2?$AA1?$AA?$AA@ 0000000140113ef8     Hotkeys.obj
 0002:00015f10       ??_C@_1BG@DICJHIO@?$AAK?$AAe?$AAy?$AAM?$AAa?$AAc?$AAr?$AAo?$AA2?$AA0?$AA?$AA@ 0000000140113f10     Hotkeys.obj
 0002:00015f28       ??_C@_1BG@PIBOKKKK@?$AAK?$AAe?$AAy?$AAM?$AAa?$AAc?$AAr?$AAo?$AA1?$AA9?$AA?$AA@ 0000000140113f28     Hotkeys.obj
 0002:00015f40       ??_C@_1BG@EAKCMNMP@?$AAK?$AAe?$AAy?$AAM?$AAa?$AAc?$AAr?$AAo?$AA1?$AA8?$AA?$AA@ 0000000140113f40     Hotkeys.obj
 0002:00015f58       ??_C@_1BG@BIMBNNJJ@?$AAK?$AAe?$AAy?$AAM?$AAa?$AAc?$AAr?$AAo?$AA1?$AA7?$AA?$AA@ 0000000140113f58     Hotkeys.obj
 0002:00015f70       ??_C@_1BG@KAHNLKPM@?$AAK?$AAe?$AAy?$AAM?$AAa?$AAc?$AAr?$AAo?$AA1?$AA6?$AA?$AA@ 0000000140113f70     Hotkeys.obj
 0002:00015f88       ??_C@_1BG@LCMIBFBC@?$AAK?$AAe?$AAy?$AAM?$AAa?$AAc?$AAr?$AAo?$AA1?$AA5?$AA?$AA@ 0000000140113f88     Hotkeys.obj
 0002:00015fa0       ??_C@_1BG@KHEHCHH@?$AAK?$AAe?$AAy?$AAM?$AAa?$AAc?$AAr?$AAo?$AA1?$AA4?$AA?$AA@ 0000000140113fa0     Hotkeys.obj
 0002:00015fb8       ??_C@_1BG@JHKDEKMO@?$AAK?$AAe?$AAy?$AAM?$AAa?$AAc?$AAr?$AAo?$AA1?$AA3?$AA?$AA@ 0000000140113fb8     Hotkeys.obj
 0002:00015fd0       ??_C@_1BG@CPBPCNKL@?$AAK?$AAe?$AAy?$AAM?$AAa?$AAc?$AAr?$AAo?$AA1?$AA2?$AA?$AA@ 0000000140113fd0     Hotkeys.obj
 0002:00015fe8       ??_C@_1BG@DNKKICEF@?$AAK?$AAe?$AAy?$AAM?$AAa?$AAc?$AAr?$AAo?$AA1?$AA1?$AA?$AA@ 0000000140113fe8     Hotkeys.obj
 0002:00016000       ??_C@_1BG@IFBGOFCA@?$AAK?$AAe?$AAy?$AAM?$AAa?$AAc?$AAr?$AAo?$AA1?$AA0?$AA?$AA@ 0000000140114000     Hotkeys.obj
 0002:00016018       ??_C@_1BG@DDECHJAP@?$AAK?$AAe?$AAy?$AAM?$AAa?$AAc?$AAr?$AAo?$AA0?$AA9?$AA?$AA@ 0000000140114018     Hotkeys.obj
 0002:00016030       ??_C@_1BG@ILPOBOGK@?$AAK?$AAe?$AAy?$AAM?$AAa?$AAc?$AAr?$AAo?$AA0?$AA8?$AA?$AA@ 0000000140114030     Hotkeys.obj
 0002:00016048       ??_C@_1BG@NDJNAODM@?$AAK?$AAe?$AAy?$AAM?$AAa?$AAc?$AAr?$AAo?$AA0?$AA7?$AA?$AA@ 0000000140114048     Hotkeys.obj
 0002:00016060       ??_C@_1BG@GLCBGJFJ@?$AAK?$AAe?$AAy?$AAM?$AAa?$AAc?$AAr?$AAo?$AA0?$AA6?$AA?$AA@ 0000000140114060     Hotkeys.obj
 0002:00016078       ??_C@_1BG@HJJEMGLH@?$AAK?$AAe?$AAy?$AAM?$AAa?$AAc?$AAr?$AAo?$AA0?$AA5?$AA?$AA@ 0000000140114078     Hotkeys.obj
 0002:00016090       ??_C@_1BG@MBCIKBNC@?$AAK?$AAe?$AAy?$AAM?$AAa?$AAc?$AAr?$AAo?$AA0?$AA4?$AA?$AA@ 0000000140114090     Hotkeys.obj
 0002:000160a8       ??_C@_1BG@FMPPJJGL@?$AAK?$AAe?$AAy?$AAM?$AAa?$AAc?$AAr?$AAo?$AA0?$AA3?$AA?$AA@ 00000001401140a8     Hotkeys.obj
 0002:000160c0       ??_C@_1BG@OEEDPOAO@?$AAK?$AAe?$AAy?$AAM?$AAa?$AAc?$AAr?$AAo?$AA0?$AA2?$AA?$AA@ 00000001401140c0     Hotkeys.obj
 0002:000160d8       ??_C@_1BG@PGPGFBOA@?$AAK?$AAe?$AAy?$AAM?$AAa?$AAc?$AAr?$AAo?$AA0?$AA1?$AA?$AA@ 00000001401140d8     Hotkeys.obj
 0002:000160f0       ??_C@_1BM@CEDLFOCE@?$AAW?$AAi?$AAn?$AAd?$AAo?$AAw?$AAM?$AAo?$AAd?$AAe?$AA?$CI?$AA7?$AA?$CJ?$AA?$AA@ 00000001401140f0     Hotkeys.obj
 0002:00016110       ??_C@_1CA@KJNEGEMI@?$AAK?$AAe?$AAy?$AA?4?$AAT?$AAi?$AAl?$AAe?$AAT?$AAo?$AAR?$AAI?$AAg?$AAh?$AAt?$AA?$AA@ 0000000140114110     Hotkeys.obj
 0002:00016130       ??_C@_1BM@OPGHINIB@?$AAW?$AAi?$AAn?$AAd?$AAo?$AAw?$AAM?$AAo?$AAd?$AAe?$AA?$CI?$AA6?$AA?$CJ?$AA?$AA@ 0000000140114130     Hotkeys.obj
 0002:00016150       ??_C@_1BO@BKFGFFOA@?$AAK?$AAe?$AAy?$AA?4?$AAT?$AAi?$AAl?$AAe?$AAT?$AAo?$AAL?$AAe?$AAf?$AAt?$AA?$AA@ 0000000140114150     Hotkeys.obj
 0002:00016170       ??_C@_1BO@ECLHADAO@?$AAW?$AAi?$AAn?$AAd?$AAo?$AAw?$AAM?$AAo?$AAd?$AAe?$AA?$CI?$AA1?$AA0?$AA?$CJ?$AA?$AA@ 0000000140114170     Hotkeys.obj
 0002:00016190       ??_C@_1CI@DJKMFCJJ@?$AAK?$AAe?$AAy?$AA?4?$AAJ?$AAu?$AAm?$AAp?$AAN?$AAe?$AAx?$AAt?$AAM?$AAo?$AAn?$AAi?$AAt?$AAo?$AAr?$AA?$AA@ 0000000140114190     Hotkeys.obj
 0002:000161b8       ??_C@_1BM@BODBDPFE@?$AAW?$AAi?$AAn?$AAd?$AAo?$AAw?$AAM?$AAo?$AAd?$AAe?$AA?$CI?$AA9?$AA?$CJ?$AA?$AA@ 00000001401141b8     Hotkeys.obj
 0002:000161d8       ??_C@_1CI@LLJKPBEA@?$AAK?$AAe?$AAy?$AA?4?$AAJ?$AAu?$AAm?$AAp?$AAP?$AAr?$AAe?$AAv?$AAM?$AAo?$AAn?$AAi?$AAt?$AAo?$AAr?$AA?$AA@ 00000001401141d8     Hotkeys.obj
 0002:00016200       ??_C@_1BC@COPPPGK@?$AAP?$AAa?$AAs?$AAt?$AAe?$AA?$CI?$AA8?$AA?$CJ?$AA?$AA@ 0000000140114200     Hotkeys.obj
 0002:00016218       ??_C@_1BO@LJJKBAJH@?$AAP?$AAa?$AAs?$AAt?$AAe?$AAC?$AAy?$AAg?$AAw?$AAi?$AAn?$AAK?$AAe?$AAy?$AA?$AA@ 0000000140114218     Hotkeys.obj
 0002:00016238       ??_C@_1BC@LOHBOMLE@?$AAP?$AAa?$AAs?$AAt?$AAe?$AA?$CI?$AA5?$AA?$CJ?$AA?$AA@ 0000000140114238     Hotkeys.obj
 0002:00016250       ??_C@_1BK@DBPKKENN@?$AAP?$AAa?$AAs?$AAt?$AAe?$AAP?$AAa?$AAt?$AAh?$AAK?$AAe?$AAy?$AA?$AA@ 0000000140114250     Hotkeys.obj
 0002:00016270       ??_C@_1BC@HFCNDPBB@?$AAP?$AAa?$AAs?$AAt?$AAe?$AA?$CI?$AA4?$AA?$CJ?$AA?$AA@ 0000000140114270     Hotkeys.obj
 0002:00016288       ??_C@_1BK@EIPPPNCD@?$AAP?$AAa?$AAs?$AAt?$AAe?$AAF?$AAi?$AAl?$AAe?$AAK?$AAe?$AAy?$AA?$AA@ 0000000140114288     Hotkeys.obj
 0002:000162a8       ??_C@_1CE@NEHEKMBJ@?$AAF?$AAo?$AAn?$AAt?$AAS?$AAe?$AAt?$AAS?$AAi?$AAz?$AAe?$AA?$CI?$AA1?$AA?0?$AA?9?$AA2?$AA?$CJ?$AA?$AA@ 00000001401142a8     Hotkeys.obj
 0002:000162d0       ??_C@_1BO@FIHDKNCP@?$AAF?$AAo?$AAn?$AAt?$AAS?$AAm?$AAa?$AAl?$AAl?$AAe?$AAr?$AAK?$AAe?$AAy?$AA?$AA@ 00000001401142d0     Hotkeys.obj
 0002:000162f0       ??_C@_1CC@BHLAAFAN@?$AAF?$AAo?$AAn?$AAt?$AAS?$AAe?$AAt?$AAS?$AAi?$AAz?$AAe?$AA?$CI?$AA1?$AA?0?$AA2?$AA?$CJ?$AA?$AA@ 00000001401142f0     Hotkeys.obj
 0002:00016318       ??_C@_1BM@PLCBPDFC@?$AAF?$AAo?$AAn?$AAt?$AAL?$AAa?$AAr?$AAg?$AAe?$AAr?$AAK?$AAe?$AAy?$AA?$AA@ 0000000140114318     Hotkeys.obj
 0002:00016338       ??_C@_1CE@IHMLDHKN@?$AAK?$AAe?$AAy?$AA?4?$AAP?$AAi?$AAc?$AAV?$AAi?$AAe?$AAw?$AAF?$AAa?$AAs?$AAt?$AAe?$AAr?$AA?$AA@ 0000000140114338     Hotkeys.obj
 0002:00016360       ??_C@_1CE@EIGIACMH@?$AAK?$AAe?$AAy?$AA?4?$AAP?$AAi?$AAc?$AAV?$AAi?$AAe?$AAw?$AAS?$AAl?$AAo?$AAw?$AAe?$AAr?$AA?$AA@ 0000000140114360     Hotkeys.obj
 0002:00016388       ??_C@_1CC@KBABFKN@?$AAK?$AAe?$AAy?$AA?4?$AAP?$AAi?$AAc?$AAV?$AAi?$AAe?$AAw?$AAS?$AAl?$AAi?$AAd?$AAe?$AA?$AA@ 0000000140114388     Hotkeys.obj
 0002:000163b0       ??_C@_1BI@KGMLCALE@?$AAK?$AAe?$AAy?$AA?4?$AAB?$AAu?$AAf?$AAP?$AAg?$AAD?$AAn?$AA?$AA@ 00000001401143b0     Hotkeys.obj
 0002:000163c8       ??_C@_1BI@NOIHNBCG@?$AAK?$AAe?$AAy?$AA?4?$AAB?$AAu?$AAf?$AAP?$AAg?$AAU?$AAp?$AA?$AA@ 00000001401143c8     Hotkeys.obj
 0002:000163e0       ??_C@_1BE@GFPPGAPB@?$AAK?$AAe?$AAy?$AA?4?$AAB?$AAu?$AAf?$AAD?$AAn?$AA?$AA@ 00000001401143e0     Hotkeys.obj
 0002:000163f8       ??_C@_1BE@BNLDJBGD@?$AAK?$AAe?$AAy?$AA?4?$AAB?$AAu?$AAf?$AAU?$AAp?$AA?$AA@ 00000001401143f8     Hotkeys.obj
 0002:00016410       ??_C@_1BK@PCMCAGEM@?$AAK?$AAe?$AAy?$AA?4?$AAS?$AAy?$AAs?$AAM?$AAe?$AAn?$AAu?$AA2?$AA?$AA@ 0000000140114410     Hotkeys.obj
 0002:00016430       ??_C@_1BI@OBJAHPJB@?$AAK?$AAe?$AAy?$AA?4?$AAS?$AAy?$AAs?$AAM?$AAe?$AAn?$AAu?$AA?$AA@ 0000000140114430     Hotkeys.obj
 0002:00016448       ??_C@_1CG@OEJGMFBJ@?$AAW?$AAi?$AAn?$AAd?$AAo?$AAw?$AAF?$AAu?$AAl?$AAl?$AAs?$AAc?$AAr?$AAe?$AAe?$AAn?$AA?$CI?$AA?$CJ?$AA?$AA@ 0000000140114448     Hotkeys.obj
 0002:00016470       ??_C@_1BO@NMLHNOKO@?$AAK?$AAe?$AAy?$AA?4?$AAF?$AAu?$AAl?$AAl?$AAS?$AAc?$AAr?$AAe?$AAe?$AAn?$AA?$AA@ 0000000140114470     Hotkeys.obj
 0002:00016490       ??_C@_1CE@MKBGNOGA@?$AAW?$AAi?$AAn?$AAd?$AAo?$AAw?$AAM?$AAa?$AAx?$AAi?$AAm?$AAi?$AAz?$AAe?$AA?$CI?$AA2?$AA?$CJ?$AA?$AA@ 0000000140114490     Hotkeys.obj
 0002:000164b8       ??_C@_1CG@FAPPCOAJ@?$AAK?$AAe?$AAy?$AA?4?$AAM?$AAa?$AAx?$AAi?$AAm?$AAi?$AAz?$AAe?$AAH?$AAe?$AAi?$AAg?$AAh?$AAt?$AA?$AA@ 00000001401144b8     Hotkeys.obj
 0002:000164e0       ??_C@_1CE@EMICKMMO@?$AAW?$AAi?$AAn?$AAd?$AAo?$AAw?$AAM?$AAa?$AAx?$AAi?$AAm?$AAi?$AAz?$AAe?$AA?$CI?$AA1?$AA?$CJ?$AA?$AA@ 00000001401144e0     Hotkeys.obj
 0002:00016508       ??_C@_1CE@GBKMFIAL@?$AAK?$AAe?$AAy?$AA?4?$AAM?$AAa?$AAx?$AAi?$AAm?$AAi?$AAz?$AAe?$AAW?$AAi?$AAd?$AAt?$AAh?$AA?$AA@ 0000000140114508     Hotkeys.obj
 0002:00016530       ??_C@_1CC@GDENPOFO@?$AAW?$AAi?$AAn?$AAd?$AAo?$AAw?$AAM?$AAa?$AAx?$AAi?$AAm?$AAi?$AAz?$AAe?$AA?$CI?$AA?$CJ?$AA?$AA@ 0000000140114530     Hotkeys.obj
 0002:00016558       ??_C@_1BK@LKOJPOEF@?$AAK?$AAe?$AAy?$AA?4?$AAM?$AAa?$AAx?$AAi?$AAm?$AAi?$AAz?$AAe?$AA?$AA@ 0000000140114558     Hotkeys.obj
 0002:00016578       ??_C@_1BK@HNGFHAOD@?$AAK?$AAe?$AAy?$AA?4?$AAT?$AAa?$AAb?$AAM?$AAe?$AAn?$AAu?$AA2?$AA?$AA@ 0000000140114578     Hotkeys.obj
 0002:00016598       ??_C@_1BI@NODPAECN@?$AAK?$AAe?$AAy?$AA?4?$AAT?$AAa?$AAb?$AAM?$AAe?$AAn?$AAu?$AA?$AA@ 0000000140114598     Hotkeys.obj
 0002:000165b0       ??_C@_1BO@DDJFCHCD@?$AAA?$AAl?$AAw?$AAa?$AAy?$AAs?$AAO?$AAn?$AAT?$AAo?$AAp?$AAK?$AAe?$AAy?$AA?$AA@ 00000001401145b0     Hotkeys.obj
 0002:000165d0       ??_C@_1BO@CDHENJAB@?$AAS?$AAh?$AAo?$AAw?$AAC?$AAa?$AAp?$AAt?$AAi?$AAo?$AAn?$AAK?$AAe?$AAy?$AA?$AA@ 00000001401145d0     Hotkeys.obj
 0002:000165f0       ??_C@_1BM@FGHJPGGJ@?$AAS?$AAh?$AAo?$AAw?$AAT?$AAa?$AAb?$AAB?$AAa?$AAr?$AAK?$AAe?$AAy?$AA?$AA@ 00000001401145f0     Hotkeys.obj
 0002:00016610       ??_C@_1CC@HKEJPIKA@?$AAS?$AAh?$AAo?$AAw?$AAS?$AAt?$AAa?$AAt?$AAu?$AAs?$AAB?$AAa?$AAr?$AAK?$AAe?$AAy?$AA?$AA@ 0000000140114610     Hotkeys.obj
 0002:00016638       ??_C@_1CE@OKDJPHLK@?$AAS?$AAc?$AAr?$AAe?$AAe?$AAn?$AAs?$AAh?$AAo?$AAt?$AAF?$AAu?$AAl?$AAl?$AAK?$AAe?$AAy?$AA?$AA@ 0000000140114638     Hotkeys.obj
 0002:00016660       ??_C@_1BM@OJPEMHAC@?$AAS?$AAc?$AAr?$AAe?$AAe?$AAn?$AAs?$AAh?$AAo?$AAt?$AAK?$AAe?$AAy?$AA?$AA@ 0000000140114660     Hotkeys.obj
 0002:00016680       ??_C@_1BI@PPBNCNJ@?$AAF?$AAi?$AAn?$AAd?$AAT?$AAe?$AAx?$AAt?$AAK?$AAe?$AAy?$AA?$AA@ 0000000140114680     Hotkeys.obj
 0002:00016698       ??_C@_1CC@NEFNBAKC@?$AAD?$AAe?$AAl?$AAe?$AAt?$AAe?$AAW?$AAo?$AAr?$AAd?$AAT?$AAo?$AAL?$AAe?$AAf?$AAt?$AA?$AA@ 0000000140114698     Hotkeys.obj
 0002:000166c0       ??_C@_1CK@BGJCOHNN@?$AAC?$AAl?$AAi?$AAp?$AAb?$AAo?$AAa?$AAr?$AAd?$AAV?$AAk?$AAF?$AAi?$AAr?$AAs?$AAt?$AAL?$AAi?$AAn?$AAe?$AA?$AA@ 00000001401146c0     Hotkeys.obj
 0002:000166f0       ??_C@_1CI@IFIABNL@?$AAC?$AAl?$AAi?$AAp?$AAb?$AAo?$AAa?$AAr?$AAd?$AAV?$AAk?$AAA?$AAl?$AAl?$AAL?$AAi?$AAn?$AAe?$AAs?$AA?$AA@ 00000001401146f0     Hotkeys.obj
 0002:00016718       ??_C@_1BA@NIGJIOIN@?$AAT?$AAa?$AAb?$AAs?$AA?$CI?$AA8?$AA?$CJ?$AA?$AA@ 0000000140114718     Hotkeys.obj
 0002:00016728       ??_C@_1CI@IPEPKFLL@?$AAM?$AAu?$AAl?$AAt?$AAi?$AA?4?$AAS?$AAh?$AAo?$AAw?$AAT?$AAa?$AAb?$AAs?$AAL?$AAi?$AAs?$AAt?$AA2?$AA?$AA@ 0000000140114728     Hotkeys.obj
 0002:00016750       ??_C@_1CG@LJBPBMIK@?$AAM?$AAu?$AAl?$AAt?$AAi?$AA?4?$AAS?$AAh?$AAo?$AAw?$AAT?$AAa?$AAb?$AAs?$AAL?$AAi?$AAs?$AAt?$AA?$AA@ 0000000140114750     Hotkeys.obj
 0002:00016778       ??_C@_1BA@NICCKPIE@?$AAC?$AAo?$AAp?$AAy?$AA?$CI?$AA1?$AA?$CJ?$AA?$AA@ 0000000140114778     Hotkeys.obj
 0002:00016788       ??_C@_1BM@EFKPJOFH@?$AAC?$AAT?$AAS?$AA?4?$AAV?$AAk?$AAC?$AAo?$AAp?$AAy?$AAA?$AAl?$AAl?$AA?$AA@ 0000000140114788     Hotkeys.obj
 0002:000167a8       ??_C@_1BE@KMAPAELP@?$AAC?$AAo?$AAp?$AAy?$AA?$CI?$AA0?$AA?0?$AA2?$AA?$CJ?$AA?$AA@ 00000001401147a8     Hotkeys.obj
 0002:000167c0       ??_C@_1BO@HJJMJLEE@?$AAC?$AAT?$AAS?$AA?4?$AAV?$AAk?$AAC?$AAo?$AAp?$AAy?$AAF?$AAm?$AAt?$AA2?$AA?$AA@ 00000001401147c0     Hotkeys.obj
 0002:000167e0       ??_C@_1BE@CKJLHGBB@?$AAC?$AAo?$AAp?$AAy?$AA?$CI?$AA0?$AA?0?$AA1?$AA?$CJ?$AA?$AA@ 00000001401147e0     Hotkeys.obj
 0002:000167f8       ??_C@_1BO@GLCJDEKK@?$AAC?$AAT?$AAS?$AA?4?$AAV?$AAk?$AAC?$AAo?$AAp?$AAy?$AAF?$AAm?$AAt?$AA1?$AA?$AA@ 00000001401147f8     Hotkeys.obj
 0002:00016818       ??_C@_1BE@OBMHKFLE@?$AAC?$AAo?$AAp?$AAy?$AA?$CI?$AA0?$AA?0?$AA0?$AA?$CJ?$AA?$AA@ 0000000140114818     Hotkeys.obj
 0002:00016830       ??_C@_1BO@NDJFFDMP@?$AAC?$AAT?$AAS?$AA?4?$AAV?$AAk?$AAC?$AAo?$AAp?$AAy?$AAF?$AAm?$AAt?$AA0?$AA?$AA@ 0000000140114830     Hotkeys.obj
 0002:00016850       ??_C@_1CA@LEHIKMFK@?$AAC?$AAT?$AAS?$AA?4?$AAV?$AAk?$AAT?$AAe?$AAx?$AAt?$AAS?$AAt?$AAa?$AAr?$AAt?$AA?$AA@ 0000000140114850     Hotkeys.obj
 0002:00016870       ??_C@_1CC@JNEMEDIA@?$AAC?$AAT?$AAS?$AA?4?$AAV?$AAk?$AAB?$AAl?$AAo?$AAc?$AAk?$AAS?$AAt?$AAa?$AAr?$AAt?$AA?$AA@ 0000000140114870     Hotkeys.obj
 0002:00016898       ??_C@_1BK@CEJCOGBN@?$AAM?$AAu?$AAl?$AAt?$AAi?$AA?4?$AAC?$AAm?$AAd?$AAK?$AAe?$AAy?$AA?$AA@ 0000000140114898     Hotkeys.obj
 0002:000168b8       ??_C@_1CA@NGEOLPFF@?$AAM?$AAu?$AAl?$AAt?$AAi?$AA?4?$AAM?$AAo?$AAv?$AAe?$AAR?$AAi?$AAg?$AAh?$AAt?$AA?$AA@ 00000001401148b8     Hotkeys.obj
 0002:000168d8       ??_C@_1BO@DKJFDPCG@?$AAM?$AAu?$AAl?$AAt?$AAi?$AA?4?$AAM?$AAo?$AAv?$AAe?$AAL?$AAe?$AAf?$AAt?$AA?$AA@ 00000001401148d8     Hotkeys.obj
 0002:000168f8       ??_C@_1BK@FACLMJOE@?$AAM?$AAu?$AAl?$AAt?$AAi?$AA?4?$AAR?$AAe?$AAn?$AAa?$AAm?$AAe?$AA?$AA@ 00000001401148f8     Hotkeys.obj
 0002:00016918       ??_C@_1BC@FGMEFLOB@?$AAC?$AAl?$AAo?$AAs?$AAe?$AA?$CI?$AA2?$AA?$CJ?$AA?$AA@ 0000000140114918     Hotkeys.obj
 0002:00016930       ??_C@_1BO@ILJBAFL@?$AAC?$AAl?$AAo?$AAs?$AAe?$AAC?$AAo?$AAn?$AAE?$AAm?$AAu?$AAK?$AAe?$AAy?$AA?$AA@ 0000000140114930     Hotkeys.obj
 0002:00016950       ??_C@_1CC@BFCJHOOG@?$AAD?$AAu?$AAp?$AAl?$AAi?$AAc?$AAa?$AAt?$AAe?$AAR?$AAo?$AAo?$AAt?$AAK?$AAe?$AAy?$AA?$AA@ 0000000140114950     Hotkeys.obj
 0002:00016978       ??_C@_1CI@ILOCKAND@?$AAT?$AAe?$AAr?$AAm?$AAi?$AAn?$AAa?$AAt?$AAe?$AAP?$AAr?$AAo?$AAc?$AAe?$AAs?$AAs?$AAK?$AAe?$AAy?$AA?$AA@ 0000000140114978     Hotkeys.obj
 0002:000169a0       ??_C@_1BC@ELMBGLFJ@?$AAC?$AAl?$AAo?$AAs?$AAe?$AA?$CI?$AA5?$AA?$CJ?$AA?$AA@ 00000001401149a0     Hotkeys.obj
 0002:000169b8       ??_C@_1CE@KENOOKMO@?$AAC?$AAl?$AAo?$AAs?$AAe?$AAE?$AAx?$AAc?$AAe?$AAp?$AAt?$AAC?$AAo?$AAn?$AAK?$AAe?$AAy?$AA?$AA@ 00000001401149b8     Hotkeys.obj
 0002:000169e0       ??_C@_1BC@PHFPHIIH@?$AAC?$AAl?$AAo?$AAs?$AAe?$AA?$CI?$AA8?$AA?$CJ?$AA?$AA@ 00000001401149e0     Hotkeys.obj
 0002:000169f8       ??_C@_1BO@GEOGDBOA@?$AAC?$AAl?$AAo?$AAs?$AAe?$AAA?$AAl?$AAl?$AAC?$AAo?$AAn?$AAK?$AAe?$AAy?$AA?$AA@ 00000001401149f8     Hotkeys.obj
 0002:00016a18       ??_C@_1BC@GAJMKFC@?$AAC?$AAl?$AAo?$AAs?$AAe?$AA?$CI?$AA7?$AA?$CJ?$AA?$AA@ 0000000140114a18     Hotkeys.obj
 0002:00016a30       ??_C@_1CC@LEJNFPPP@?$AAC?$AAl?$AAo?$AAs?$AAe?$AAG?$AAr?$AAo?$AAu?$AAp?$AAP?$AAr?$AAc?$AAK?$AAe?$AAy?$AA?$AA@ 0000000140114a30     Hotkeys.obj
 0002:00016a58       ??_C@_1BC@IAJNLIPM@?$AAC?$AAl?$AAo?$AAs?$AAe?$AA?$CI?$AA4?$AA?$CJ?$AA?$AA@ 0000000140114a58     Hotkeys.obj
 0002:00016a70       ??_C@_1BM@GACGNGBJ@?$AAC?$AAl?$AAo?$AAs?$AAe?$AAG?$AAr?$AAo?$AAu?$AAp?$AAK?$AAe?$AAy?$AA?$AA@ 0000000140114a70     Hotkeys.obj
 0002:00016a90       ??_C@_1BC@MNFFBJPH@?$AAC?$AAl?$AAo?$AAs?$AAe?$AA?$CI?$AA6?$AA?$CJ?$AA?$AA@ 0000000140114a90     Hotkeys.obj
 0002:00016aa8       ??_C@_1BI@NEBJOECJ@?$AAC?$AAl?$AAo?$AAs?$AAe?$AAT?$AAa?$AAb?$AAK?$AAe?$AAy?$AA?$AA@ 0000000140114aa8     Hotkeys.obj
 0002:00016ac0       ??_C@_1BI@DIPHGPCH@?$AAM?$AAu?$AAl?$AAt?$AAi?$AA?4?$AAC?$AAl?$AAo?$AAs?$AAe?$AA?$AA@ 0000000140114ac0     Hotkeys.obj
 0002:00016ad8       ??_C@_1BK@LMFFGCAJ@?$AAM?$AAu?$AAl?$AAt?$AAi?$AA?4?$AAS?$AAc?$AAr?$AAo?$AAl?$AAl?$AA?$AA@ 0000000140114ad8     Hotkeys.obj
 0002:00016af8       ??_C@_1BK@MGEHLIMC@?$AAM?$AAu?$AAl?$AAt?$AAi?$AA?4?$AAA?$AAl?$AAt?$AAC?$AAo?$AAn?$AA?$AA@ 0000000140114af8     Hotkeys.obj
 0002:00016b18       ??_C@_1BO@BNNCJOIC@?$AAM?$AAu?$AAl?$AAt?$AAi?$AA?4?$AAR?$AAe?$AAc?$AAr?$AAe?$AAa?$AAt?$AAe?$AA?$AA@ 0000000140114b18     Hotkeys.obj
 0002:00016b38       ??_C@_1CA@OLLKEILC@?$AAM?$AAu?$AAl?$AAt?$AAi?$AA?4?$AAN?$AAe?$AAx?$AAt?$AAS?$AAh?$AAi?$AAf?$AAt?$AA?$AA@ 0000000140114b38     Hotkeys.obj
 0002:00016b58       ??_C@_1BG@LDKACANP@?$AAM?$AAu?$AAl?$AAt?$AAi?$AA?4?$AAN?$AAe?$AAx?$AAt?$AA?$AA@ 0000000140114b58     Hotkeys.obj
 0002:00016b70       ??_C@_1CA@ICPJDEGB@?$AAM?$AAu?$AAl?$AAt?$AAi?$AA?4?$AAN?$AAe?$AAw?$AAA?$AAt?$AAt?$AAa?$AAc?$AAh?$AA?$AA@ 0000000140114b70     Hotkeys.obj
 0002:00016b90       ??_C@_1CA@IJOKDHFO@?$AAM?$AAu?$AAl?$AAt?$AAi?$AA?4?$AAN?$AAe?$AAw?$AAW?$AAi?$AAn?$AAd?$AAo?$AAw?$AA?$AA@ 0000000140114b90     Hotkeys.obj
 0002:00016bb0       ??_C@_1CO@HILEHJGJ@?$AAM?$AAu?$AAl?$AAt?$AAi?$AA?4?$AAN?$AAe?$AAw?$AAC?$AAo?$AAn?$AAs?$AAo?$AAl?$AAe?$AAP?$AAo?$AAp?$AAu?$AAp?$AA2?$AA?$AA@ 0000000140114bb0     Hotkeys.obj
 0002:00016be0       ??_C@_1CM@DLMBDCIJ@?$AAM?$AAu?$AAl?$AAt?$AAi?$AA?4?$AAN?$AAe?$AAw?$AAC?$AAo?$AAn?$AAs?$AAo?$AAl?$AAe?$AAP?$AAo?$AAp?$AAu?$AAp?$AA?$AA@ 0000000140114be0     Hotkeys.obj
 0002:00016c10       ??_C@_1CM@MHFHDGGC@?$AAM?$AAu?$AAl?$AAt?$AAi?$AA?4?$AAN?$AAe?$AAw?$AAC?$AAo?$AAn?$AAs?$AAo?$AAl?$AAe?$AAS?$AAh?$AAi?$AAf?$AAt?$AA?$AA@ 0000000140114c10     Hotkeys.obj
 0002:00016c40       ??_C@_1CC@PGMKAKGI@?$AAM?$AAu?$AAl?$AAt?$AAi?$AA?4?$AAN?$AAe?$AAw?$AAC?$AAo?$AAn?$AAs?$AAo?$AAl?$AAe?$AA?$AA@ 0000000140114c40     Hotkeys.obj
 0002:00016c68       ??_C@_1BK@BKOBDKGL@?$AAS?$AAp?$AAl?$AAi?$AAt?$AA?$CI?$AA2?$AA?0?$AA1?$AA?0?$AA0?$AA?$CJ?$AA?$AA@ 0000000140114c68     Hotkeys.obj
 0002:00016c88       ??_C@_1CE@PBCNIJHC@?$AAM?$AAu?$AAl?$AAt?$AAi?$AA?4?$AAS?$AAp?$AAl?$AAi?$AAt?$AAF?$AAo?$AAc?$AAu?$AAs?$AAR?$AA?$AA@ 0000000140114c88     Hotkeys.obj
 0002:00016cb0       ??_C@_1BM@EJLAEMJJ@?$AAS?$AAp?$AAl?$AAi?$AAt?$AA?$CI?$AA2?$AA?0?$AA?9?$AA1?$AA?0?$AA0?$AA?$CJ?$AA?$AA@ 0000000140114cb0     Hotkeys.obj
 0002:00016cd0       ??_C@_1CE@EBOLKJNO@?$AAM?$AAu?$AAl?$AAt?$AAi?$AA?4?$AAS?$AAp?$AAl?$AAi?$AAt?$AAF?$AAo?$AAc?$AAu?$AAs?$AAL?$AA?$AA@ 0000000140114cd0     Hotkeys.obj
 0002:00016cf8       ??_C@_1BK@DOHPICPA@?$AAS?$AAp?$AAl?$AAi?$AAt?$AA?$CI?$AA2?$AA?0?$AA0?$AA?0?$AA1?$AA?$CJ?$AA?$AA@ 0000000140114cf8     Hotkeys.obj
 0002:00016d18       ??_C@_1CE@IEFPIBDB@?$AAM?$AAu?$AAl?$AAt?$AAi?$AA?4?$AAS?$AAp?$AAl?$AAi?$AAt?$AAF?$AAo?$AAc?$AAu?$AAs?$AAD?$AA?$AA@ 0000000140114d18     Hotkeys.obj
 0002:00016d40       ??_C@_1BM@OKBHJOI@?$AAS?$AAp?$AAl?$AAi?$AAt?$AA?$CI?$AA2?$AA?0?$AA0?$AA?0?$AA?9?$AA1?$AA?$CJ?$AA?$AA@ 0000000140114d40     Hotkeys.obj
 0002:00016d60       ??_C@_1CE@GMPKLBML@?$AAM?$AAu?$AAl?$AAt?$AAi?$AA?4?$AAS?$AAp?$AAl?$AAi?$AAt?$AAF?$AAo?$AAc?$AAu?$AAs?$AAU?$AA?$AA@ 0000000140114d60     Hotkeys.obj
 0002:00016d88       ??_C@_1BG@KDGAALIA@?$AAT?$AAa?$AAb?$AA?$CI?$AA1?$AA0?$AA?0?$AA?9?$AA1?$AA?$CJ?$AA?$AA@ 0000000140114d88     Hotkeys.obj
 0002:00016da0       ??_C@_1BK@OFOPDOBA@?$AAK?$AAe?$AAy?$AA?4?$AAT?$AAa?$AAb?$AAP?$AAa?$AAn?$AAe?$AA2?$AA?$AA@ 0000000140114da0     Hotkeys.obj
 0002:00016dc0       ??_C@_1BE@HIAGIPFF@?$AAT?$AAa?$AAb?$AA?$CI?$AA1?$AA0?$AA?0?$AA1?$AA?$CJ?$AA?$AA@ 0000000140114dc0     Hotkeys.obj
 0002:00016dd8       ??_C@_1BK@PHFKJBPO@?$AAK?$AAe?$AAy?$AA?4?$AAT?$AAa?$AAb?$AAP?$AAa?$AAn?$AAe?$AA1?$AA?$AA@ 0000000140114dd8     Hotkeys.obj
 0002:00016df8       ??_C@_1BK@GGIABPLA@?$AAS?$AAp?$AAl?$AAi?$AAt?$AA?$CI?$AA1?$AA?0?$AA1?$AA?0?$AA0?$AA?$CJ?$AA?$AA@ 0000000140114df8     Hotkeys.obj
 0002:00016e18       ??_C@_1CE@DFLMBCPE@?$AAM?$AAu?$AAl?$AAt?$AAi?$AA?4?$AAS?$AAp?$AAl?$AAi?$AAt?$AAS?$AAi?$AAz?$AAe?$AAH?$AAR?$AA?$AA@ 0000000140114e18     Hotkeys.obj
 0002:00016e40       ??_C@_1BM@GAHIPIGL@?$AAS?$AAp?$AAl?$AAi?$AAt?$AA?$CI?$AA1?$AA?0?$AA?9?$AA1?$AA?0?$AA0?$AA?$CJ?$AA?$AA@ 0000000140114e40     Hotkeys.obj
 0002:00016e60       ??_C@_1CE@IFHKDCFI@?$AAM?$AAu?$AAl?$AAt?$AAi?$AA?4?$AAS?$AAp?$AAl?$AAi?$AAt?$AAS?$AAi?$AAz?$AAe?$AAH?$AAL?$AA?$AA@ 0000000140114e60     Hotkeys.obj
 0002:00016e88       ??_C@_1BK@ECBOKHCL@?$AAS?$AAp?$AAl?$AAi?$AAt?$AA?$CI?$AA1?$AA?0?$AA0?$AA?0?$AA1?$AA?$CJ?$AA?$AA@ 0000000140114e88     Hotkeys.obj
 0002:00016ea8       ??_C@_1CE@HJBCHJFM@?$AAM?$AAu?$AAl?$AAt?$AAi?$AA?4?$AAS?$AAp?$AAl?$AAi?$AAt?$AAS?$AAi?$AAz?$AAe?$AAV?$AAD?$AA?$AA@ 0000000140114ea8     Hotkeys.obj
 0002:00016ed0       ??_C@_1BM@CHGJMNBK@?$AAS?$AAp?$AAl?$AAi?$AAt?$AA?$CI?$AA1?$AA?0?$AA0?$AA?0?$AA?9?$AA1?$AA?$CJ?$AA?$AA@ 0000000140114ed0     Hotkeys.obj
 0002:00016ef0       ??_C@_1CE@JBLHEJKG@?$AAM?$AAu?$AAl?$AAt?$AAi?$AA?4?$AAS?$AAp?$AAl?$AAi?$AAt?$AAS?$AAi?$AAz?$AAe?$AAV?$AAU?$AA?$AA@ 0000000140114ef0     Hotkeys.obj
 0002:00016f18       ??_C@_1BM@CLMGJJMG@?$AAS?$AAp?$AAl?$AAi?$AAt?$AA?$CI?$AA0?$AA?0?$AA5?$AA0?$AA?0?$AA0?$AA?$CJ?$AA?$AA@ 0000000140114f18     Hotkeys.obj
 0002:00016f38       ??_C@_1CA@FPFOLAGL@?$AAM?$AAu?$AAl?$AAt?$AAi?$AA?4?$AAN?$AAe?$AAw?$AAS?$AAp?$AAl?$AAi?$AAt?$AAH?$AA?$AA@ 0000000140114f38     Hotkeys.obj
 0002:00016f58       ??_C@_1BM@ONADKFLA@?$AAS?$AAp?$AAl?$AAi?$AAt?$AA?$CI?$AA0?$AA?0?$AA0?$AA?0?$AA5?$AA0?$AA?$CJ?$AA?$AA@ 0000000140114f58     Hotkeys.obj
 0002:00016f78       ??_C@_1CA@OPJIJAMH@?$AAM?$AAu?$AAl?$AAt?$AAi?$AA?4?$AAN?$AAe?$AAw?$AAS?$AAp?$AAl?$AAi?$AAt?$AAV?$AA?$AA@ 0000000140114f78     Hotkeys.obj
 0002:00016f98       ??_C@_1CA@CPFBNKCH@?$AAC?$AAh?$AAi?$AAl?$AAd?$AAS?$AAy?$AAs?$AAt?$AAe?$AAm?$AAM?$AAe?$AAn?$AAu?$AA?$AA@ 0000000140114f98     Hotkeys.obj
 0002:00016fb8       ??_C@_1BM@BHNDDKGO@?$AAS?$AAe?$AAt?$AAF?$AAo?$AAc?$AAu?$AAs?$AAC?$AAh?$AAi?$AAl?$AAd?$AA?$AA@ 0000000140114fb8     Hotkeys.obj
 0002:00016fd8       ??_C@_1BI@LJAIEEAA@?$AAS?$AAe?$AAt?$AAF?$AAo?$AAc?$AAu?$AAs?$AAG?$AAu?$AAi?$AA?$AA@ 0000000140114fd8     Hotkeys.obj
 0002:00016ff0       ??_C@_1BO@DGGPHGFC@?$AAS?$AAw?$AAi?$AAt?$AAc?$AAh?$AAG?$AAu?$AAi?$AAF?$AAo?$AAc?$AAu?$AAs?$AA?$AA@ 0000000140114ff0     Hotkeys.obj
 0002:00017010       ??_C@_1CC@KMNKBBOB@?$AAF?$AAo?$AAr?$AAc?$AAe?$AAd?$AAF?$AAu?$AAl?$AAl?$AAS?$AAc?$AAr?$AAe?$AAe?$AAn?$AA?$AA@ 0000000140115010     Hotkeys.obj
 0002:00017038       ??_C@_1BM@GMKMDODP@?$AAG?$AAl?$AAo?$AAb?$AAa?$AAl?$AAR?$AAe?$AAs?$AAt?$AAo?$AAr?$AAe?$AA?$AA@ 0000000140115038     Hotkeys.obj
 0002:00017058       ??_C@_1CC@KMEEOMPN@?$AAM?$AAi?$AAn?$AAi?$AAm?$AAi?$AAz?$AAe?$AAR?$AAe?$AAs?$AAt?$AAo?$AAr?$AAe?$AA2?$AA?$AA@ 0000000140115058     Hotkeys.obj
 0002:00017080       ??_C@_1CA@JKGDBGKM@?$AAM?$AAi?$AAn?$AAi?$AAm?$AAi?$AAz?$AAe?$AAR?$AAe?$AAs?$AAt?$AAo?$AAr?$AAe?$AA?$AA@ 0000000140115080     Hotkeys.obj
 0002:000170a0       ??_C@_15ELOONFKJ@?$AA?3?$AA?5?$AA?$AA@ 00000001401150a0     Hotkeys.obj
 0002:000170a8       ??_C@_17PMGLGJCP@?$AA?$CD?$AA?$CF?$AAi?$AA?$AA@ 00000001401150a8     Hotkeys.obj
 0002:000170b0       ??_C@_1BK@NGPHDOJH@?$AAM?$AAa?$AAc?$AAr?$AAo?$AA?5?$AA?$CF?$AA0?$AA2?$AAi?$AA?3?$AA?5?$AA?$AA@ 00000001401150b0     Hotkeys.obj
 0002:000170d0       ??_C@_1BI@EJKMGCLM@?$AA?$FL?$AAD?$AAi?$AAs?$AAa?$AAb?$AAl?$AAe?$AAd?$AA?$FN?$AA?5?$AA?$AA@ 00000001401150d0     Hotkeys.obj
 0002:000170e8       ??_C@_1BO@PPHAEBMG@?$AA?$FL?$AAI?$AAn?$AAS?$AAe?$AAl?$AAe?$AAc?$AAt?$AAi?$AAo?$AAn?$AA?$FN?$AA?5?$AA?$AA@ 00000001401150e8     Hotkeys.obj
 0002:00017108       ??_C@_17HOKPCPNH@?$AAF?$AA?$CF?$AAu?$AA?$AA@ 0000000140115108     Hotkeys.obj
 0002:00017110       ??_C@_1BA@NNKNECIG@?$AAM?$AAB?$AAu?$AAt?$AAt?$AAo?$AAn?$AA?$AA@ 0000000140115110     Hotkeys.obj
 0002:00017120       ??_C@_1BA@LFGABLCC@?$AAR?$AAB?$AAu?$AAt?$AAt?$AAo?$AAn?$AA?$AA@ 0000000140115120     Hotkeys.obj
 0002:00017130       ??_C@_1BA@HDMFNDBH@?$AAL?$AAB?$AAu?$AAt?$AAt?$AAo?$AAn?$AA?$AA@ 0000000140115130     Hotkeys.obj
 0002:00017140       ??_C@_1BG@CCAOCACD@?$AAW?$AAh?$AAe?$AAe?$AAl?$AAR?$AAi?$AAg?$AAh?$AAt?$AA?$AA@ 0000000140115140     Hotkeys.obj
 0002:00017158       ??_C@_1BE@HEIJKNKP@?$AAW?$AAh?$AAe?$AAe?$AAl?$AAL?$AAe?$AAf?$AAt?$AA?$AA@ 0000000140115158     Hotkeys.obj
 0002:00017170       ??_C@_1BE@BLAJHFG@?$AAW?$AAh?$AAe?$AAe?$AAl?$AAD?$AAo?$AAw?$AAn?$AA?$AA@ 0000000140115170     Hotkeys.obj
 0002:00017188       ??_C@_1BA@KOGHENKE@?$AAW?$AAh?$AAe?$AAe?$AAl?$AAU?$AAp?$AA?$AA@ 0000000140115188     Hotkeys.obj
 0002:00017198       ??_C@_15CBBHILNF@?$AA?$CL?$AA?$DN?$AA?$AA@ 0000000140115198     Hotkeys.obj
 0002:000171a0       ??_C@_15GGGBFHEA@?$AA?9?$AA_?$AA?$AA@ 00000001401151a0     Hotkeys.obj
 0002:000171a8       ??_C@_1BE@OPKNENJE@?$AAB?$AAa?$AAc?$AAk?$AAs?$AAp?$AAa?$AAc?$AAe?$AA?$AA@ 00000001401151a8     Hotkeys.obj
 0002:000171c0       ??_C@_1M@FCNBKECH@?$AAE?$AAn?$AAt?$AAe?$AAr?$AA?$AA@ 00000001401151c0     Hotkeys.obj
 0002:000171d0       ??_C@_1M@ODIKOLHI@?$AAP?$AAa?$AAu?$AAs?$AAe?$AA?$AA@ 00000001401151d0     Hotkeys.obj
 0002:000171e0       ??_C@_17HNBKOCGB@?$AAE?$AAn?$AAd?$AA?$AA@ 00000001401151e0     Hotkeys.obj
 0002:000171e8       ??_C@_19CAEBHJHP@?$AAH?$AAo?$AAm?$AAe?$AA?$AA@ 00000001401151e8     Hotkeys.obj
 0002:000171f8       ??_C@_1O@JDLOHAN@?$AAD?$AAe?$AAl?$AAe?$AAt?$AAe?$AA?$AA@ 00000001401151f8     Hotkeys.obj
 0002:00017208       ??_C@_1O@CHAKDKNK@?$AAI?$AAn?$AAs?$AAe?$AAr?$AAt?$AA?$AA@ 0000000140115208     Hotkeys.obj
 0002:00017218       ??_C@_17FPIFMLJN@?$AAE?$AAs?$AAc?$AA?$AA@ 0000000140115218     Hotkeys.obj
 0002:00017220       ??_C@_17BJDGDONN@?$AAT?$AAa?$AAb?$AA?$AA@ 0000000140115220     Hotkeys.obj
 0002:00017228       ??_C@_1M@KHFPOOBE@?$AAS?$AAp?$AAa?$AAc?$AAe?$AA?$AA@ 0000000140115228     Hotkeys.obj
